
test_g:     file format elf64-x86-64


Disassembly of section .text:

00000000006c51f0 <_start>:
  6c51f0:	f3 0f 1e fa          	endbr64 
  6c51f4:	31 ed                	xor    %ebp,%ebp
  6c51f6:	49 89 d1             	mov    %rdx,%r9
  6c51f9:	5e                   	pop    %rsi
  6c51fa:	48 89 e2             	mov    %rsp,%rdx
  6c51fd:	48 83 e4 f0          	and    $0xfffffffffffffff0,%rsp
  6c5201:	50                   	push   %rax
  6c5202:	54                   	push   %rsp
  6c5203:	4c 8d 05 56 8b 02 00 	lea    0x28b56(%rip),%r8        # 6edd60 <__libc_csu_fini>
  6c520a:	48 8d 0d df 8a 02 00 	lea    0x28adf(%rip),%rcx        # 6edcf0 <__libc_csu_init>
  6c5211:	48 8d 3d f8 45 03 00 	lea    0x345f8(%rip),%rdi        # 6f9810 <main>
  6c5218:	ff 15 fa 6c 03 00    	callq  *0x36cfa(%rip)        # 6fbf18 <__libc_start_main@GLIBC_2.2.5>
  6c521e:	f4                   	hlt    
  6c521f:	90                   	nop

00000000006c5220 <_dl_relocate_static_pie>:
  6c5220:	f3 0f 1e fa          	endbr64 
  6c5224:	c3                   	retq   
  6c5225:	cc                   	int3   
  6c5226:	cc                   	int3   
  6c5227:	cc                   	int3   
  6c5228:	cc                   	int3   
  6c5229:	cc                   	int3   
  6c522a:	cc                   	int3   
  6c522b:	cc                   	int3   
  6c522c:	cc                   	int3   
  6c522d:	cc                   	int3   
  6c522e:	cc                   	int3   
  6c522f:	cc                   	int3   

00000000006c5230 <deregister_tm_clones>:
  6c5230:	b8 a8 d3 70 00       	mov    $0x70d3a8,%eax
  6c5235:	48 3d a8 d3 70 00    	cmp    $0x70d3a8,%rax
  6c523b:	74 13                	je     6c5250 <deregister_tm_clones+0x20>
  6c523d:	b8 00 00 00 00       	mov    $0x0,%eax
  6c5242:	48 85 c0             	test   %rax,%rax
  6c5245:	74 09                	je     6c5250 <deregister_tm_clones+0x20>
  6c5247:	bf a8 d3 70 00       	mov    $0x70d3a8,%edi
  6c524c:	ff e0                	jmpq   *%rax
  6c524e:	66 90                	xchg   %ax,%ax
  6c5250:	c3                   	retq   
  6c5251:	66 66 2e 0f 1f 84 00 	data16 nopw %cs:0x0(%rax,%rax,1)
  6c5258:	00 00 00 00 
  6c525c:	0f 1f 40 00          	nopl   0x0(%rax)

00000000006c5260 <register_tm_clones>:
  6c5260:	be a8 d3 70 00       	mov    $0x70d3a8,%esi
  6c5265:	48 81 ee a8 d3 70 00 	sub    $0x70d3a8,%rsi
  6c526c:	48 89 f0             	mov    %rsi,%rax
  6c526f:	48 c1 ee 3f          	shr    $0x3f,%rsi
  6c5273:	48 c1 f8 03          	sar    $0x3,%rax
  6c5277:	48 01 c6             	add    %rax,%rsi
  6c527a:	48 d1 fe             	sar    %rsi
  6c527d:	74 11                	je     6c5290 <register_tm_clones+0x30>
  6c527f:	b8 00 00 00 00       	mov    $0x0,%eax
  6c5284:	48 85 c0             	test   %rax,%rax
  6c5287:	74 07                	je     6c5290 <register_tm_clones+0x30>
  6c5289:	bf a8 d3 70 00       	mov    $0x70d3a8,%edi
  6c528e:	ff e0                	jmpq   *%rax
  6c5290:	c3                   	retq   
  6c5291:	66 66 2e 0f 1f 84 00 	data16 nopw %cs:0x0(%rax,%rax,1)
  6c5298:	00 00 00 00 
  6c529c:	0f 1f 40 00          	nopl   0x0(%rax)

00000000006c52a0 <__do_global_dtors_aux>:
  6c52a0:	f3 0f 1e fa          	endbr64 
  6c52a4:	80 3d 15 83 04 00 00 	cmpb   $0x0,0x48315(%rip)        # 70d5c0 <completed.8061>
  6c52ab:	75 13                	jne    6c52c0 <__do_global_dtors_aux+0x20>
  6c52ad:	55                   	push   %rbp
  6c52ae:	48 89 e5             	mov    %rsp,%rbp
  6c52b1:	e8 7a ff ff ff       	callq  6c5230 <deregister_tm_clones>
  6c52b6:	c6 05 03 83 04 00 01 	movb   $0x1,0x48303(%rip)        # 70d5c0 <completed.8061>
  6c52bd:	5d                   	pop    %rbp
  6c52be:	c3                   	retq   
  6c52bf:	90                   	nop
  6c52c0:	c3                   	retq   
  6c52c1:	66 66 2e 0f 1f 84 00 	data16 nopw %cs:0x0(%rax,%rax,1)
  6c52c8:	00 00 00 00 
  6c52cc:	0f 1f 40 00          	nopl   0x0(%rax)

00000000006c52d0 <frame_dummy>:
  6c52d0:	f3 0f 1e fa          	endbr64 
  6c52d4:	eb 8a                	jmp    6c5260 <register_tm_clones>
  6c52d6:	cc                   	int3   
  6c52d7:	cc                   	int3   
  6c52d8:	cc                   	int3   
  6c52d9:	cc                   	int3   
  6c52da:	cc                   	int3   
  6c52db:	cc                   	int3   
  6c52dc:	cc                   	int3   
  6c52dd:	cc                   	int3   
  6c52de:	cc                   	int3   
  6c52df:	cc                   	int3   

00000000006c52e0 <_ZN11__sanitizer18internal_allocatorEv>:
  6c52e0:	53                   	push   %rbx
  6c52e1:	8a 05 59 93 0c 00    	mov    0xc9359(%rip),%al        # 78e640 <_ZN11__sanitizerL30internal_allocator_initializedE>
  6c52e7:	84 c0                	test   %al,%al
  6c52e9:	74 09                	je     6c52f4 <_ZN11__sanitizer18internal_allocatorEv+0x14>
  6c52eb:	48 8d 05 0e 83 04 00 	lea    0x4830e(%rip),%rax        # 70d600 <_ZN11__sanitizerL26internal_alloc_placeholderE>
  6c52f2:	5b                   	pop    %rbx
  6c52f3:	c3                   	retq   
  6c52f4:	b0 01                	mov    $0x1,%al
  6c52f6:	86 05 45 93 0c 00    	xchg   %al,0xc9345(%rip)        # 78e641 <_ZN11__sanitizerL22internal_alloc_init_muE>
  6c52fc:	84 c0                	test   %al,%al
  6c52fe:	0f 85 b4 00 00 00    	jne    6c53b8 <_ZN11__sanitizer18internal_allocatorEv+0xd8>
  6c5304:	80 3d 35 93 0c 00 00 	cmpb   $0x0,0xc9335(%rip)        # 78e640 <_ZN11__sanitizerL30internal_allocator_initializedE>
  6c530b:	0f 85 97 00 00 00    	jne    6c53a8 <_ZN11__sanitizer18internal_allocatorEv+0xc8>
  6c5311:	48 8d 1d f0 92 0c 00 	lea    0xc92f0(%rip),%rbx        # 78e608 <_ZN11__sanitizerL26internal_alloc_placeholderE+0x81008>
  6c5318:	ba 28 00 00 00       	mov    $0x28,%edx
  6c531d:	48 89 df             	mov    %rbx,%rdi
  6c5320:	31 f6                	xor    %esi,%esi
  6c5322:	e8 89 8c 00 00       	callq  6cdfb0 <_ZN11__sanitizer15internal_memsetEPvim>
  6c5327:	48 89 1d da 92 0c 00 	mov    %rbx,0xc92da(%rip)        # 78e608 <_ZN11__sanitizerL26internal_alloc_placeholderE+0x81008>
  6c532e:	48 89 1d db 92 0c 00 	mov    %rbx,0xc92db(%rip)        # 78e610 <_ZN11__sanitizerL26internal_alloc_placeholderE+0x81010>
  6c5335:	c6 05 c4 82 04 00 00 	movb   $0x0,0x482c4(%rip)        # 70d600 <_ZN11__sanitizerL26internal_alloc_placeholderE>
  6c533c:	48 8d 3d c5 82 04 00 	lea    0x482c5(%rip),%rdi        # 70d608 <_ZN11__sanitizerL26internal_alloc_placeholderE+0x8>
  6c5343:	ba 00 00 04 00       	mov    $0x40000,%edx
  6c5348:	31 f6                	xor    %esi,%esi
  6c534a:	e8 61 8c 00 00       	callq  6cdfb0 <_ZN11__sanitizer15internal_memsetEPvim>
  6c534f:	48 8d 3d ea 82 08 00 	lea    0x882ea(%rip),%rdi        # 74d640 <_ZN11__sanitizerL26internal_alloc_placeholderE+0x40040>
  6c5356:	ba 80 0d 00 00       	mov    $0xd80,%edx
  6c535b:	31 f6                	xor    %esi,%esi
  6c535d:	e8 4e 8c 00 00       	callq  6cdfb0 <_ZN11__sanitizer15internal_memsetEPvim>
  6c5362:	48 8d 3d 57 90 08 00 	lea    0x89057(%rip),%rdi        # 74e3c0 <_ZN11__sanitizerL26internal_alloc_placeholderE+0x40dc0>
  6c5369:	ba 48 02 04 00       	mov    $0x40248,%edx
  6c536e:	31 f6                	xor    %esi,%esi
  6c5370:	e8 3b 8c 00 00       	callq  6cdfb0 <_ZN11__sanitizer15internal_memsetEPvim>
  6c5375:	48 8d 1d 04 6b 0d 00 	lea    0xd6b04(%rip),%rbx        # 79be80 <_ZN11__sanitizer14PageSizeCachedE>
  6c537c:	48 8b 03             	mov    (%rbx),%rax
  6c537f:	48 85 c0             	test   %rax,%rax
  6c5382:	75 08                	jne    6c538c <_ZN11__sanitizer18internal_allocatorEv+0xac>
  6c5384:	e8 67 c1 00 00       	callq  6d14f0 <_ZN11__sanitizer11GetPageSizeEv>
  6c5389:	48 89 03             	mov    %rax,(%rbx)
  6c538c:	48 89 05 2d 90 08 00 	mov    %rax,0x8902d(%rip)        # 74e3c0 <_ZN11__sanitizerL26internal_alloc_placeholderE+0x40dc0>
  6c5393:	48 8d 05 36 90 08 00 	lea    0x89036(%rip),%rax        # 74e3d0 <_ZN11__sanitizerL26internal_alloc_placeholderE+0x40dd0>
  6c539a:	48 89 05 27 90 08 00 	mov    %rax,0x89027(%rip)        # 74e3c8 <_ZN11__sanitizerL26internal_alloc_placeholderE+0x40dc8>
  6c53a1:	c6 05 98 92 0c 00 01 	movb   $0x1,0xc9298(%rip)        # 78e640 <_ZN11__sanitizerL30internal_allocator_initializedE>
  6c53a8:	c6 05 92 92 0c 00 00 	movb   $0x0,0xc9292(%rip)        # 78e641 <_ZN11__sanitizerL22internal_alloc_init_muE>
  6c53af:	48 8d 05 4a 82 04 00 	lea    0x4824a(%rip),%rax        # 70d600 <_ZN11__sanitizerL26internal_alloc_placeholderE>
  6c53b6:	5b                   	pop    %rbx
  6c53b7:	c3                   	retq   
  6c53b8:	48 8d 3d 82 92 0c 00 	lea    0xc9282(%rip),%rdi        # 78e641 <_ZN11__sanitizerL22internal_alloc_init_muE>
  6c53bf:	e8 ec c8 00 00       	callq  6d1cb0 <_ZN11__sanitizer15StaticSpinMutex8LockSlowEv>
  6c53c4:	80 3d 75 92 0c 00 00 	cmpb   $0x0,0xc9275(%rip)        # 78e640 <_ZN11__sanitizerL30internal_allocator_initializedE>
  6c53cb:	75 db                	jne    6c53a8 <_ZN11__sanitizer18internal_allocatorEv+0xc8>
  6c53cd:	e9 3f ff ff ff       	jmpq   6c5311 <_ZN11__sanitizer18internal_allocatorEv+0x31>
  6c53d2:	cc                   	int3   
  6c53d3:	cc                   	int3   
  6c53d4:	cc                   	int3   
  6c53d5:	cc                   	int3   
  6c53d6:	cc                   	int3   
  6c53d7:	cc                   	int3   
  6c53d8:	cc                   	int3   
  6c53d9:	cc                   	int3   
  6c53da:	cc                   	int3   
  6c53db:	cc                   	int3   
  6c53dc:	cc                   	int3   
  6c53dd:	cc                   	int3   
  6c53de:	cc                   	int3   
  6c53df:	cc                   	int3   

00000000006c53e0 <_ZN11__sanitizer13InternalAllocEmPNS_30SizeClassAllocator32LocalCacheINS_20SizeClassAllocator32INS_4AP32EEEEEm>:
  6c53e0:	41 57                	push   %r15
  6c53e2:	41 56                	push   %r14
  6c53e4:	53                   	push   %rbx
  6c53e5:	49 89 fe             	mov    %rdi,%r14
  6c53e8:	48 85 d2             	test   %rdx,%rdx
  6c53eb:	41 bf 08 00 00 00    	mov    $0x8,%r15d
  6c53f1:	4c 0f 45 fa          	cmovne %rdx,%r15
  6c53f5:	48 85 f6             	test   %rsi,%rsi
  6c53f8:	74 28                	je     6c5422 <_ZN11__sanitizer13InternalAllocEmPNS_30SizeClassAllocator32LocalCacheINS_20SizeClassAllocator32INS_4AP32EEEEEm+0x42>
  6c53fa:	48 89 f3             	mov    %rsi,%rbx
  6c53fd:	e8 de fe ff ff       	callq  6c52e0 <_ZN11__sanitizer18internal_allocatorEv>
  6c5402:	48 8d 3d f7 81 04 00 	lea    0x481f7(%rip),%rdi        # 70d600 <_ZN11__sanitizerL26internal_alloc_placeholderE>
  6c5409:	48 89 de             	mov    %rbx,%rsi
  6c540c:	4c 89 f2             	mov    %r14,%rdx
  6c540f:	4c 89 f9             	mov    %r15,%rcx
  6c5412:	e8 d9 05 00 00       	callq  6c59f0 <_ZN11__sanitizer17CombinedAllocatorINS_20SizeClassAllocator32INS_4AP32EEENS_32LargeMmapAllocatorPtrArrayStaticEE8AllocateEPNS_30SizeClassAllocator32LocalCacheIS3_EEmm>
  6c5417:	48 85 c0             	test   %rax,%rax
  6c541a:	74 3c                	je     6c5458 <_ZN11__sanitizer13InternalAllocEmPNS_30SizeClassAllocator32LocalCacheINS_20SizeClassAllocator32INS_4AP32EEEEEm+0x78>
  6c541c:	5b                   	pop    %rbx
  6c541d:	41 5e                	pop    %r14
  6c541f:	41 5f                	pop    %r15
  6c5421:	c3                   	retq   
  6c5422:	b0 01                	mov    $0x1,%al
  6c5424:	86 05 18 92 0c 00    	xchg   %al,0xc9218(%rip)        # 78e642 <_ZN11__sanitizerL27internal_allocator_cache_muE>
  6c542a:	84 c0                	test   %al,%al
  6c542c:	75 32                	jne    6c5460 <_ZN11__sanitizer13InternalAllocEmPNS_30SizeClassAllocator32LocalCacheINS_20SizeClassAllocator32INS_4AP32EEEEEm+0x80>
  6c542e:	e8 ad fe ff ff       	callq  6c52e0 <_ZN11__sanitizer18internal_allocatorEv>
  6c5433:	48 8d 3d c6 81 04 00 	lea    0x481c6(%rip),%rdi        # 70d600 <_ZN11__sanitizerL26internal_alloc_placeholderE>
  6c543a:	48 8d 35 17 92 0c 00 	lea    0xc9217(%rip),%rsi        # 78e658 <_ZN11__sanitizerL24internal_allocator_cacheE>
  6c5441:	4c 89 f2             	mov    %r14,%rdx
  6c5444:	4c 89 f9             	mov    %r15,%rcx
  6c5447:	e8 a4 05 00 00       	callq  6c59f0 <_ZN11__sanitizer17CombinedAllocatorINS_20SizeClassAllocator32INS_4AP32EEENS_32LargeMmapAllocatorPtrArrayStaticEE8AllocateEPNS_30SizeClassAllocator32LocalCacheIS3_EEmm>
  6c544c:	c6 05 ef 91 0c 00 00 	movb   $0x0,0xc91ef(%rip)        # 78e642 <_ZN11__sanitizerL27internal_allocator_cache_muE>
  6c5453:	48 85 c0             	test   %rax,%rax
  6c5456:	75 c4                	jne    6c541c <_ZN11__sanitizer13InternalAllocEmPNS_30SizeClassAllocator32LocalCacheINS_20SizeClassAllocator32INS_4AP32EEEEEm+0x3c>
  6c5458:	4c 89 f7             	mov    %r14,%rdi
  6c545b:	e8 10 00 00 00       	callq  6c5470 <_ZN11__sanitizerL34ReportInternalAllocatorOutOfMemoryEm>
  6c5460:	48 8d 3d db 91 0c 00 	lea    0xc91db(%rip),%rdi        # 78e642 <_ZN11__sanitizerL27internal_allocator_cache_muE>
  6c5467:	e8 44 c8 00 00       	callq  6d1cb0 <_ZN11__sanitizer15StaticSpinMutex8LockSlowEv>
  6c546c:	eb c0                	jmp    6c542e <_ZN11__sanitizer13InternalAllocEmPNS_30SizeClassAllocator32LocalCacheINS_20SizeClassAllocator32INS_4AP32EEEEEm+0x4e>
  6c546e:	cc                   	int3   
  6c546f:	cc                   	int3   

00000000006c5470 <_ZN11__sanitizerL34ReportInternalAllocatorOutOfMemoryEm>:
  6c5470:	50                   	push   %rax
  6c5471:	48 89 fa             	mov    %rdi,%rdx
  6c5474:	c6 05 d5 91 0c 00 01 	movb   $0x1,0xc91d5(%rip)        # 78e650 <_ZN11__sanitizerL23allocator_out_of_memoryE>
  6c547b:	48 8d 05 46 7b 03 00 	lea    0x37b46(%rip),%rax        # 6fcfc8 <_ZN11__sanitizer17SanitizerToolNameE>
  6c5482:	48 8b 30             	mov    (%rax),%rsi
  6c5485:	48 8d 3d 53 c2 b4 ff 	lea    -0x4b3dad(%rip),%rdi        # 2116df <_IO_stdin_used+0xe8ef>
  6c548c:	31 c0                	xor    %eax,%eax
  6c548e:	e8 ad e2 00 00       	callq  6d3740 <_ZN11__sanitizer6ReportEPKcz>
  6c5493:	e8 f8 40 01 00       	callq  6d9590 <_ZN11__sanitizer3DieEv>
  6c5498:	cc                   	int3   
  6c5499:	cc                   	int3   
  6c549a:	cc                   	int3   
  6c549b:	cc                   	int3   
  6c549c:	cc                   	int3   
  6c549d:	cc                   	int3   
  6c549e:	cc                   	int3   
  6c549f:	cc                   	int3   

00000000006c54a0 <_ZN11__sanitizer15InternalReallocEPvmPNS_30SizeClassAllocator32LocalCacheINS_20SizeClassAllocator32INS_4AP32EEEEE>:
  6c54a0:	41 57                	push   %r15
  6c54a2:	41 56                	push   %r14
  6c54a4:	53                   	push   %rbx
  6c54a5:	49 89 f6             	mov    %rsi,%r14
  6c54a8:	49 89 ff             	mov    %rdi,%r15
  6c54ab:	48 85 d2             	test   %rdx,%rdx
  6c54ae:	74 2e                	je     6c54de <_ZN11__sanitizer15InternalReallocEPvmPNS_30SizeClassAllocator32LocalCacheINS_20SizeClassAllocator32INS_4AP32EEEEE+0x3e>
  6c54b0:	48 89 d3             	mov    %rdx,%rbx
  6c54b3:	e8 28 fe ff ff       	callq  6c52e0 <_ZN11__sanitizer18internal_allocatorEv>
  6c54b8:	48 8d 3d 41 81 04 00 	lea    0x48141(%rip),%rdi        # 70d600 <_ZN11__sanitizerL26internal_alloc_placeholderE>
  6c54bf:	41 b8 08 00 00 00    	mov    $0x8,%r8d
  6c54c5:	48 89 de             	mov    %rbx,%rsi
  6c54c8:	4c 89 fa             	mov    %r15,%rdx
  6c54cb:	4c 89 f1             	mov    %r14,%rcx
  6c54ce:	e8 7d 20 00 00       	callq  6c7550 <_ZN11__sanitizer17CombinedAllocatorINS_20SizeClassAllocator32INS_4AP32EEENS_32LargeMmapAllocatorPtrArrayStaticEE10ReallocateEPNS_30SizeClassAllocator32LocalCacheIS3_EEPvmm>
  6c54d3:	48 85 c0             	test   %rax,%rax
  6c54d6:	74 42                	je     6c551a <_ZN11__sanitizer15InternalReallocEPvmPNS_30SizeClassAllocator32LocalCacheINS_20SizeClassAllocator32INS_4AP32EEEEE+0x7a>
  6c54d8:	5b                   	pop    %rbx
  6c54d9:	41 5e                	pop    %r14
  6c54db:	41 5f                	pop    %r15
  6c54dd:	c3                   	retq   
  6c54de:	b0 01                	mov    $0x1,%al
  6c54e0:	86 05 5c 91 0c 00    	xchg   %al,0xc915c(%rip)        # 78e642 <_ZN11__sanitizerL27internal_allocator_cache_muE>
  6c54e6:	84 c0                	test   %al,%al
  6c54e8:	75 38                	jne    6c5522 <_ZN11__sanitizer15InternalReallocEPvmPNS_30SizeClassAllocator32LocalCacheINS_20SizeClassAllocator32INS_4AP32EEEEE+0x82>
  6c54ea:	e8 f1 fd ff ff       	callq  6c52e0 <_ZN11__sanitizer18internal_allocatorEv>
  6c54ef:	48 8d 3d 0a 81 04 00 	lea    0x4810a(%rip),%rdi        # 70d600 <_ZN11__sanitizerL26internal_alloc_placeholderE>
  6c54f6:	48 8d 35 5b 91 0c 00 	lea    0xc915b(%rip),%rsi        # 78e658 <_ZN11__sanitizerL24internal_allocator_cacheE>
  6c54fd:	41 b8 08 00 00 00    	mov    $0x8,%r8d
  6c5503:	4c 89 fa             	mov    %r15,%rdx
  6c5506:	4c 89 f1             	mov    %r14,%rcx
  6c5509:	e8 42 20 00 00       	callq  6c7550 <_ZN11__sanitizer17CombinedAllocatorINS_20SizeClassAllocator32INS_4AP32EEENS_32LargeMmapAllocatorPtrArrayStaticEE10ReallocateEPNS_30SizeClassAllocator32LocalCacheIS3_EEPvmm>
  6c550e:	c6 05 2d 91 0c 00 00 	movb   $0x0,0xc912d(%rip)        # 78e642 <_ZN11__sanitizerL27internal_allocator_cache_muE>
  6c5515:	48 85 c0             	test   %rax,%rax
  6c5518:	75 be                	jne    6c54d8 <_ZN11__sanitizer15InternalReallocEPvmPNS_30SizeClassAllocator32LocalCacheINS_20SizeClassAllocator32INS_4AP32EEEEE+0x38>
  6c551a:	4c 89 f7             	mov    %r14,%rdi
  6c551d:	e8 4e ff ff ff       	callq  6c5470 <_ZN11__sanitizerL34ReportInternalAllocatorOutOfMemoryEm>
  6c5522:	48 8d 3d 19 91 0c 00 	lea    0xc9119(%rip),%rdi        # 78e642 <_ZN11__sanitizerL27internal_allocator_cache_muE>
  6c5529:	e8 82 c7 00 00       	callq  6d1cb0 <_ZN11__sanitizer15StaticSpinMutex8LockSlowEv>
  6c552e:	eb ba                	jmp    6c54ea <_ZN11__sanitizer15InternalReallocEPvmPNS_30SizeClassAllocator32LocalCacheINS_20SizeClassAllocator32INS_4AP32EEEEE+0x4a>

00000000006c5530 <_ZN11__sanitizer20InternalReallocArrayEPvmmPNS_30SizeClassAllocator32LocalCacheINS_20SizeClassAllocator32INS_4AP32EEEEE>:
  6c5530:	41 57                	push   %r15
  6c5532:	41 56                	push   %r14
  6c5534:	53                   	push   %rbx
  6c5535:	48 89 cb             	mov    %rcx,%rbx
  6c5538:	49 89 d7             	mov    %rdx,%r15
  6c553b:	48 89 f1             	mov    %rsi,%rcx
  6c553e:	48 89 f0             	mov    %rsi,%rax
  6c5541:	48 f7 e2             	mul    %rdx
  6c5544:	70 7b                	jo     6c55c1 <_ZN11__sanitizer20InternalReallocArrayEPvmmPNS_30SizeClassAllocator32LocalCacheINS_20SizeClassAllocator32INS_4AP32EEEEE+0x91>
  6c5546:	49 89 fe             	mov    %rdi,%r14
  6c5549:	4c 0f af f9          	imul   %rcx,%r15
  6c554d:	48 85 db             	test   %rbx,%rbx
  6c5550:	74 2b                	je     6c557d <_ZN11__sanitizer20InternalReallocArrayEPvmmPNS_30SizeClassAllocator32LocalCacheINS_20SizeClassAllocator32INS_4AP32EEEEE+0x4d>
  6c5552:	e8 89 fd ff ff       	callq  6c52e0 <_ZN11__sanitizer18internal_allocatorEv>
  6c5557:	48 8d 3d a2 80 04 00 	lea    0x480a2(%rip),%rdi        # 70d600 <_ZN11__sanitizerL26internal_alloc_placeholderE>
  6c555e:	41 b8 08 00 00 00    	mov    $0x8,%r8d
  6c5564:	48 89 de             	mov    %rbx,%rsi
  6c5567:	4c 89 f2             	mov    %r14,%rdx
  6c556a:	4c 89 f9             	mov    %r15,%rcx
  6c556d:	e8 de 1f 00 00       	callq  6c7550 <_ZN11__sanitizer17CombinedAllocatorINS_20SizeClassAllocator32INS_4AP32EEENS_32LargeMmapAllocatorPtrArrayStaticEE10ReallocateEPNS_30SizeClassAllocator32LocalCacheIS3_EEPvmm>
  6c5572:	48 85 c0             	test   %rax,%rax
  6c5575:	74 42                	je     6c55b9 <_ZN11__sanitizer20InternalReallocArrayEPvmmPNS_30SizeClassAllocator32LocalCacheINS_20SizeClassAllocator32INS_4AP32EEEEE+0x89>
  6c5577:	5b                   	pop    %rbx
  6c5578:	41 5e                	pop    %r14
  6c557a:	41 5f                	pop    %r15
  6c557c:	c3                   	retq   
  6c557d:	b0 01                	mov    $0x1,%al
  6c557f:	86 05 bd 90 0c 00    	xchg   %al,0xc90bd(%rip)        # 78e642 <_ZN11__sanitizerL27internal_allocator_cache_muE>
  6c5585:	84 c0                	test   %al,%al
  6c5587:	75 5b                	jne    6c55e4 <_ZN11__sanitizer20InternalReallocArrayEPvmmPNS_30SizeClassAllocator32LocalCacheINS_20SizeClassAllocator32INS_4AP32EEEEE+0xb4>
  6c5589:	e8 52 fd ff ff       	callq  6c52e0 <_ZN11__sanitizer18internal_allocatorEv>
  6c558e:	48 8d 3d 6b 80 04 00 	lea    0x4806b(%rip),%rdi        # 70d600 <_ZN11__sanitizerL26internal_alloc_placeholderE>
  6c5595:	48 8d 35 bc 90 0c 00 	lea    0xc90bc(%rip),%rsi        # 78e658 <_ZN11__sanitizerL24internal_allocator_cacheE>
  6c559c:	41 b8 08 00 00 00    	mov    $0x8,%r8d
  6c55a2:	4c 89 f2             	mov    %r14,%rdx
  6c55a5:	4c 89 f9             	mov    %r15,%rcx
  6c55a8:	e8 a3 1f 00 00       	callq  6c7550 <_ZN11__sanitizer17CombinedAllocatorINS_20SizeClassAllocator32INS_4AP32EEENS_32LargeMmapAllocatorPtrArrayStaticEE10ReallocateEPNS_30SizeClassAllocator32LocalCacheIS3_EEPvmm>
  6c55ad:	c6 05 8e 90 0c 00 00 	movb   $0x0,0xc908e(%rip)        # 78e642 <_ZN11__sanitizerL27internal_allocator_cache_muE>
  6c55b4:	48 85 c0             	test   %rax,%rax
  6c55b7:	75 be                	jne    6c5577 <_ZN11__sanitizer20InternalReallocArrayEPvmmPNS_30SizeClassAllocator32LocalCacheINS_20SizeClassAllocator32INS_4AP32EEEEE+0x47>
  6c55b9:	4c 89 ff             	mov    %r15,%rdi
  6c55bc:	e8 af fe ff ff       	callq  6c5470 <_ZN11__sanitizerL34ReportInternalAllocatorOutOfMemoryEm>
  6c55c1:	48 8d 05 00 7a 03 00 	lea    0x37a00(%rip),%rax        # 6fcfc8 <_ZN11__sanitizer17SanitizerToolNameE>
  6c55c8:	48 8b 30             	mov    (%rax),%rsi
  6c55cb:	48 8d 3d f8 0a b4 ff 	lea    -0x4bf508(%rip),%rdi        # 2060ca <_IO_stdin_used+0x32da>
  6c55d2:	48 89 ca             	mov    %rcx,%rdx
  6c55d5:	4c 89 f9             	mov    %r15,%rcx
  6c55d8:	31 c0                	xor    %eax,%eax
  6c55da:	e8 61 e1 00 00       	callq  6d3740 <_ZN11__sanitizer6ReportEPKcz>
  6c55df:	e8 ac 3f 01 00       	callq  6d9590 <_ZN11__sanitizer3DieEv>
  6c55e4:	48 8d 3d 57 90 0c 00 	lea    0xc9057(%rip),%rdi        # 78e642 <_ZN11__sanitizerL27internal_allocator_cache_muE>
  6c55eb:	e8 c0 c6 00 00       	callq  6d1cb0 <_ZN11__sanitizer15StaticSpinMutex8LockSlowEv>
  6c55f0:	eb 97                	jmp    6c5589 <_ZN11__sanitizer20InternalReallocArrayEPvmmPNS_30SizeClassAllocator32LocalCacheINS_20SizeClassAllocator32INS_4AP32EEEEE+0x59>
  6c55f2:	cc                   	int3   
  6c55f3:	cc                   	int3   
  6c55f4:	cc                   	int3   
  6c55f5:	cc                   	int3   
  6c55f6:	cc                   	int3   
  6c55f7:	cc                   	int3   
  6c55f8:	cc                   	int3   
  6c55f9:	cc                   	int3   
  6c55fa:	cc                   	int3   
  6c55fb:	cc                   	int3   
  6c55fc:	cc                   	int3   
  6c55fd:	cc                   	int3   
  6c55fe:	cc                   	int3   
  6c55ff:	cc                   	int3   

00000000006c5600 <_ZN11__sanitizer14InternalCallocEmmPNS_30SizeClassAllocator32LocalCacheINS_20SizeClassAllocator32INS_4AP32EEEEE>:
  6c5600:	41 57                	push   %r15
  6c5602:	41 56                	push   %r14
  6c5604:	53                   	push   %rbx
  6c5605:	49 89 d6             	mov    %rdx,%r14
  6c5608:	49 89 f7             	mov    %rsi,%r15
  6c560b:	48 89 f9             	mov    %rdi,%rcx
  6c560e:	48 89 f8             	mov    %rdi,%rax
  6c5611:	48 f7 e6             	mul    %rsi
  6c5614:	0f 80 86 00 00 00    	jo     6c56a0 <_ZN11__sanitizer14InternalCallocEmmPNS_30SizeClassAllocator32LocalCacheINS_20SizeClassAllocator32INS_4AP32EEEEE+0xa0>
  6c561a:	4c 0f af f9          	imul   %rcx,%r15
  6c561e:	4d 85 f6             	test   %r14,%r14
  6c5621:	74 3a                	je     6c565d <_ZN11__sanitizer14InternalCallocEmmPNS_30SizeClassAllocator32LocalCacheINS_20SizeClassAllocator32INS_4AP32EEEEE+0x5d>
  6c5623:	e8 b8 fc ff ff       	callq  6c52e0 <_ZN11__sanitizer18internal_allocatorEv>
  6c5628:	48 8d 3d d1 7f 04 00 	lea    0x47fd1(%rip),%rdi        # 70d600 <_ZN11__sanitizerL26internal_alloc_placeholderE>
  6c562f:	b9 08 00 00 00       	mov    $0x8,%ecx
  6c5634:	4c 89 f6             	mov    %r14,%rsi
  6c5637:	4c 89 fa             	mov    %r15,%rdx
  6c563a:	e8 b1 03 00 00       	callq  6c59f0 <_ZN11__sanitizer17CombinedAllocatorINS_20SizeClassAllocator32INS_4AP32EEENS_32LargeMmapAllocatorPtrArrayStaticEE8AllocateEPNS_30SizeClassAllocator32LocalCacheIS3_EEmm>
  6c563f:	48 89 c3             	mov    %rax,%rbx
  6c5642:	48 85 db             	test   %rbx,%rbx
  6c5645:	74 51                	je     6c5698 <_ZN11__sanitizer14InternalCallocEmmPNS_30SizeClassAllocator32LocalCacheINS_20SizeClassAllocator32INS_4AP32EEEEE+0x98>
  6c5647:	48 89 df             	mov    %rbx,%rdi
  6c564a:	31 f6                	xor    %esi,%esi
  6c564c:	4c 89 fa             	mov    %r15,%rdx
  6c564f:	e8 5c 89 00 00       	callq  6cdfb0 <_ZN11__sanitizer15internal_memsetEPvim>
  6c5654:	48 89 d8             	mov    %rbx,%rax
  6c5657:	5b                   	pop    %rbx
  6c5658:	41 5e                	pop    %r14
  6c565a:	41 5f                	pop    %r15
  6c565c:	c3                   	retq   
  6c565d:	b0 01                	mov    $0x1,%al
  6c565f:	86 05 dd 8f 0c 00    	xchg   %al,0xc8fdd(%rip)        # 78e642 <_ZN11__sanitizerL27internal_allocator_cache_muE>
  6c5665:	84 c0                	test   %al,%al
  6c5667:	75 5a                	jne    6c56c3 <_ZN11__sanitizer14InternalCallocEmmPNS_30SizeClassAllocator32LocalCacheINS_20SizeClassAllocator32INS_4AP32EEEEE+0xc3>
  6c5669:	e8 72 fc ff ff       	callq  6c52e0 <_ZN11__sanitizer18internal_allocatorEv>
  6c566e:	48 8d 3d 8b 7f 04 00 	lea    0x47f8b(%rip),%rdi        # 70d600 <_ZN11__sanitizerL26internal_alloc_placeholderE>
  6c5675:	48 8d 35 dc 8f 0c 00 	lea    0xc8fdc(%rip),%rsi        # 78e658 <_ZN11__sanitizerL24internal_allocator_cacheE>
  6c567c:	b9 08 00 00 00       	mov    $0x8,%ecx
  6c5681:	4c 89 fa             	mov    %r15,%rdx
  6c5684:	e8 67 03 00 00       	callq  6c59f0 <_ZN11__sanitizer17CombinedAllocatorINS_20SizeClassAllocator32INS_4AP32EEENS_32LargeMmapAllocatorPtrArrayStaticEE8AllocateEPNS_30SizeClassAllocator32LocalCacheIS3_EEmm>
  6c5689:	48 89 c3             	mov    %rax,%rbx
  6c568c:	c6 05 af 8f 0c 00 00 	movb   $0x0,0xc8faf(%rip)        # 78e642 <_ZN11__sanitizerL27internal_allocator_cache_muE>
  6c5693:	48 85 db             	test   %rbx,%rbx
  6c5696:	75 af                	jne    6c5647 <_ZN11__sanitizer14InternalCallocEmmPNS_30SizeClassAllocator32LocalCacheINS_20SizeClassAllocator32INS_4AP32EEEEE+0x47>
  6c5698:	4c 89 ff             	mov    %r15,%rdi
  6c569b:	e8 d0 fd ff ff       	callq  6c5470 <_ZN11__sanitizerL34ReportInternalAllocatorOutOfMemoryEm>
  6c56a0:	48 8d 05 21 79 03 00 	lea    0x37921(%rip),%rax        # 6fcfc8 <_ZN11__sanitizer17SanitizerToolNameE>
  6c56a7:	48 8b 30             	mov    (%rax),%rsi
  6c56aa:	48 8d 3d 17 43 b4 ff 	lea    -0x4bbce9(%rip),%rdi        # 2099c8 <_IO_stdin_used+0x6bd8>
  6c56b1:	48 89 ca             	mov    %rcx,%rdx
  6c56b4:	4c 89 f9             	mov    %r15,%rcx
  6c56b7:	31 c0                	xor    %eax,%eax
  6c56b9:	e8 82 e0 00 00       	callq  6d3740 <_ZN11__sanitizer6ReportEPKcz>
  6c56be:	e8 cd 3e 01 00       	callq  6d9590 <_ZN11__sanitizer3DieEv>
  6c56c3:	48 8d 3d 78 8f 0c 00 	lea    0xc8f78(%rip),%rdi        # 78e642 <_ZN11__sanitizerL27internal_allocator_cache_muE>
  6c56ca:	e8 e1 c5 00 00       	callq  6d1cb0 <_ZN11__sanitizer15StaticSpinMutex8LockSlowEv>
  6c56cf:	eb 98                	jmp    6c5669 <_ZN11__sanitizer14InternalCallocEmmPNS_30SizeClassAllocator32LocalCacheINS_20SizeClassAllocator32INS_4AP32EEEEE+0x69>
  6c56d1:	cc                   	int3   
  6c56d2:	cc                   	int3   
  6c56d3:	cc                   	int3   
  6c56d4:	cc                   	int3   
  6c56d5:	cc                   	int3   
  6c56d6:	cc                   	int3   
  6c56d7:	cc                   	int3   
  6c56d8:	cc                   	int3   
  6c56d9:	cc                   	int3   
  6c56da:	cc                   	int3   
  6c56db:	cc                   	int3   
  6c56dc:	cc                   	int3   
  6c56dd:	cc                   	int3   
  6c56de:	cc                   	int3   
  6c56df:	cc                   	int3   

00000000006c56e0 <_ZN11__sanitizer12InternalFreeEPvPNS_30SizeClassAllocator32LocalCacheINS_20SizeClassAllocator32INS_4AP32EEEEE>:
  6c56e0:	41 56                	push   %r14
  6c56e2:	53                   	push   %rbx
  6c56e3:	50                   	push   %rax
  6c56e4:	49 89 fe             	mov    %rdi,%r14
  6c56e7:	48 85 f6             	test   %rsi,%rsi
  6c56ea:	74 21                	je     6c570d <_ZN11__sanitizer12InternalFreeEPvPNS_30SizeClassAllocator32LocalCacheINS_20SizeClassAllocator32INS_4AP32EEEEE+0x2d>
  6c56ec:	48 89 f3             	mov    %rsi,%rbx
  6c56ef:	e8 ec fb ff ff       	callq  6c52e0 <_ZN11__sanitizer18internal_allocatorEv>
  6c56f4:	48 8d 3d 05 7f 04 00 	lea    0x47f05(%rip),%rdi        # 70d600 <_ZN11__sanitizerL26internal_alloc_placeholderE>
  6c56fb:	48 89 de             	mov    %rbx,%rsi
  6c56fe:	4c 89 f2             	mov    %r14,%rdx
  6c5701:	48 83 c4 08          	add    $0x8,%rsp
  6c5705:	5b                   	pop    %rbx
  6c5706:	41 5e                	pop    %r14
  6c5708:	e9 93 1f 00 00       	jmpq   6c76a0 <_ZN11__sanitizer17CombinedAllocatorINS_20SizeClassAllocator32INS_4AP32EEENS_32LargeMmapAllocatorPtrArrayStaticEE10DeallocateEPNS_30SizeClassAllocator32LocalCacheIS3_EEPv>
  6c570d:	b0 01                	mov    $0x1,%al
  6c570f:	86 05 2d 8f 0c 00    	xchg   %al,0xc8f2d(%rip)        # 78e642 <_ZN11__sanitizerL27internal_allocator_cache_muE>
  6c5715:	84 c0                	test   %al,%al
  6c5717:	75 2a                	jne    6c5743 <_ZN11__sanitizer12InternalFreeEPvPNS_30SizeClassAllocator32LocalCacheINS_20SizeClassAllocator32INS_4AP32EEEEE+0x63>
  6c5719:	e8 c2 fb ff ff       	callq  6c52e0 <_ZN11__sanitizer18internal_allocatorEv>
  6c571e:	48 8d 3d db 7e 04 00 	lea    0x47edb(%rip),%rdi        # 70d600 <_ZN11__sanitizerL26internal_alloc_placeholderE>
  6c5725:	48 8d 35 2c 8f 0c 00 	lea    0xc8f2c(%rip),%rsi        # 78e658 <_ZN11__sanitizerL24internal_allocator_cacheE>
  6c572c:	4c 89 f2             	mov    %r14,%rdx
  6c572f:	e8 6c 1f 00 00       	callq  6c76a0 <_ZN11__sanitizer17CombinedAllocatorINS_20SizeClassAllocator32INS_4AP32EEENS_32LargeMmapAllocatorPtrArrayStaticEE10DeallocateEPNS_30SizeClassAllocator32LocalCacheIS3_EEPv>
  6c5734:	c6 05 07 8f 0c 00 00 	movb   $0x0,0xc8f07(%rip)        # 78e642 <_ZN11__sanitizerL27internal_allocator_cache_muE>
  6c573b:	48 83 c4 08          	add    $0x8,%rsp
  6c573f:	5b                   	pop    %rbx
  6c5740:	41 5e                	pop    %r14
  6c5742:	c3                   	retq   
  6c5743:	48 8d 3d f8 8e 0c 00 	lea    0xc8ef8(%rip),%rdi        # 78e642 <_ZN11__sanitizerL27internal_allocator_cache_muE>
  6c574a:	e8 61 c5 00 00       	callq  6d1cb0 <_ZN11__sanitizer15StaticSpinMutex8LockSlowEv>
  6c574f:	eb c8                	jmp    6c5719 <_ZN11__sanitizer12InternalFreeEPvPNS_30SizeClassAllocator32LocalCacheINS_20SizeClassAllocator32INS_4AP32EEEEE+0x39>
  6c5751:	cc                   	int3   
  6c5752:	cc                   	int3   
  6c5753:	cc                   	int3   
  6c5754:	cc                   	int3   
  6c5755:	cc                   	int3   
  6c5756:	cc                   	int3   
  6c5757:	cc                   	int3   
  6c5758:	cc                   	int3   
  6c5759:	cc                   	int3   
  6c575a:	cc                   	int3   
  6c575b:	cc                   	int3   
  6c575c:	cc                   	int3   
  6c575d:	cc                   	int3   
  6c575e:	cc                   	int3   
  6c575f:	cc                   	int3   

00000000006c5760 <_ZN11__sanitizer21InternalAllocatorLockEv>:
  6c5760:	41 56                	push   %r14
  6c5762:	53                   	push   %rbx
  6c5763:	50                   	push   %rax
  6c5764:	b0 01                	mov    $0x1,%al
  6c5766:	86 05 d6 8e 0c 00    	xchg   %al,0xc8ed6(%rip)        # 78e642 <_ZN11__sanitizerL27internal_allocator_cache_muE>
  6c576c:	84 c0                	test   %al,%al
  6c576e:	75 5e                	jne    6c57ce <_ZN11__sanitizer21InternalAllocatorLockEv+0x6e>
  6c5770:	e8 6b fb ff ff       	callq  6c52e0 <_ZN11__sanitizer18internal_allocatorEv>
  6c5775:	31 db                	xor    %ebx,%ebx
  6c5777:	4c 8d 35 82 7e 04 00 	lea    0x47e82(%rip),%r14        # 70d600 <_ZN11__sanitizerL26internal_alloc_placeholderE>
  6c577e:	66 90                	xchg   %ax,%ax
  6c5780:	b0 01                	mov    $0x1,%al
  6c5782:	42 86 84 33 40 00 04 	xchg   %al,0x40040(%rbx,%r14,1)
  6c5789:	00 
  6c578a:	84 c0                	test   %al,%al
  6c578c:	75 0f                	jne    6c579d <_ZN11__sanitizer21InternalAllocatorLockEv+0x3d>
  6c578e:	48 83 c3 40          	add    $0x40,%rbx
  6c5792:	48 81 fb 80 0d 00 00 	cmp    $0xd80,%rbx
  6c5799:	75 e5                	jne    6c5780 <_ZN11__sanitizer21InternalAllocatorLockEv+0x20>
  6c579b:	eb 1d                	jmp    6c57ba <_ZN11__sanitizer21InternalAllocatorLockEv+0x5a>
  6c579d:	4a 8d 3c 33          	lea    (%rbx,%r14,1),%rdi
  6c57a1:	48 81 c7 40 00 04 00 	add    $0x40040,%rdi
  6c57a8:	e8 03 c5 00 00       	callq  6d1cb0 <_ZN11__sanitizer15StaticSpinMutex8LockSlowEv>
  6c57ad:	48 83 c3 40          	add    $0x40,%rbx
  6c57b1:	48 81 fb 80 0d 00 00 	cmp    $0xd80,%rbx
  6c57b8:	75 c6                	jne    6c5780 <_ZN11__sanitizer21InternalAllocatorLockEv+0x20>
  6c57ba:	b0 01                	mov    $0x1,%al
  6c57bc:	86 05 3e 8e 0c 00    	xchg   %al,0xc8e3e(%rip)        # 78e600 <_ZN11__sanitizerL26internal_alloc_placeholderE+0x81000>
  6c57c2:	84 c0                	test   %al,%al
  6c57c4:	75 16                	jne    6c57dc <_ZN11__sanitizer21InternalAllocatorLockEv+0x7c>
  6c57c6:	48 83 c4 08          	add    $0x8,%rsp
  6c57ca:	5b                   	pop    %rbx
  6c57cb:	41 5e                	pop    %r14
  6c57cd:	c3                   	retq   
  6c57ce:	48 8d 3d 6d 8e 0c 00 	lea    0xc8e6d(%rip),%rdi        # 78e642 <_ZN11__sanitizerL27internal_allocator_cache_muE>
  6c57d5:	e8 d6 c4 00 00       	callq  6d1cb0 <_ZN11__sanitizer15StaticSpinMutex8LockSlowEv>
  6c57da:	eb 94                	jmp    6c5770 <_ZN11__sanitizer21InternalAllocatorLockEv+0x10>
  6c57dc:	48 8d 3d 1d 8e 0c 00 	lea    0xc8e1d(%rip),%rdi        # 78e600 <_ZN11__sanitizerL26internal_alloc_placeholderE+0x81000>
  6c57e3:	48 83 c4 08          	add    $0x8,%rsp
  6c57e7:	5b                   	pop    %rbx
  6c57e8:	41 5e                	pop    %r14
  6c57ea:	e9 c1 c4 00 00       	jmpq   6d1cb0 <_ZN11__sanitizer15StaticSpinMutex8LockSlowEv>
  6c57ef:	cc                   	int3   

00000000006c57f0 <_ZN11__sanitizer23InternalAllocatorUnlockEv>:
  6c57f0:	50                   	push   %rax
  6c57f1:	e8 ea fa ff ff       	callq  6c52e0 <_ZN11__sanitizer18internal_allocatorEv>
  6c57f6:	c6 05 03 8e 0c 00 00 	movb   $0x0,0xc8e03(%rip)        # 78e600 <_ZN11__sanitizerL26internal_alloc_placeholderE+0x81000>
  6c57fd:	31 c0                	xor    %eax,%eax
  6c57ff:	48 8d 0d fa 7d 04 00 	lea    0x47dfa(%rip),%rcx        # 70d600 <_ZN11__sanitizerL26internal_alloc_placeholderE>
  6c5806:	66 2e 0f 1f 84 00 00 	nopw   %cs:0x0(%rax,%rax,1)
  6c580d:	00 00 00 
  6c5810:	c6 84 08 80 0d 04 00 	movb   $0x0,0x40d80(%rax,%rcx,1)
  6c5817:	00 
  6c5818:	48 83 c0 c0          	add    $0xffffffffffffffc0,%rax
  6c581c:	48 3d 80 f2 ff ff    	cmp    $0xfffffffffffff280,%rax
  6c5822:	75 ec                	jne    6c5810 <_ZN11__sanitizer23InternalAllocatorUnlockEv+0x20>
  6c5824:	c6 05 17 8e 0c 00 00 	movb   $0x0,0xc8e17(%rip)        # 78e642 <_ZN11__sanitizerL27internal_allocator_cache_muE>
  6c582b:	58                   	pop    %rax
  6c582c:	c3                   	retq   
  6c582d:	cc                   	int3   
  6c582e:	cc                   	int3   
  6c582f:	cc                   	int3   

00000000006c5830 <_ZN11__sanitizer17LowLevelAllocator8AllocateEm>:
  6c5830:	41 57                	push   %r15
  6c5832:	41 56                	push   %r14
  6c5834:	41 54                	push   %r12
  6c5836:	53                   	push   %rbx
  6c5837:	50                   	push   %rax
  6c5838:	48 8b 1d 81 77 03 00 	mov    0x37781(%rip),%rbx        # 6fcfc0 <_ZN11__sanitizerL29low_level_alloc_min_alignmentE>
  6c583f:	48 8d 43 ff          	lea    -0x1(%rbx),%rax
  6c5843:	48 85 c3             	test   %rax,%rbx
  6c5846:	0f 85 aa 00 00 00    	jne    6c58f6 <_ZN11__sanitizer17LowLevelAllocator8AllocateEm+0xc6>
  6c584c:	49 89 fe             	mov    %rdi,%r14
  6c584f:	48 8d 04 1e          	lea    (%rsi,%rbx,1),%rax
  6c5853:	48 83 c0 ff          	add    $0xffffffffffffffff,%rax
  6c5857:	48 f7 db             	neg    %rbx
  6c585a:	48 21 c3             	and    %rax,%rbx
  6c585d:	48 8b 0f             	mov    (%rdi),%rcx
  6c5860:	48 8b 47 08          	mov    0x8(%rdi),%rax
  6c5864:	48 89 ca             	mov    %rcx,%rdx
  6c5867:	48 29 c2             	sub    %rax,%rdx
  6c586a:	48 39 da             	cmp    %rbx,%rdx
  6c586d:	7d 6c                	jge    6c58db <_ZN11__sanitizer17LowLevelAllocator8AllocateEm+0xab>
  6c586f:	4c 8d 25 0a 66 0d 00 	lea    0xd660a(%rip),%r12        # 79be80 <_ZN11__sanitizer14PageSizeCachedE>
  6c5876:	4d 8b 3c 24          	mov    (%r12),%r15
  6c587a:	4d 85 ff             	test   %r15,%r15
  6c587d:	75 0c                	jne    6c588b <_ZN11__sanitizer17LowLevelAllocator8AllocateEm+0x5b>
  6c587f:	e8 6c bc 00 00       	callq  6d14f0 <_ZN11__sanitizer11GetPageSizeEv>
  6c5884:	49 89 c7             	mov    %rax,%r15
  6c5887:	49 89 04 24          	mov    %rax,(%r12)
  6c588b:	49 8d 47 ff          	lea    -0x1(%r15),%rax
  6c588f:	49 85 c7             	test   %rax,%r15
  6c5892:	75 62                	jne    6c58f6 <_ZN11__sanitizer17LowLevelAllocator8AllocateEm+0xc6>
  6c5894:	4a 8d 04 3b          	lea    (%rbx,%r15,1),%rax
  6c5898:	48 83 c0 ff          	add    $0xffffffffffffffff,%rax
  6c589c:	49 f7 df             	neg    %r15
  6c589f:	49 21 c7             	and    %rax,%r15
  6c58a2:	48 8d 35 d9 74 b4 ff 	lea    -0x4b8b27(%rip),%rsi        # 20cd82 <_IO_stdin_used+0x9f92>
  6c58a9:	4c 89 ff             	mov    %r15,%rdi
  6c58ac:	31 d2                	xor    %edx,%edx
  6c58ae:	e8 0d c5 00 00       	callq  6d1dc0 <_ZN11__sanitizer9MmapOrDieEmPKcb>
  6c58b3:	49 89 46 08          	mov    %rax,0x8(%r14)
  6c58b7:	48 89 c1             	mov    %rax,%rcx
  6c58ba:	4c 01 f9             	add    %r15,%rcx
  6c58bd:	49 89 0e             	mov    %rcx,(%r14)
  6c58c0:	48 8b 15 81 8d 0c 00 	mov    0xc8d81(%rip),%rdx        # 78e648 <_ZN11__sanitizerL24low_level_alloc_callbackE>
  6c58c7:	48 85 d2             	test   %rdx,%rdx
  6c58ca:	74 0f                	je     6c58db <_ZN11__sanitizer17LowLevelAllocator8AllocateEm+0xab>
  6c58cc:	48 89 c7             	mov    %rax,%rdi
  6c58cf:	4c 89 fe             	mov    %r15,%rsi
  6c58d2:	ff d2                	callq  *%rdx
  6c58d4:	49 8b 0e             	mov    (%r14),%rcx
  6c58d7:	49 8b 46 08          	mov    0x8(%r14),%rax
  6c58db:	48 29 c1             	sub    %rax,%rcx
  6c58de:	48 39 d9             	cmp    %rbx,%rcx
  6c58e1:	7c 24                	jl     6c5907 <_ZN11__sanitizer17LowLevelAllocator8AllocateEm+0xd7>
  6c58e3:	48 01 c3             	add    %rax,%rbx
  6c58e6:	49 89 5e 08          	mov    %rbx,0x8(%r14)
  6c58ea:	48 83 c4 08          	add    $0x8,%rsp
  6c58ee:	5b                   	pop    %rbx
  6c58ef:	41 5c                	pop    %r12
  6c58f1:	41 5e                	pop    %r14
  6c58f3:	41 5f                	pop    %r15
  6c58f5:	c3                   	retq   
  6c58f6:	48 8d 3d 39 59 b4 ff 	lea    -0x4ba6c7(%rip),%rdi        # 20b236 <_IO_stdin_used+0x8446>
  6c58fd:	e8 ae 50 00 00       	callq  6ca9b0 <_ZN11__sanitizer8RawWriteEPKc>
  6c5902:	e8 89 3c 01 00       	callq  6d9590 <_ZN11__sanitizer3DieEv>
  6c5907:	48 8d 3d 77 ef b3 ff 	lea    -0x4c1089(%rip),%rdi        # 204885 <_IO_stdin_used+0x1a95>
  6c590e:	48 8d 15 48 dd b3 ff 	lea    -0x4c22b8(%rip),%rdx        # 20365d <_IO_stdin_used+0x86d>
  6c5915:	be 9d 00 00 00       	mov    $0x9d,%esi
  6c591a:	31 c9                	xor    %ecx,%ecx
  6c591c:	45 31 c0             	xor    %r8d,%r8d
  6c591f:	e8 4c 3d 01 00       	callq  6d9670 <_ZN11__sanitizer11CheckFailedEPKciS1_yy>
  6c5924:	cc                   	int3   
  6c5925:	cc                   	int3   
  6c5926:	cc                   	int3   
  6c5927:	cc                   	int3   
  6c5928:	cc                   	int3   
  6c5929:	cc                   	int3   
  6c592a:	cc                   	int3   
  6c592b:	cc                   	int3   
  6c592c:	cc                   	int3   
  6c592d:	cc                   	int3   
  6c592e:	cc                   	int3   
  6c592f:	cc                   	int3   

00000000006c5930 <_ZN11__sanitizer31SetLowLevelAllocateMinAlignmentEm>:
  6c5930:	50                   	push   %rax
  6c5931:	48 8d 47 ff          	lea    -0x1(%rdi),%rax
  6c5935:	48 85 c7             	test   %rax,%rdi
  6c5938:	75 17                	jne    6c5951 <_ZN11__sanitizer31SetLowLevelAllocateMinAlignmentEm+0x21>
  6c593a:	48 8b 05 7f 76 03 00 	mov    0x3767f(%rip),%rax        # 6fcfc0 <_ZN11__sanitizerL29low_level_alloc_min_alignmentE>
  6c5941:	48 39 f8             	cmp    %rdi,%rax
  6c5944:	48 0f 42 c7          	cmovb  %rdi,%rax
  6c5948:	48 89 05 71 76 03 00 	mov    %rax,0x37671(%rip)        # 6fcfc0 <_ZN11__sanitizerL29low_level_alloc_min_alignmentE>
  6c594f:	58                   	pop    %rax
  6c5950:	c3                   	retq   
  6c5951:	48 8d 3d 2d ef b3 ff 	lea    -0x4c10d3(%rip),%rdi        # 204885 <_IO_stdin_used+0x1a95>
  6c5958:	48 8d 15 a6 92 b4 ff 	lea    -0x4b6d5a(%rip),%rdx        # 20ec05 <_IO_stdin_used+0xbe15>
  6c595f:	be a4 00 00 00       	mov    $0xa4,%esi
  6c5964:	31 c9                	xor    %ecx,%ecx
  6c5966:	45 31 c0             	xor    %r8d,%r8d
  6c5969:	e8 02 3d 01 00       	callq  6d9670 <_ZN11__sanitizer11CheckFailedEPKciS1_yy>
  6c596e:	cc                   	int3   
  6c596f:	cc                   	int3   

00000000006c5970 <_ZN11__sanitizer27SetLowLevelAllocateCallbackEPFvmmE>:
  6c5970:	48 89 3d d1 8c 0c 00 	mov    %rdi,0xc8cd1(%rip)        # 78e648 <_ZN11__sanitizerL24low_level_alloc_callbackE>
  6c5977:	c3                   	retq   
  6c5978:	cc                   	int3   
  6c5979:	cc                   	int3   
  6c597a:	cc                   	int3   
  6c597b:	cc                   	int3   
  6c597c:	cc                   	int3   
  6c597d:	cc                   	int3   
  6c597e:	cc                   	int3   
  6c597f:	cc                   	int3   

00000000006c5980 <_ZN11__sanitizer22IsAllocatorOutOfMemoryEv>:
  6c5980:	80 3d c9 8c 0c 00 00 	cmpb   $0x0,0xc8cc9(%rip)        # 78e650 <_ZN11__sanitizerL23allocator_out_of_memoryE>
  6c5987:	0f 95 c0             	setne  %al
  6c598a:	c3                   	retq   
  6c598b:	cc                   	int3   
  6c598c:	cc                   	int3   
  6c598d:	cc                   	int3   
  6c598e:	cc                   	int3   
  6c598f:	cc                   	int3   

00000000006c5990 <_ZN11__sanitizer23SetAllocatorOutOfMemoryEv>:
  6c5990:	c6 05 b9 8c 0c 00 01 	movb   $0x1,0xc8cb9(%rip)        # 78e650 <_ZN11__sanitizerL23allocator_out_of_memoryE>
  6c5997:	c3                   	retq   
  6c5998:	cc                   	int3   
  6c5999:	cc                   	int3   
  6c599a:	cc                   	int3   
  6c599b:	cc                   	int3   
  6c599c:	cc                   	int3   
  6c599d:	cc                   	int3   
  6c599e:	cc                   	int3   
  6c599f:	cc                   	int3   

00000000006c59a0 <_ZN11__sanitizer22AllocatorMayReturnNullEv>:
  6c59a0:	80 3d aa 8c 0c 00 00 	cmpb   $0x0,0xc8caa(%rip)        # 78e651 <_ZN11__sanitizerL25allocator_may_return_nullE>
  6c59a7:	0f 95 c0             	setne  %al
  6c59aa:	c3                   	retq   
  6c59ab:	cc                   	int3   
  6c59ac:	cc                   	int3   
  6c59ad:	cc                   	int3   
  6c59ae:	cc                   	int3   
  6c59af:	cc                   	int3   

00000000006c59b0 <_ZN11__sanitizer25SetAllocatorMayReturnNullEb>:
  6c59b0:	40 88 3d 9a 8c 0c 00 	mov    %dil,0xc8c9a(%rip)        # 78e651 <_ZN11__sanitizerL25allocator_may_return_nullE>
  6c59b7:	c3                   	retq   
  6c59b8:	cc                   	int3   
  6c59b9:	cc                   	int3   
  6c59ba:	cc                   	int3   
  6c59bb:	cc                   	int3   
  6c59bc:	cc                   	int3   
  6c59bd:	cc                   	int3   
  6c59be:	cc                   	int3   
  6c59bf:	cc                   	int3   

00000000006c59c0 <_ZN11__sanitizer34PrintHintAllocatorCannotReturnNullEv>:
  6c59c0:	48 8d 3d 31 d4 b3 ff 	lea    -0x4c2bcf(%rip),%rdi        # 202df8 <_IO_stdin_used+0x8>
  6c59c7:	31 c0                	xor    %eax,%eax
  6c59c9:	e9 72 dd 00 00       	jmpq   6d3740 <_ZN11__sanitizer6ReportEPKcz>
  6c59ce:	cc                   	int3   
  6c59cf:	cc                   	int3   

00000000006c59d0 <_ZN11__sanitizer18IsRssLimitExceededEv>:
  6c59d0:	80 3d 7b 8c 0c 00 00 	cmpb   $0x0,0xc8c7b(%rip)        # 78e652 <_ZN11__sanitizerL18rss_limit_exceededE>
  6c59d7:	0f 95 c0             	setne  %al
  6c59da:	c3                   	retq   
  6c59db:	cc                   	int3   
  6c59dc:	cc                   	int3   
  6c59dd:	cc                   	int3   
  6c59de:	cc                   	int3   
  6c59df:	cc                   	int3   

00000000006c59e0 <_ZN11__sanitizer19SetRssLimitExceededEb>:
  6c59e0:	40 88 3d 6b 8c 0c 00 	mov    %dil,0xc8c6b(%rip)        # 78e652 <_ZN11__sanitizerL18rss_limit_exceededE>
  6c59e7:	c3                   	retq   
  6c59e8:	cc                   	int3   
  6c59e9:	cc                   	int3   
  6c59ea:	cc                   	int3   
  6c59eb:	cc                   	int3   
  6c59ec:	cc                   	int3   
  6c59ed:	cc                   	int3   
  6c59ee:	cc                   	int3   
  6c59ef:	cc                   	int3   

00000000006c59f0 <_ZN11__sanitizer17CombinedAllocatorINS_20SizeClassAllocator32INS_4AP32EEENS_32LargeMmapAllocatorPtrArrayStaticEE8AllocateEPNS_30SizeClassAllocator32LocalCacheIS3_EEmm>:
  6c59f0:	41 57                	push   %r15
  6c59f2:	41 56                	push   %r14
  6c59f4:	41 54                	push   %r12
  6c59f6:	53                   	push   %rbx
  6c59f7:	50                   	push   %rax
  6c59f8:	49 89 cf             	mov    %rcx,%r15
  6c59fb:	48 89 d0             	mov    %rdx,%rax
  6c59fe:	48 85 d2             	test   %rdx,%rdx
  6c5a01:	ba 01 00 00 00       	mov    $0x1,%edx
  6c5a06:	48 0f 45 d0          	cmovne %rax,%rdx
  6c5a0a:	48 89 d0             	mov    %rdx,%rax
  6c5a0d:	48 01 c8             	add    %rcx,%rax
  6c5a10:	73 22                	jae    6c5a34 <_ZN11__sanitizer17CombinedAllocatorINS_20SizeClassAllocator32INS_4AP32EEENS_32LargeMmapAllocatorPtrArrayStaticEE8AllocateEPNS_30SizeClassAllocator32LocalCacheIS3_EEmm+0x44>
  6c5a12:	48 8d 05 af 75 03 00 	lea    0x375af(%rip),%rax        # 6fcfc8 <_ZN11__sanitizer17SanitizerToolNameE>
  6c5a19:	48 8b 30             	mov    (%rax),%rsi
  6c5a1c:	48 8d 3d 0b 40 b4 ff 	lea    -0x4bbff5(%rip),%rdi        # 209a2e <_IO_stdin_used+0x6c3e>
  6c5a23:	31 db                	xor    %ebx,%ebx
  6c5a25:	4c 89 f9             	mov    %r15,%rcx
  6c5a28:	31 c0                	xor    %eax,%eax
  6c5a2a:	e8 11 dd 00 00       	callq  6d3740 <_ZN11__sanitizer6ReportEPKcz>
  6c5a2f:	e9 0a 01 00 00       	jmpq   6c5b3e <_ZN11__sanitizer17CombinedAllocatorINS_20SizeClassAllocator32INS_4AP32EEENS_32LargeMmapAllocatorPtrArrayStaticEE8AllocateEPNS_30SizeClassAllocator32LocalCacheIS3_EEmm+0x14e>
  6c5a34:	49 89 f6             	mov    %rsi,%r14
  6c5a37:	49 89 f8             	mov    %rdi,%r8
  6c5a3a:	48 89 d0             	mov    %rdx,%rax
  6c5a3d:	49 83 ff 09          	cmp    $0x9,%r15
  6c5a41:	72 1e                	jb     6c5a61 <_ZN11__sanitizer17CombinedAllocatorINS_20SizeClassAllocator32INS_4AP32EEENS_32LargeMmapAllocatorPtrArrayStaticEE8AllocateEPNS_30SizeClassAllocator32LocalCacheIS3_EEmm+0x71>
  6c5a43:	49 8d 47 ff          	lea    -0x1(%r15),%rax
  6c5a47:	49 85 c7             	test   %rax,%r15
  6c5a4a:	0f 85 fd 00 00 00    	jne    6c5b4d <_ZN11__sanitizer17CombinedAllocatorINS_20SizeClassAllocator32INS_4AP32EEENS_32LargeMmapAllocatorPtrArrayStaticEE8AllocateEPNS_30SizeClassAllocator32LocalCacheIS3_EEmm+0x15d>
  6c5a50:	49 8d 0c 17          	lea    (%r15,%rdx,1),%rcx
  6c5a54:	48 83 c1 ff          	add    $0xffffffffffffffff,%rcx
  6c5a58:	4c 89 f8             	mov    %r15,%rax
  6c5a5b:	48 f7 d8             	neg    %rax
  6c5a5e:	48 21 c8             	and    %rcx,%rax
  6c5a61:	49 81 ff 00 00 02 00 	cmp    $0x20000,%r15
  6c5a68:	77 1a                	ja     6c5a84 <_ZN11__sanitizer17CombinedAllocatorINS_20SizeClassAllocator32INS_4AP32EEENS_32LargeMmapAllocatorPtrArrayStaticEE8AllocateEPNS_30SizeClassAllocator32LocalCacheIS3_EEmm+0x94>
  6c5a6a:	48 3d 00 00 02 00    	cmp    $0x20000,%rax
  6c5a70:	77 12                	ja     6c5a84 <_ZN11__sanitizer17CombinedAllocatorINS_20SizeClassAllocator32INS_4AP32EEENS_32LargeMmapAllocatorPtrArrayStaticEE8AllocateEPNS_30SizeClassAllocator32LocalCacheIS3_EEmm+0x94>
  6c5a72:	48 3d 00 01 00 00    	cmp    $0x100,%rax
  6c5a78:	77 35                	ja     6c5aaf <_ZN11__sanitizer17CombinedAllocatorINS_20SizeClassAllocator32INS_4AP32EEENS_32LargeMmapAllocatorPtrArrayStaticEE8AllocateEPNS_30SizeClassAllocator32LocalCacheIS3_EEmm+0xbf>
  6c5a7a:	48 83 c0 0f          	add    $0xf,%rax
  6c5a7e:	48 c1 e8 04          	shr    $0x4,%rax
  6c5a82:	eb 64                	jmp    6c5ae8 <_ZN11__sanitizer17CombinedAllocatorINS_20SizeClassAllocator32INS_4AP32EEENS_32LargeMmapAllocatorPtrArrayStaticEE8AllocateEPNS_30SizeClassAllocator32LocalCacheIS3_EEmm+0xf8>
  6c5a84:	49 8d b8 c0 0d 04 00 	lea    0x40dc0(%r8),%rdi
  6c5a8b:	49 81 c0 08 10 08 00 	add    $0x81008,%r8
  6c5a92:	4c 89 c6             	mov    %r8,%rsi
  6c5a95:	4c 89 f9             	mov    %r15,%rcx
  6c5a98:	e8 53 01 00 00       	callq  6c5bf0 <_ZN11__sanitizer18LargeMmapAllocatorINS_20NoOpMapUnmapCallbackENS_32LargeMmapAllocatorPtrArrayStaticENS_21LocalAddressSpaceViewEE8AllocateEPNS_14AllocatorStatsEmm>
  6c5a9d:	48 89 c3             	mov    %rax,%rbx
  6c5aa0:	49 83 ff 09          	cmp    $0x9,%r15
  6c5aa4:	0f 83 8b 00 00 00    	jae    6c5b35 <_ZN11__sanitizer17CombinedAllocatorINS_20SizeClassAllocator32INS_4AP32EEENS_32LargeMmapAllocatorPtrArrayStaticEE8AllocateEPNS_30SizeClassAllocator32LocalCacheIS3_EEmm+0x145>
  6c5aaa:	e9 8f 00 00 00       	jmpq   6c5b3e <_ZN11__sanitizer17CombinedAllocatorINS_20SizeClassAllocator32INS_4AP32EEENS_32LargeMmapAllocatorPtrArrayStaticEE8AllocateEPNS_30SizeClassAllocator32LocalCacheIS3_EEmm+0x14e>
  6c5aaf:	48 0f bd d0          	bsr    %rax,%rdx
  6c5ab3:	48 83 f2 3f          	xor    $0x3f,%rdx
  6c5ab7:	b1 3d                	mov    $0x3d,%cl
  6c5ab9:	28 d1                	sub    %dl,%cl
  6c5abb:	48 89 c6             	mov    %rax,%rsi
  6c5abe:	48 d3 ee             	shr    %cl,%rsi
  6c5ac1:	83 e6 03             	and    $0x3,%esi
  6c5ac4:	bf ff ff ff ff       	mov    $0xffffffff,%edi
  6c5ac9:	d3 e7                	shl    %cl,%edi
  6c5acb:	f7 d7                	not    %edi
  6c5acd:	21 f8                	and    %edi,%eax
  6c5acf:	48 83 f2 3f          	xor    $0x3f,%rdx
  6c5ad3:	48 c1 e2 02          	shl    $0x2,%rdx
  6c5ad7:	48 09 f2             	or     %rsi,%rdx
  6c5ada:	83 f8 01             	cmp    $0x1,%eax
  6c5add:	48 83 da ff          	sbb    $0xffffffffffffffff,%rdx
  6c5ae1:	48 83 c2 f0          	add    $0xfffffffffffffff0,%rdx
  6c5ae5:	48 89 d0             	mov    %rdx,%rax
  6c5ae8:	48 85 c0             	test   %rax,%rax
  6c5aeb:	74 71                	je     6c5b5e <_ZN11__sanitizer17CombinedAllocatorINS_20SizeClassAllocator32INS_4AP32EEENS_32LargeMmapAllocatorPtrArrayStaticEE8AllocateEPNS_30SizeClassAllocator32LocalCacheIS3_EEmm+0x16e>
  6c5aed:	48 83 f8 36          	cmp    $0x36,%rax
  6c5af1:	0f 83 84 00 00 00    	jae    6c5b7b <_ZN11__sanitizer17CombinedAllocatorINS_20SizeClassAllocator32INS_4AP32EEENS_32LargeMmapAllocatorPtrArrayStaticEE8AllocateEPNS_30SizeClassAllocator32LocalCacheIS3_EEmm+0x18b>
  6c5af7:	49 89 c4             	mov    %rax,%r12
  6c5afa:	49 c1 e4 0a          	shl    $0xa,%r12
  6c5afe:	4b 8d 1c 26          	lea    (%r14,%r12,1),%rbx
  6c5b02:	4b 8b 0c 26          	mov    (%r14,%r12,1),%rcx
  6c5b06:	48 85 c9             	test   %rcx,%rcx
  6c5b09:	0f 84 ab 00 00 00    	je     6c5bba <_ZN11__sanitizer17CombinedAllocatorINS_20SizeClassAllocator32INS_4AP32EEENS_32LargeMmapAllocatorPtrArrayStaticEE8AllocateEPNS_30SizeClassAllocator32LocalCacheIS3_EEmm+0x1ca>
  6c5b0f:	48 8d 41 ff          	lea    -0x1(%rcx),%rax
  6c5b13:	48 89 03             	mov    %rax,(%rbx)
  6c5b16:	48 8b 44 cb 10       	mov    0x10(%rbx,%rcx,8),%rax
  6c5b1b:	48 8b 5c cb 18       	mov    0x18(%rbx,%rcx,8),%rbx
  6c5b20:	0f 18 00             	prefetchnta (%rax)
  6c5b23:	4b 8b 44 26 10       	mov    0x10(%r14,%r12,1),%rax
  6c5b28:	49 01 86 10 d8 00 00 	add    %rax,0xd810(%r14)
  6c5b2f:	49 83 ff 09          	cmp    $0x9,%r15
  6c5b33:	72 09                	jb     6c5b3e <_ZN11__sanitizer17CombinedAllocatorINS_20SizeClassAllocator32INS_4AP32EEENS_32LargeMmapAllocatorPtrArrayStaticEE8AllocateEPNS_30SizeClassAllocator32LocalCacheIS3_EEmm+0x14e>
  6c5b35:	49 83 c7 ff          	add    $0xffffffffffffffff,%r15
  6c5b39:	49 21 df             	and    %rbx,%r15
  6c5b3c:	75 5e                	jne    6c5b9c <_ZN11__sanitizer17CombinedAllocatorINS_20SizeClassAllocator32INS_4AP32EEENS_32LargeMmapAllocatorPtrArrayStaticEE8AllocateEPNS_30SizeClassAllocator32LocalCacheIS3_EEmm+0x1ac>
  6c5b3e:	48 89 d8             	mov    %rbx,%rax
  6c5b41:	48 83 c4 08          	add    $0x8,%rsp
  6c5b45:	5b                   	pop    %rbx
  6c5b46:	41 5c                	pop    %r12
  6c5b48:	41 5e                	pop    %r14
  6c5b4a:	41 5f                	pop    %r15
  6c5b4c:	c3                   	retq   
  6c5b4d:	48 8d 3d e2 56 b4 ff 	lea    -0x4ba91e(%rip),%rdi        # 20b236 <_IO_stdin_used+0x8446>
  6c5b54:	e8 57 4e 00 00       	callq  6ca9b0 <_ZN11__sanitizer8RawWriteEPKc>
  6c5b59:	e8 32 3a 01 00       	callq  6d9590 <_ZN11__sanitizer3DieEv>
  6c5b5e:	48 8d 3d fc 14 b4 ff 	lea    -0x4beb04(%rip),%rdi        # 207061 <_IO_stdin_used+0x4271>
  6c5b65:	48 8d 15 ca 05 b4 ff 	lea    -0x4bfa36(%rip),%rdx        # 206136 <_IO_stdin_used+0x3346>
  6c5b6c:	be a0 00 00 00       	mov    $0xa0,%esi
  6c5b71:	31 c9                	xor    %ecx,%ecx
  6c5b73:	45 31 c0             	xor    %r8d,%r8d
  6c5b76:	e8 f5 3a 01 00       	callq  6d9670 <_ZN11__sanitizer11CheckFailedEPKciS1_yy>
  6c5b7b:	48 8d 3d df 14 b4 ff 	lea    -0x4beb21(%rip),%rdi        # 207061 <_IO_stdin_used+0x4271>
  6c5b82:	48 8d 15 9f 90 b4 ff 	lea    -0x4b6f61(%rip),%rdx        # 20ec28 <_IO_stdin_used+0xbe38>
  6c5b89:	41 b8 36 00 00 00    	mov    $0x36,%r8d
  6c5b8f:	be a1 00 00 00       	mov    $0xa1,%esi
  6c5b94:	48 89 c1             	mov    %rax,%rcx
  6c5b97:	e8 d4 3a 01 00       	callq  6d9670 <_ZN11__sanitizer11CheckFailedEPKciS1_yy>
  6c5b9c:	48 8d 3d 92 ba b4 ff 	lea    -0x4b456e(%rip),%rdi        # 211635 <_IO_stdin_used+0xe845>
  6c5ba3:	48 8d 15 f6 88 b4 ff 	lea    -0x4b770a(%rip),%rdx        # 20e4a0 <_IO_stdin_used+0xb6b0>
  6c5baa:	be 49 00 00 00       	mov    $0x49,%esi
  6c5baf:	4c 89 f9             	mov    %r15,%rcx
  6c5bb2:	45 31 c0             	xor    %r8d,%r8d
  6c5bb5:	e8 b6 3a 01 00       	callq  6d9670 <_ZN11__sanitizer11CheckFailedEPKciS1_yy>
  6c5bba:	4c 89 f7             	mov    %r14,%rdi
  6c5bbd:	48 89 de             	mov    %rbx,%rsi
  6c5bc0:	4c 89 c2             	mov    %r8,%rdx
  6c5bc3:	48 89 c1             	mov    %rax,%rcx
  6c5bc6:	e8 d5 02 00 00       	callq  6c5ea0 <_ZN11__sanitizer30SizeClassAllocator32LocalCacheINS_20SizeClassAllocator32INS_4AP32EEEE6RefillEPNS4_8PerClassEPS3_m>
  6c5bcb:	84 c0                	test   %al,%al
  6c5bcd:	74 08                	je     6c5bd7 <_ZN11__sanitizer17CombinedAllocatorINS_20SizeClassAllocator32INS_4AP32EEENS_32LargeMmapAllocatorPtrArrayStaticEE8AllocateEPNS_30SizeClassAllocator32LocalCacheIS3_EEmm+0x1e7>
  6c5bcf:	48 8b 0b             	mov    (%rbx),%rcx
  6c5bd2:	e9 38 ff ff ff       	jmpq   6c5b0f <_ZN11__sanitizer17CombinedAllocatorINS_20SizeClassAllocator32INS_4AP32EEENS_32LargeMmapAllocatorPtrArrayStaticEE8AllocateEPNS_30SizeClassAllocator32LocalCacheIS3_EEmm+0x11f>
  6c5bd7:	31 db                	xor    %ebx,%ebx
  6c5bd9:	49 83 ff 09          	cmp    $0x9,%r15
  6c5bdd:	0f 83 52 ff ff ff    	jae    6c5b35 <_ZN11__sanitizer17CombinedAllocatorINS_20SizeClassAllocator32INS_4AP32EEENS_32LargeMmapAllocatorPtrArrayStaticEE8AllocateEPNS_30SizeClassAllocator32LocalCacheIS3_EEmm+0x145>
  6c5be3:	e9 56 ff ff ff       	jmpq   6c5b3e <_ZN11__sanitizer17CombinedAllocatorINS_20SizeClassAllocator32INS_4AP32EEENS_32LargeMmapAllocatorPtrArrayStaticEE8AllocateEPNS_30SizeClassAllocator32LocalCacheIS3_EEmm+0x14e>
  6c5be8:	cc                   	int3   
  6c5be9:	cc                   	int3   
  6c5bea:	cc                   	int3   
  6c5beb:	cc                   	int3   
  6c5bec:	cc                   	int3   
  6c5bed:	cc                   	int3   
  6c5bee:	cc                   	int3   
  6c5bef:	cc                   	int3   

00000000006c5bf0 <_ZN11__sanitizer18LargeMmapAllocatorINS_20NoOpMapUnmapCallbackENS_32LargeMmapAllocatorPtrArrayStaticENS_21LocalAddressSpaceViewEE8AllocateEPNS_14AllocatorStatsEmm>:
  6c5bf0:	55                   	push   %rbp
  6c5bf1:	41 57                	push   %r15
  6c5bf3:	41 56                	push   %r14
  6c5bf5:	41 55                	push   %r13
  6c5bf7:	41 54                	push   %r12
  6c5bf9:	53                   	push   %rbx
  6c5bfa:	50                   	push   %rax
  6c5bfb:	48 8d 69 ff          	lea    -0x1(%rcx),%rbp
  6c5bff:	48 85 e9             	test   %rbp,%rcx
  6c5c02:	0f 85 98 01 00 00    	jne    6c5da0 <_ZN11__sanitizer18LargeMmapAllocatorINS_20NoOpMapUnmapCallbackENS_32LargeMmapAllocatorPtrArrayStaticENS_21LocalAddressSpaceViewEE8AllocateEPNS_14AllocatorStatsEmm+0x1b0>
  6c5c08:	49 89 cc             	mov    %rcx,%r12
  6c5c0b:	49 89 fe             	mov    %rdi,%r14
  6c5c0e:	48 8b 07             	mov    (%rdi),%rax
  6c5c11:	48 8d 48 ff          	lea    -0x1(%rax),%rcx
  6c5c15:	48 85 c8             	test   %rcx,%rax
  6c5c18:	0f 85 9a 01 00 00    	jne    6c5db8 <_ZN11__sanitizer18LargeMmapAllocatorINS_20NoOpMapUnmapCallbackENS_32LargeMmapAllocatorPtrArrayStaticENS_21LocalAddressSpaceViewEE8AllocateEPNS_14AllocatorStatsEmm+0x1c8>
  6c5c1e:	49 89 d5             	mov    %rdx,%r13
  6c5c21:	48 8d 0c 02          	lea    (%rdx,%rax,1),%rcx
  6c5c25:	48 83 c1 ff          	add    $0xffffffffffffffff,%rcx
  6c5c29:	48 89 c2             	mov    %rax,%rdx
  6c5c2c:	48 f7 da             	neg    %rdx
  6c5c2f:	48 21 ca             	and    %rcx,%rdx
  6c5c32:	48 01 c2             	add    %rax,%rdx
  6c5c35:	31 db                	xor    %ebx,%ebx
  6c5c37:	4c 39 e0             	cmp    %r12,%rax
  6c5c3a:	49 0f 42 dc          	cmovb  %r12,%rbx
  6c5c3e:	48 01 d3             	add    %rdx,%rbx
  6c5c41:	4c 39 eb             	cmp    %r13,%rbx
  6c5c44:	73 26                	jae    6c5c6c <_ZN11__sanitizer18LargeMmapAllocatorINS_20NoOpMapUnmapCallbackENS_32LargeMmapAllocatorPtrArrayStaticENS_21LocalAddressSpaceViewEE8AllocateEPNS_14AllocatorStatsEmm+0x7c>
  6c5c46:	48 8d 05 7b 73 03 00 	lea    0x3737b(%rip),%rax        # 6fcfc8 <_ZN11__sanitizer17SanitizerToolNameE>
  6c5c4d:	48 8b 30             	mov    (%rax),%rsi
  6c5c50:	48 8d 3d ff 9c b4 ff 	lea    -0x4b6301(%rip),%rdi        # 20f956 <_IO_stdin_used+0xcb66>
  6c5c57:	45 31 f6             	xor    %r14d,%r14d
  6c5c5a:	48 89 da             	mov    %rbx,%rdx
  6c5c5d:	4c 89 e1             	mov    %r12,%rcx
  6c5c60:	31 c0                	xor    %eax,%eax
  6c5c62:	e8 d9 da 00 00       	callq  6d3740 <_ZN11__sanitizer6ReportEPKcz>
  6c5c67:	e9 22 01 00 00       	jmpq   6c5d8e <_ZN11__sanitizer18LargeMmapAllocatorINS_20NoOpMapUnmapCallbackENS_32LargeMmapAllocatorPtrArrayStaticENS_21LocalAddressSpaceViewEE8AllocateEPNS_14AllocatorStatsEmm+0x19e>
  6c5c6c:	49 89 f7             	mov    %rsi,%r15
  6c5c6f:	48 8b 35 42 73 03 00 	mov    0x37342(%rip),%rsi        # 6fcfb8 <_ZN11__sanitizer22SecondaryAllocatorNameE>
  6c5c76:	48 89 df             	mov    %rbx,%rdi
  6c5c79:	e8 02 c3 00 00       	callq  6d1f80 <_ZN11__sanitizer21MmapOrDieOnFatalErrorEmPKc>
  6c5c7e:	48 85 c0             	test   %rax,%rax
  6c5c81:	0f 84 04 01 00 00    	je     6c5d8b <_ZN11__sanitizer18LargeMmapAllocatorINS_20NoOpMapUnmapCallbackENS_32LargeMmapAllocatorPtrArrayStaticENS_21LocalAddressSpaceViewEE8AllocateEPNS_14AllocatorStatsEmm+0x19b>
  6c5c87:	49 8b 16             	mov    (%r14),%rdx
  6c5c8a:	48 8d 4a ff          	lea    -0x1(%rdx),%rcx
  6c5c8e:	48 85 c1             	test   %rax,%rcx
  6c5c91:	0f 85 32 01 00 00    	jne    6c5dc9 <_ZN11__sanitizer18LargeMmapAllocatorINS_20NoOpMapUnmapCallbackENS_32LargeMmapAllocatorPtrArrayStaticENS_21LocalAddressSpaceViewEE8AllocateEPNS_14AllocatorStatsEmm+0x1d9>
  6c5c97:	48 8d 34 02          	lea    (%rdx,%rax,1),%rsi
  6c5c9b:	48 89 f7             	mov    %rsi,%rdi
  6c5c9e:	48 21 ef             	and    %rbp,%rdi
  6c5ca1:	49 29 fc             	sub    %rdi,%r12
  6c5ca4:	48 85 ff             	test   %rdi,%rdi
  6c5ca7:	4c 0f 44 e7          	cmove  %rdi,%r12
  6c5cab:	49 01 f4             	add    %rsi,%r12
  6c5cae:	49 85 ec             	test   %rbp,%r12
  6c5cb1:	0f 85 27 01 00 00    	jne    6c5dde <_ZN11__sanitizer18LargeMmapAllocatorINS_20NoOpMapUnmapCallbackENS_32LargeMmapAllocatorPtrArrayStaticENS_21LocalAddressSpaceViewEE8AllocateEPNS_14AllocatorStatsEmm+0x1ee>
  6c5cb7:	49 85 cc             	test   %rcx,%r12
  6c5cba:	0f 85 33 01 00 00    	jne    6c5df3 <_ZN11__sanitizer18LargeMmapAllocatorINS_20NoOpMapUnmapCallbackENS_32LargeMmapAllocatorPtrArrayStaticENS_21LocalAddressSpaceViewEE8AllocateEPNS_14AllocatorStatsEmm+0x203>
  6c5cc0:	4b 8d 0c 2c          	lea    (%r12,%r13,1),%rcx
  6c5cc4:	48 39 c1             	cmp    %rax,%rcx
  6c5cc7:	0f 82 3b 01 00 00    	jb     6c5e08 <_ZN11__sanitizer18LargeMmapAllocatorINS_20NoOpMapUnmapCallbackENS_32LargeMmapAllocatorPtrArrayStaticENS_21LocalAddressSpaceViewEE8AllocateEPNS_14AllocatorStatsEmm+0x218>
  6c5ccd:	49 89 c0             	mov    %rax,%r8
  6c5cd0:	49 01 d8             	add    %rbx,%r8
  6c5cd3:	4c 39 c1             	cmp    %r8,%rcx
  6c5cd6:	0f 87 47 01 00 00    	ja     6c5e23 <_ZN11__sanitizer18LargeMmapAllocatorINS_20NoOpMapUnmapCallbackENS_32LargeMmapAllocatorPtrArrayStaticENS_21LocalAddressSpaceViewEE8AllocateEPNS_14AllocatorStatsEmm+0x233>
  6c5cdc:	4c 89 e5             	mov    %r12,%rbp
  6c5cdf:	48 29 d5             	sub    %rdx,%rbp
  6c5ce2:	4c 89 6d 10          	mov    %r13,0x10(%rbp)
  6c5ce6:	48 89 45 00          	mov    %rax,0x0(%rbp)
  6c5cea:	48 89 5d 08          	mov    %rbx,0x8(%rbp)
  6c5cee:	48 85 db             	test   %rbx,%rbx
  6c5cf1:	0f 84 44 01 00 00    	je     6c5e3b <_ZN11__sanitizer18LargeMmapAllocatorINS_20NoOpMapUnmapCallbackENS_32LargeMmapAllocatorPtrArrayStaticENS_21LocalAddressSpaceViewEE8AllocateEPNS_14AllocatorStatsEmm+0x24b>
  6c5cf7:	b0 01                	mov    $0x1,%al
  6c5cf9:	41 86 86 40 02 04 00 	xchg   %al,0x40240(%r14)
  6c5d00:	84 c0                	test   %al,%al
  6c5d02:	0f 85 50 01 00 00    	jne    6c5e58 <_ZN11__sanitizer18LargeMmapAllocatorINS_20NoOpMapUnmapCallbackENS_32LargeMmapAllocatorPtrArrayStaticENS_21LocalAddressSpaceViewEE8AllocateEPNS_14AllocatorStatsEmm+0x268>
  6c5d08:	49 8b 8e 10 00 04 00 	mov    0x40010(%r14),%rcx
  6c5d0f:	48 81 f9 00 80 00 00 	cmp    $0x8000,%rcx
  6c5d16:	0f 83 5c 01 00 00    	jae    6c5e78 <_ZN11__sanitizer18LargeMmapAllocatorINS_20NoOpMapUnmapCallbackENS_32LargeMmapAllocatorPtrArrayStaticENS_21LocalAddressSpaceViewEE8AllocateEPNS_14AllocatorStatsEmm+0x288>
  6c5d1c:	48 0f bd c3          	bsr    %rbx,%rax
  6c5d20:	48 8d 51 01          	lea    0x1(%rcx),%rdx
  6c5d24:	49 89 96 10 00 04 00 	mov    %rdx,0x40010(%r14)
  6c5d2b:	48 89 4d 18          	mov    %rcx,0x18(%rbp)
  6c5d2f:	49 8b 56 08          	mov    0x8(%r14),%rdx
  6c5d33:	48 89 2c ca          	mov    %rbp,(%rdx,%rcx,8)
  6c5d37:	41 c6 86 18 00 04 00 	movb   $0x0,0x40018(%r14)
  6c5d3e:	00 
  6c5d3f:	49 83 86 20 00 04 00 	addq   $0x1,0x40020(%r14)
  6c5d46:	01 
  6c5d47:	49 8b 8e 30 00 04 00 	mov    0x40030(%r14),%rcx
  6c5d4e:	48 01 d9             	add    %rbx,%rcx
  6c5d51:	49 89 8e 30 00 04 00 	mov    %rcx,0x40030(%r14)
  6c5d58:	49 8b 96 38 00 04 00 	mov    0x40038(%r14),%rdx
  6c5d5f:	48 39 ca             	cmp    %rcx,%rdx
  6c5d62:	48 0f 47 ca          	cmova  %rdx,%rcx
  6c5d66:	49 89 8e 38 00 04 00 	mov    %rcx,0x40038(%r14)
  6c5d6d:	49 83 84 c6 40 00 04 	addq   $0x1,0x40040(%r14,%rax,8)
  6c5d74:	00 01 
  6c5d76:	49 01 5f 10          	add    %rbx,0x10(%r15)
  6c5d7a:	49 01 5f 18          	add    %rbx,0x18(%r15)
  6c5d7e:	41 c6 86 40 02 04 00 	movb   $0x0,0x40240(%r14)
  6c5d85:	00 
  6c5d86:	4d 89 e6             	mov    %r12,%r14
  6c5d89:	eb 03                	jmp    6c5d8e <_ZN11__sanitizer18LargeMmapAllocatorINS_20NoOpMapUnmapCallbackENS_32LargeMmapAllocatorPtrArrayStaticENS_21LocalAddressSpaceViewEE8AllocateEPNS_14AllocatorStatsEmm+0x19e>
  6c5d8b:	45 31 f6             	xor    %r14d,%r14d
  6c5d8e:	4c 89 f0             	mov    %r14,%rax
  6c5d91:	48 83 c4 08          	add    $0x8,%rsp
  6c5d95:	5b                   	pop    %rbx
  6c5d96:	41 5c                	pop    %r12
  6c5d98:	41 5d                	pop    %r13
  6c5d9a:	41 5e                	pop    %r14
  6c5d9c:	41 5f                	pop    %r15
  6c5d9e:	5d                   	pop    %rbp
  6c5d9f:	c3                   	retq   
  6c5da0:	48 8d 3d d7 53 b4 ff 	lea    -0x4bac29(%rip),%rdi        # 20b17e <_IO_stdin_used+0x838e>
  6c5da7:	48 8d 15 57 8e b4 ff 	lea    -0x4b71a9(%rip),%rdx        # 20ec05 <_IO_stdin_used+0xbe15>
  6c5dae:	be 56 00 00 00       	mov    $0x56,%esi
  6c5db3:	e9 96 00 00 00       	jmpq   6c5e4e <_ZN11__sanitizer18LargeMmapAllocatorINS_20NoOpMapUnmapCallbackENS_32LargeMmapAllocatorPtrArrayStaticENS_21LocalAddressSpaceViewEE8AllocateEPNS_14AllocatorStatsEmm+0x25e>
  6c5db8:	48 8d 3d 77 54 b4 ff 	lea    -0x4bab89(%rip),%rdi        # 20b236 <_IO_stdin_used+0x8446>
  6c5dbf:	e8 ec 4b 00 00       	callq  6ca9b0 <_ZN11__sanitizer8RawWriteEPKc>
  6c5dc4:	e8 c7 37 01 00       	callq  6d9590 <_ZN11__sanitizer3DieEv>
  6c5dc9:	48 8d 3d ae 53 b4 ff 	lea    -0x4bac52(%rip),%rdi        # 20b17e <_IO_stdin_used+0x838e>
  6c5dd0:	48 8d 15 77 03 b4 ff 	lea    -0x4bfc89(%rip),%rdx        # 20614e <_IO_stdin_used+0x335e>
  6c5dd7:	be 65 00 00 00       	mov    $0x65,%esi
  6c5ddc:	eb 70                	jmp    6c5e4e <_ZN11__sanitizer18LargeMmapAllocatorINS_20NoOpMapUnmapCallbackENS_32LargeMmapAllocatorPtrArrayStaticENS_21LocalAddressSpaceViewEE8AllocateEPNS_14AllocatorStatsEmm+0x25e>
  6c5dde:	48 8d 3d 99 53 b4 ff 	lea    -0x4bac67(%rip),%rdi        # 20b17e <_IO_stdin_used+0x838e>
  6c5de5:	48 8d 15 37 fa b3 ff 	lea    -0x4c05c9(%rip),%rdx        # 205823 <_IO_stdin_used+0x2a33>
  6c5dec:	be 6b 00 00 00       	mov    $0x6b,%esi
  6c5df1:	eb 5b                	jmp    6c5e4e <_ZN11__sanitizer18LargeMmapAllocatorINS_20NoOpMapUnmapCallbackENS_32LargeMmapAllocatorPtrArrayStaticENS_21LocalAddressSpaceViewEE8AllocateEPNS_14AllocatorStatsEmm+0x25e>
  6c5df3:	48 8d 3d 84 53 b4 ff 	lea    -0x4bac7c(%rip),%rdi        # 20b17e <_IO_stdin_used+0x838e>
  6c5dfa:	48 8d 15 be 8e b4 ff 	lea    -0x4b7142(%rip),%rdx        # 20ecbf <_IO_stdin_used+0xbecf>
  6c5e01:	be 6c 00 00 00       	mov    $0x6c,%esi
  6c5e06:	eb 46                	jmp    6c5e4e <_ZN11__sanitizer18LargeMmapAllocatorINS_20NoOpMapUnmapCallbackENS_32LargeMmapAllocatorPtrArrayStaticENS_21LocalAddressSpaceViewEE8AllocateEPNS_14AllocatorStatsEmm+0x25e>
  6c5e08:	48 8d 3d 6f 53 b4 ff 	lea    -0x4bac91(%rip),%rdi        # 20b17e <_IO_stdin_used+0x838e>
  6c5e0f:	48 8d 15 e2 08 b4 ff 	lea    -0x4bf71e(%rip),%rdx        # 2066f8 <_IO_stdin_used+0x3908>
  6c5e16:	be 6d 00 00 00       	mov    $0x6d,%esi
  6c5e1b:	49 89 c0             	mov    %rax,%r8
  6c5e1e:	e8 4d 38 01 00       	callq  6d9670 <_ZN11__sanitizer11CheckFailedEPKciS1_yy>
  6c5e23:	48 8d 3d 54 53 b4 ff 	lea    -0x4bacac(%rip),%rdi        # 20b17e <_IO_stdin_used+0x838e>
  6c5e2a:	48 8d 15 47 03 b4 ff 	lea    -0x4bfcb9(%rip),%rdx        # 206178 <_IO_stdin_used+0x3388>
  6c5e31:	be 6e 00 00 00       	mov    $0x6e,%esi
  6c5e36:	e8 35 38 01 00       	callq  6d9670 <_ZN11__sanitizer11CheckFailedEPKciS1_yy>
  6c5e3b:	48 8d 3d 4c 3c b4 ff 	lea    -0x4bc3b4(%rip),%rdi        # 209a8e <_IO_stdin_used+0x6c9e>
  6c5e42:	48 8d 15 72 b8 b4 ff 	lea    -0x4b478e(%rip),%rdx        # 2116bb <_IO_stdin_used+0xe8cb>
  6c5e49:	be 80 01 00 00       	mov    $0x180,%esi
  6c5e4e:	31 c9                	xor    %ecx,%ecx
  6c5e50:	45 31 c0             	xor    %r8d,%r8d
  6c5e53:	e8 18 38 01 00       	callq  6d9670 <_ZN11__sanitizer11CheckFailedEPKciS1_yy>
  6c5e58:	49 8d be 40 02 04 00 	lea    0x40240(%r14),%rdi
  6c5e5f:	e8 4c be 00 00       	callq  6d1cb0 <_ZN11__sanitizer15StaticSpinMutex8LockSlowEv>
  6c5e64:	49 8b 8e 10 00 04 00 	mov    0x40010(%r14),%rcx
  6c5e6b:	48 81 f9 00 80 00 00 	cmp    $0x8000,%rcx
  6c5e72:	0f 82 a4 fe ff ff    	jb     6c5d1c <_ZN11__sanitizer18LargeMmapAllocatorINS_20NoOpMapUnmapCallbackENS_32LargeMmapAllocatorPtrArrayStaticENS_21LocalAddressSpaceViewEE8AllocateEPNS_14AllocatorStatsEmm+0x12c>
  6c5e78:	48 8d 3d ff 52 b4 ff 	lea    -0x4bad01(%rip),%rdi        # 20b17e <_IO_stdin_used+0x838e>
  6c5e7f:	48 8d 15 e4 94 b4 ff 	lea    -0x4b6b1c(%rip),%rdx        # 20f36a <_IO_stdin_used+0xc57a>
  6c5e86:	41 b8 00 80 00 00    	mov    $0x8000,%r8d
  6c5e8c:	be 16 00 00 00       	mov    $0x16,%esi
  6c5e91:	e8 da 37 01 00       	callq  6d9670 <_ZN11__sanitizer11CheckFailedEPKciS1_yy>
  6c5e96:	cc                   	int3   
  6c5e97:	cc                   	int3   
  6c5e98:	cc                   	int3   
  6c5e99:	cc                   	int3   
  6c5e9a:	cc                   	int3   
  6c5e9b:	cc                   	int3   
  6c5e9c:	cc                   	int3   
  6c5e9d:	cc                   	int3   
  6c5e9e:	cc                   	int3   
  6c5e9f:	cc                   	int3   

00000000006c5ea0 <_ZN11__sanitizer30SizeClassAllocator32LocalCacheINS_20SizeClassAllocator32INS_4AP32EEEE6RefillEPNS4_8PerClassEPS3_m>:
  6c5ea0:	41 57                	push   %r15
  6c5ea2:	41 56                	push   %r14
  6c5ea4:	41 55                	push   %r13
  6c5ea6:	41 54                	push   %r12
  6c5ea8:	53                   	push   %rbx
  6c5ea9:	49 89 cc             	mov    %rcx,%r12
  6c5eac:	49 89 d6             	mov    %rdx,%r14
  6c5eaf:	49 89 f5             	mov    %rsi,%r13
  6c5eb2:	49 89 ff             	mov    %rdi,%r15
  6c5eb5:	48 83 7e 08 00       	cmpq   $0x0,0x8(%rsi)
  6c5eba:	0f 84 f4 01 00 00    	je     6c60b4 <_ZN11__sanitizer30SizeClassAllocator32LocalCacheINS_20SizeClassAllocator32INS_4AP32EEEE6RefillEPNS4_8PerClassEPS3_m+0x214>
  6c5ec0:	49 8d b7 00 d8 00 00 	lea    0xd800(%r15),%rsi
  6c5ec7:	4c 89 f7             	mov    %r14,%rdi
  6c5eca:	4c 89 fa             	mov    %r15,%rdx
  6c5ecd:	4c 89 e1             	mov    %r12,%rcx
  6c5ed0:	e8 cb 02 00 00       	callq  6c61a0 <_ZN11__sanitizer20SizeClassAllocator32INS_4AP32EE13AllocateBatchEPNS_14AllocatorStatsEPNS_30SizeClassAllocator32LocalCacheIS2_EEm>
  6c5ed5:	48 89 c3             	mov    %rax,%rbx
  6c5ed8:	48 85 c0             	test   %rax,%rax
  6c5edb:	0f 84 c3 01 00 00    	je     6c60a4 <_ZN11__sanitizer30SizeClassAllocator32LocalCacheINS_20SizeClassAllocator32INS_4AP32EEEE6RefillEPNS4_8PerClassEPS3_m+0x204>
  6c5ee1:	48 8b 43 08          	mov    0x8(%rbx),%rax
  6c5ee5:	48 85 c0             	test   %rax,%rax
  6c5ee8:	0f 84 90 02 00 00    	je     6c617e <_ZN11__sanitizer30SizeClassAllocator32LocalCacheINS_20SizeClassAllocator32INS_4AP32EEEE6RefillEPNS4_8PerClassEPS3_m+0x2de>
  6c5eee:	48 83 f8 04          	cmp    $0x4,%rax
  6c5ef2:	72 29                	jb     6c5f1d <_ZN11__sanitizer30SizeClassAllocator32LocalCacheINS_20SizeClassAllocator32INS_4AP32EEEE6RefillEPNS4_8PerClassEPS3_m+0x7d>
  6c5ef4:	49 8d 4d 20          	lea    0x20(%r13),%rcx
  6c5ef8:	48 8d 14 c3          	lea    (%rbx,%rax,8),%rdx
  6c5efc:	48 83 c2 10          	add    $0x10,%rdx
  6c5f00:	48 39 ca             	cmp    %rcx,%rdx
  6c5f03:	0f 86 8d 00 00 00    	jbe    6c5f96 <_ZN11__sanitizer30SizeClassAllocator32LocalCacheINS_20SizeClassAllocator32INS_4AP32EEEE6RefillEPNS4_8PerClassEPS3_m+0xf6>
  6c5f09:	48 8d 0c c5 20 00 00 	lea    0x20(,%rax,8),%rcx
  6c5f10:	00 
  6c5f11:	4c 01 e9             	add    %r13,%rcx
  6c5f14:	48 8d 53 10          	lea    0x10(%rbx),%rdx
  6c5f18:	48 39 d1             	cmp    %rdx,%rcx
  6c5f1b:	76 79                	jbe    6c5f96 <_ZN11__sanitizer30SizeClassAllocator32LocalCacheINS_20SizeClassAllocator32INS_4AP32EEEE6RefillEPNS4_8PerClassEPS3_m+0xf6>
  6c5f1d:	31 c9                	xor    %ecx,%ecx
  6c5f1f:	48 89 ca             	mov    %rcx,%rdx
  6c5f22:	48 f7 d2             	not    %rdx
  6c5f25:	48 01 c2             	add    %rax,%rdx
  6c5f28:	48 89 c6             	mov    %rax,%rsi
  6c5f2b:	48 83 e6 03          	and    $0x3,%rsi
  6c5f2f:	74 23                	je     6c5f54 <_ZN11__sanitizer30SizeClassAllocator32LocalCacheINS_20SizeClassAllocator32INS_4AP32EEEE6RefillEPNS4_8PerClassEPS3_m+0xb4>
  6c5f31:	66 2e 0f 1f 84 00 00 	nopw   %cs:0x0(%rax,%rax,1)
  6c5f38:	00 00 00 
  6c5f3b:	0f 1f 44 00 00       	nopl   0x0(%rax,%rax,1)
  6c5f40:	48 8b 7c cb 10       	mov    0x10(%rbx,%rcx,8),%rdi
  6c5f45:	49 89 7c cd 20       	mov    %rdi,0x20(%r13,%rcx,8)
  6c5f4a:	48 83 c1 01          	add    $0x1,%rcx
  6c5f4e:	48 83 c6 ff          	add    $0xffffffffffffffff,%rsi
  6c5f52:	75 ec                	jne    6c5f40 <_ZN11__sanitizer30SizeClassAllocator32LocalCacheINS_20SizeClassAllocator32INS_4AP32EEEE6RefillEPNS4_8PerClassEPS3_m+0xa0>
  6c5f54:	48 83 fa 03          	cmp    $0x3,%rdx
  6c5f58:	0f 82 26 01 00 00    	jb     6c6084 <_ZN11__sanitizer30SizeClassAllocator32LocalCacheINS_20SizeClassAllocator32INS_4AP32EEEE6RefillEPNS4_8PerClassEPS3_m+0x1e4>
  6c5f5e:	66 90                	xchg   %ax,%ax
  6c5f60:	48 8b 54 cb 10       	mov    0x10(%rbx,%rcx,8),%rdx
  6c5f65:	49 89 54 cd 20       	mov    %rdx,0x20(%r13,%rcx,8)
  6c5f6a:	48 8b 54 cb 18       	mov    0x18(%rbx,%rcx,8),%rdx
  6c5f6f:	49 89 54 cd 28       	mov    %rdx,0x28(%r13,%rcx,8)
  6c5f74:	48 8b 54 cb 20       	mov    0x20(%rbx,%rcx,8),%rdx
  6c5f79:	49 89 54 cd 30       	mov    %rdx,0x30(%r13,%rcx,8)
  6c5f7e:	48 8b 54 cb 28       	mov    0x28(%rbx,%rcx,8),%rdx
  6c5f83:	49 89 54 cd 38       	mov    %rdx,0x38(%r13,%rcx,8)
  6c5f88:	48 83 c1 04          	add    $0x4,%rcx
  6c5f8c:	48 39 c8             	cmp    %rcx,%rax
  6c5f8f:	75 cf                	jne    6c5f60 <_ZN11__sanitizer30SizeClassAllocator32LocalCacheINS_20SizeClassAllocator32INS_4AP32EEEE6RefillEPNS4_8PerClassEPS3_m+0xc0>
  6c5f91:	e9 ee 00 00 00       	jmpq   6c6084 <_ZN11__sanitizer30SizeClassAllocator32LocalCacheINS_20SizeClassAllocator32INS_4AP32EEEE6RefillEPNS4_8PerClassEPS3_m+0x1e4>
  6c5f96:	48 89 c1             	mov    %rax,%rcx
  6c5f99:	48 83 e1 fc          	and    $0xfffffffffffffffc,%rcx
  6c5f9d:	48 8d 51 fc          	lea    -0x4(%rcx),%rdx
  6c5fa1:	48 89 d6             	mov    %rdx,%rsi
  6c5fa4:	48 c1 ee 02          	shr    $0x2,%rsi
  6c5fa8:	48 83 c6 01          	add    $0x1,%rsi
  6c5fac:	41 89 f0             	mov    %esi,%r8d
  6c5faf:	41 83 e0 03          	and    $0x3,%r8d
  6c5fb3:	48 83 fa 0c          	cmp    $0xc,%rdx
  6c5fb7:	73 04                	jae    6c5fbd <_ZN11__sanitizer30SizeClassAllocator32LocalCacheINS_20SizeClassAllocator32INS_4AP32EEEE6RefillEPNS4_8PerClassEPS3_m+0x11d>
  6c5fb9:	31 ff                	xor    %edi,%edi
  6c5fbb:	eb 7e                	jmp    6c603b <_ZN11__sanitizer30SizeClassAllocator32LocalCacheINS_20SizeClassAllocator32INS_4AP32EEEE6RefillEPNS4_8PerClassEPS3_m+0x19b>
  6c5fbd:	48 83 e6 fc          	and    $0xfffffffffffffffc,%rsi
  6c5fc1:	31 ff                	xor    %edi,%edi
  6c5fc3:	66 2e 0f 1f 84 00 00 	nopw   %cs:0x0(%rax,%rax,1)
  6c5fca:	00 00 00 
  6c5fcd:	0f 1f 00             	nopl   (%rax)
  6c5fd0:	0f 10 44 fb 10       	movups 0x10(%rbx,%rdi,8),%xmm0
  6c5fd5:	0f 10 4c fb 20       	movups 0x20(%rbx,%rdi,8),%xmm1
  6c5fda:	41 0f 11 44 fd 20    	movups %xmm0,0x20(%r13,%rdi,8)
  6c5fe0:	41 0f 11 4c fd 30    	movups %xmm1,0x30(%r13,%rdi,8)
  6c5fe6:	0f 10 44 fb 30       	movups 0x30(%rbx,%rdi,8),%xmm0
  6c5feb:	0f 10 4c fb 40       	movups 0x40(%rbx,%rdi,8),%xmm1
  6c5ff0:	41 0f 11 44 fd 40    	movups %xmm0,0x40(%r13,%rdi,8)
  6c5ff6:	41 0f 11 4c fd 50    	movups %xmm1,0x50(%r13,%rdi,8)
  6c5ffc:	0f 10 44 fb 50       	movups 0x50(%rbx,%rdi,8),%xmm0
  6c6001:	0f 10 4c fb 60       	movups 0x60(%rbx,%rdi,8),%xmm1
  6c6006:	41 0f 11 44 fd 60    	movups %xmm0,0x60(%r13,%rdi,8)
  6c600c:	41 0f 11 4c fd 70    	movups %xmm1,0x70(%r13,%rdi,8)
  6c6012:	0f 10 44 fb 70       	movups 0x70(%rbx,%rdi,8),%xmm0
  6c6017:	0f 10 8c fb 80 00 00 	movups 0x80(%rbx,%rdi,8),%xmm1
  6c601e:	00 
  6c601f:	41 0f 11 84 fd 80 00 	movups %xmm0,0x80(%r13,%rdi,8)
  6c6026:	00 00 
  6c6028:	41 0f 11 8c fd 90 00 	movups %xmm1,0x90(%r13,%rdi,8)
  6c602f:	00 00 
  6c6031:	48 83 c7 10          	add    $0x10,%rdi
  6c6035:	48 83 c6 fc          	add    $0xfffffffffffffffc,%rsi
  6c6039:	75 95                	jne    6c5fd0 <_ZN11__sanitizer30SizeClassAllocator32LocalCacheINS_20SizeClassAllocator32INS_4AP32EEEE6RefillEPNS4_8PerClassEPS3_m+0x130>
  6c603b:	4d 85 c0             	test   %r8,%r8
  6c603e:	74 3b                	je     6c607b <_ZN11__sanitizer30SizeClassAllocator32LocalCacheINS_20SizeClassAllocator32INS_4AP32EEEE6RefillEPNS4_8PerClassEPS3_m+0x1db>
  6c6040:	48 8d 34 fd 30 00 00 	lea    0x30(,%rdi,8),%rsi
  6c6047:	00 
  6c6048:	4c 01 ee             	add    %r13,%rsi
  6c604b:	48 8d 3c fb          	lea    (%rbx,%rdi,8),%rdi
  6c604f:	48 83 c7 20          	add    $0x20,%rdi
  6c6053:	49 c1 e0 05          	shl    $0x5,%r8
  6c6057:	31 d2                	xor    %edx,%edx
  6c6059:	0f 1f 80 00 00 00 00 	nopl   0x0(%rax)
  6c6060:	0f 10 44 17 f0       	movups -0x10(%rdi,%rdx,1),%xmm0
  6c6065:	0f 10 0c 17          	movups (%rdi,%rdx,1),%xmm1
  6c6069:	0f 11 44 16 f0       	movups %xmm0,-0x10(%rsi,%rdx,1)
  6c606e:	0f 11 0c 16          	movups %xmm1,(%rsi,%rdx,1)
  6c6072:	48 83 c2 20          	add    $0x20,%rdx
  6c6076:	49 39 d0             	cmp    %rdx,%r8
  6c6079:	75 e5                	jne    6c6060 <_ZN11__sanitizer30SizeClassAllocator32LocalCacheINS_20SizeClassAllocator32INS_4AP32EEEE6RefillEPNS4_8PerClassEPS3_m+0x1c0>
  6c607b:	48 39 c8             	cmp    %rcx,%rax
  6c607e:	0f 85 9b fe ff ff    	jne    6c5f1f <_ZN11__sanitizer30SizeClassAllocator32LocalCacheINS_20SizeClassAllocator32INS_4AP32EEEE6RefillEPNS4_8PerClassEPS3_m+0x7f>
  6c6084:	49 89 45 00          	mov    %rax,0x0(%r13)
  6c6088:	49 c1 e4 0a          	shl    $0xa,%r12
  6c608c:	4b 8b 54 27 18       	mov    0x18(%r15,%r12,1),%rdx
  6c6091:	48 85 d2             	test   %rdx,%rdx
  6c6094:	74 0e                	je     6c60a4 <_ZN11__sanitizer30SizeClassAllocator32LocalCacheINS_20SizeClassAllocator32INS_4AP32EEEE6RefillEPNS4_8PerClassEPS3_m+0x204>
  6c6096:	4c 89 ff             	mov    %r15,%rdi
  6c6099:	4c 89 f6             	mov    %r14,%rsi
  6c609c:	48 89 d9             	mov    %rbx,%rcx
  6c609f:	e8 0c 0f 00 00       	callq  6c6fb0 <_ZN11__sanitizer30SizeClassAllocator32LocalCacheINS_20SizeClassAllocator32INS_4AP32EEEE10DeallocateEPS3_mPv>
  6c60a4:	48 85 db             	test   %rbx,%rbx
  6c60a7:	0f 95 c0             	setne  %al
  6c60aa:	5b                   	pop    %rbx
  6c60ab:	41 5c                	pop    %r12
  6c60ad:	41 5d                	pop    %r13
  6c60af:	41 5e                	pop    %r14
  6c60b1:	41 5f                	pop    %r15
  6c60b3:	c3                   	retq   
  6c60b4:	49 8d b7 18 04 00 00 	lea    0x418(%r15),%rsi
  6c60bb:	bf 10 00 00 00       	mov    $0x10,%edi
  6c60c0:	48 c7 c3 f1 ff ff ff 	mov    $0xfffffffffffffff1,%rbx
  6c60c7:	eb 1c                	jmp    6c60e5 <_ZN11__sanitizer30SizeClassAllocator32LocalCacheINS_20SizeClassAllocator32INS_4AP32EEEE6RefillEPNS4_8PerClassEPS3_m+0x245>
  6c60c9:	48 89 06             	mov    %rax,(%rsi)
  6c60cc:	48 83 c7 10          	add    $0x10,%rdi
  6c60d0:	48 83 c3 01          	add    $0x1,%rbx
  6c60d4:	48 81 c6 00 04 00 00 	add    $0x400,%rsi
  6c60db:	48 83 fb 26          	cmp    $0x26,%rbx
  6c60df:	0f 84 db fd ff ff    	je     6c5ec0 <_ZN11__sanitizer30SizeClassAllocator32LocalCacheINS_20SizeClassAllocator32INS_4AP32EEEE6RefillEPNS4_8PerClassEPS3_m+0x20>
  6c60e5:	b9 00 02 00 00       	mov    $0x200,%ecx
  6c60ea:	48 83 fb 25          	cmp    $0x25,%rbx
  6c60ee:	74 30                	je     6c6120 <_ZN11__sanitizer30SizeClassAllocator32LocalCacheINS_20SizeClassAllocator32INS_4AP32EEEE6RefillEPNS4_8PerClassEPS3_m+0x280>
  6c60f0:	48 8d 43 10          	lea    0x10(%rbx),%rax
  6c60f4:	48 89 f9             	mov    %rdi,%rcx
  6c60f7:	48 83 f8 11          	cmp    $0x11,%rax
  6c60fb:	72 23                	jb     6c6120 <_ZN11__sanitizer30SizeClassAllocator32LocalCacheINS_20SizeClassAllocator32INS_4AP32EEEE6RefillEPNS4_8PerClassEPS3_m+0x280>
  6c60fd:	48 89 d9             	mov    %rbx,%rcx
  6c6100:	48 c1 e9 02          	shr    $0x2,%rcx
  6c6104:	ba 00 01 00 00       	mov    $0x100,%edx
  6c6109:	48 d3 e2             	shl    %cl,%rdx
  6c610c:	48 89 d1             	mov    %rdx,%rcx
  6c610f:	48 c1 e9 02          	shr    $0x2,%rcx
  6c6113:	83 e0 03             	and    $0x3,%eax
  6c6116:	48 0f af c1          	imul   %rcx,%rax
  6c611a:	48 01 d0             	add    %rdx,%rax
  6c611d:	48 89 c1             	mov    %rax,%rcx
  6c6120:	b8 00 40 00 00       	mov    $0x4000,%eax
  6c6125:	31 d2                	xor    %edx,%edx
  6c6127:	f7 f1                	div    %ecx
  6c6129:	83 f8 40             	cmp    $0x40,%eax
  6c612c:	72 3e                	jb     6c616c <_ZN11__sanitizer30SizeClassAllocator32LocalCacheINS_20SizeClassAllocator32INS_4AP32EEEE6RefillEPNS4_8PerClassEPS3_m+0x2cc>
  6c612e:	b8 40 00 00 00       	mov    $0x40,%eax
  6c6133:	48 85 c0             	test   %rax,%rax
  6c6136:	74 39                	je     6c6171 <_ZN11__sanitizer30SizeClassAllocator32LocalCacheINS_20SizeClassAllocator32INS_4AP32EEEE6RefillEPNS4_8PerClassEPS3_m+0x2d1>
  6c6138:	48 83 f8 3e          	cmp    $0x3e,%rax
  6c613c:	72 05                	jb     6c6143 <_ZN11__sanitizer30SizeClassAllocator32LocalCacheINS_20SizeClassAllocator32INS_4AP32EEEE6RefillEPNS4_8PerClassEPS3_m+0x2a3>
  6c613e:	b8 3e 00 00 00       	mov    $0x3e,%eax
  6c6143:	48 8d 14 00          	lea    (%rax,%rax,1),%rdx
  6c6147:	48 89 56 f0          	mov    %rdx,-0x10(%rsi)
  6c614b:	48 89 4e f8          	mov    %rcx,-0x8(%rsi)
  6c614f:	48 8d 14 c5 10 00 00 	lea    0x10(,%rax,8),%rdx
  6c6156:	00 
  6c6157:	b8 14 00 00 00       	mov    $0x14,%eax
  6c615c:	48 39 d1             	cmp    %rdx,%rcx
  6c615f:	0f 82 64 ff ff ff    	jb     6c60c9 <_ZN11__sanitizer30SizeClassAllocator32LocalCacheINS_20SizeClassAllocator32INS_4AP32EEEE6RefillEPNS4_8PerClassEPS3_m+0x229>
  6c6165:	31 c0                	xor    %eax,%eax
  6c6167:	e9 5d ff ff ff       	jmpq   6c60c9 <_ZN11__sanitizer30SizeClassAllocator32LocalCacheINS_20SizeClassAllocator32INS_4AP32EEEE6RefillEPNS4_8PerClassEPS3_m+0x229>
  6c616c:	48 85 c0             	test   %rax,%rax
  6c616f:	75 c7                	jne    6c6138 <_ZN11__sanitizer30SizeClassAllocator32LocalCacheINS_20SizeClassAllocator32INS_4AP32EEEE6RefillEPNS4_8PerClassEPS3_m+0x298>
  6c6171:	b8 01 00 00 00       	mov    $0x1,%eax
  6c6176:	48 83 f8 3e          	cmp    $0x3e,%rax
  6c617a:	73 c2                	jae    6c613e <_ZN11__sanitizer30SizeClassAllocator32LocalCacheINS_20SizeClassAllocator32INS_4AP32EEEE6RefillEPNS4_8PerClassEPS3_m+0x29e>
  6c617c:	eb c5                	jmp    6c6143 <_ZN11__sanitizer30SizeClassAllocator32LocalCacheINS_20SizeClassAllocator32INS_4AP32EEEE6RefillEPNS4_8PerClassEPS3_m+0x2a3>
  6c617e:	48 8d 3d dc 0e b4 ff 	lea    -0x4bf124(%rip),%rdi        # 207061 <_IO_stdin_used+0x4271>
  6c6185:	48 8d 15 69 7b b4 ff 	lea    -0x4b8497(%rip),%rdx        # 20dcf5 <_IO_stdin_used+0xaf05>
  6c618c:	be f7 00 00 00       	mov    $0xf7,%esi
  6c6191:	31 c9                	xor    %ecx,%ecx
  6c6193:	45 31 c0             	xor    %r8d,%r8d
  6c6196:	e8 d5 34 01 00       	callq  6d9670 <_ZN11__sanitizer11CheckFailedEPKciS1_yy>
  6c619b:	cc                   	int3   
  6c619c:	cc                   	int3   
  6c619d:	cc                   	int3   
  6c619e:	cc                   	int3   
  6c619f:	cc                   	int3   

00000000006c61a0 <_ZN11__sanitizer20SizeClassAllocator32INS_4AP32EE13AllocateBatchEPNS_14AllocatorStatsEPNS_30SizeClassAllocator32LocalCacheIS2_EEm>:
  6c61a0:	55                   	push   %rbp
  6c61a1:	41 57                	push   %r15
  6c61a3:	41 56                	push   %r14
  6c61a5:	41 55                	push   %r13
  6c61a7:	41 54                	push   %r12
  6c61a9:	53                   	push   %rbx
  6c61aa:	50                   	push   %rax
  6c61ab:	49 89 cf             	mov    %rcx,%r15
  6c61ae:	49 89 f5             	mov    %rsi,%r13
  6c61b1:	48 89 fb             	mov    %rdi,%rbx
  6c61b4:	48 89 cd             	mov    %rcx,%rbp
  6c61b7:	48 c1 e5 06          	shl    $0x6,%rbp
  6c61bb:	4c 8d 34 2f          	lea    (%rdi,%rbp,1),%r14
  6c61bf:	49 81 c6 40 00 04 00 	add    $0x40040,%r14
  6c61c6:	b0 01                	mov    $0x1,%al
  6c61c8:	86 84 2f 40 00 04 00 	xchg   %al,0x40040(%rdi,%rbp,1)
  6c61cf:	84 c0                	test   %al,%al
  6c61d1:	75 75                	jne    6c6248 <_ZN11__sanitizer20SizeClassAllocator32INS_4AP32EE13AllocateBatchEPNS_14AllocatorStatsEPNS_30SizeClassAllocator32LocalCacheIS2_EEm+0xa8>
  6c61d3:	4c 8d 24 2b          	lea    (%rbx,%rbp,1),%r12
  6c61d7:	49 81 c4 48 00 04 00 	add    $0x40048,%r12
  6c61de:	48 8b 8c 2b 48 00 04 	mov    0x40048(%rbx,%rbp,1),%rcx
  6c61e5:	00 
  6c61e6:	48 85 c9             	test   %rcx,%rcx
  6c61e9:	75 1e                	jne    6c6209 <_ZN11__sanitizer20SizeClassAllocator32INS_4AP32EE13AllocateBatchEPNS_14AllocatorStatsEPNS_30SizeClassAllocator32LocalCacheIS2_EEm+0x69>
  6c61eb:	48 89 df             	mov    %rbx,%rdi
  6c61ee:	4c 89 ee             	mov    %r13,%rsi
  6c61f1:	4c 89 f1             	mov    %r14,%rcx
  6c61f4:	4d 89 f8             	mov    %r15,%r8
  6c61f7:	e8 a4 00 00 00       	callq  6c62a0 <_ZN11__sanitizer20SizeClassAllocator32INS_4AP32EE16PopulateFreeListEPNS_14AllocatorStatsEPNS_30SizeClassAllocator32LocalCacheIS2_EEPNS2_13SizeClassInfoEm>
  6c61fc:	84 c0                	test   %al,%al
  6c61fe:	74 73                	je     6c6273 <_ZN11__sanitizer20SizeClassAllocator32INS_4AP32EE13AllocateBatchEPNS_14AllocatorStatsEPNS_30SizeClassAllocator32LocalCacheIS2_EEm+0xd3>
  6c6200:	49 8b 0c 24          	mov    (%r12),%rcx
  6c6204:	48 85 c9             	test   %rcx,%rcx
  6c6207:	74 6e                	je     6c6277 <_ZN11__sanitizer20SizeClassAllocator32INS_4AP32EE13AllocateBatchEPNS_14AllocatorStatsEPNS_30SizeClassAllocator32LocalCacheIS2_EEm+0xd7>
  6c6209:	48 8b 84 2b 50 00 04 	mov    0x40050(%rbx,%rbp,1),%rax
  6c6210:	00 
  6c6211:	48 8b 10             	mov    (%rax),%rdx
  6c6214:	48 89 94 2b 50 00 04 	mov    %rdx,0x40050(%rbx,%rbp,1)
  6c621b:	00 
  6c621c:	48 85 d2             	test   %rdx,%rdx
  6c621f:	75 0c                	jne    6c622d <_ZN11__sanitizer20SizeClassAllocator32INS_4AP32EE13AllocateBatchEPNS_14AllocatorStatsEPNS_30SizeClassAllocator32LocalCacheIS2_EEm+0x8d>
  6c6221:	48 c7 84 2b 58 00 04 	movq   $0x0,0x40058(%rbx,%rbp,1)
  6c6228:	00 00 00 00 00 
  6c622d:	48 83 c1 ff          	add    $0xffffffffffffffff,%rcx
  6c6231:	49 89 0c 24          	mov    %rcx,(%r12)
  6c6235:	41 c6 06 00          	movb   $0x0,(%r14)
  6c6239:	48 83 c4 08          	add    $0x8,%rsp
  6c623d:	5b                   	pop    %rbx
  6c623e:	41 5c                	pop    %r12
  6c6240:	41 5d                	pop    %r13
  6c6242:	41 5e                	pop    %r14
  6c6244:	41 5f                	pop    %r15
  6c6246:	5d                   	pop    %rbp
  6c6247:	c3                   	retq   
  6c6248:	4c 89 f7             	mov    %r14,%rdi
  6c624b:	49 89 d4             	mov    %rdx,%r12
  6c624e:	e8 5d ba 00 00       	callq  6d1cb0 <_ZN11__sanitizer15StaticSpinMutex8LockSlowEv>
  6c6253:	4c 89 e2             	mov    %r12,%rdx
  6c6256:	4c 8d 24 2b          	lea    (%rbx,%rbp,1),%r12
  6c625a:	49 81 c4 48 00 04 00 	add    $0x40048,%r12
  6c6261:	48 8b 8c 2b 48 00 04 	mov    0x40048(%rbx,%rbp,1),%rcx
  6c6268:	00 
  6c6269:	48 85 c9             	test   %rcx,%rcx
  6c626c:	75 9b                	jne    6c6209 <_ZN11__sanitizer20SizeClassAllocator32INS_4AP32EE13AllocateBatchEPNS_14AllocatorStatsEPNS_30SizeClassAllocator32LocalCacheIS2_EEm+0x69>
  6c626e:	e9 78 ff ff ff       	jmpq   6c61eb <_ZN11__sanitizer20SizeClassAllocator32INS_4AP32EE13AllocateBatchEPNS_14AllocatorStatsEPNS_30SizeClassAllocator32LocalCacheIS2_EEm+0x4b>
  6c6273:	31 c0                	xor    %eax,%eax
  6c6275:	eb be                	jmp    6c6235 <_ZN11__sanitizer20SizeClassAllocator32INS_4AP32EE13AllocateBatchEPNS_14AllocatorStatsEPNS_30SizeClassAllocator32LocalCacheIS2_EEm+0x95>
  6c6277:	48 8d 3d c9 89 b4 ff 	lea    -0x4b7637(%rip),%rdi        # 20ec47 <_IO_stdin_used+0xbe57>
  6c627e:	48 8d 15 46 b4 b4 ff 	lea    -0x4b4bba(%rip),%rdx        # 2116cb <_IO_stdin_used+0xe8db>
  6c6285:	be 41 00 00 00       	mov    $0x41,%esi
  6c628a:	31 c9                	xor    %ecx,%ecx
  6c628c:	45 31 c0             	xor    %r8d,%r8d
  6c628f:	e8 dc 33 01 00       	callq  6d9670 <_ZN11__sanitizer11CheckFailedEPKciS1_yy>
  6c6294:	cc                   	int3   
  6c6295:	cc                   	int3   
  6c6296:	cc                   	int3   
  6c6297:	cc                   	int3   
  6c6298:	cc                   	int3   
  6c6299:	cc                   	int3   
  6c629a:	cc                   	int3   
  6c629b:	cc                   	int3   
  6c629c:	cc                   	int3   
  6c629d:	cc                   	int3   
  6c629e:	cc                   	int3   
  6c629f:	cc                   	int3   

00000000006c62a0 <_ZN11__sanitizer20SizeClassAllocator32INS_4AP32EE16PopulateFreeListEPNS_14AllocatorStatsEPNS_30SizeClassAllocator32LocalCacheIS2_EEPNS2_13SizeClassInfoEm>:
  6c62a0:	55                   	push   %rbp
  6c62a1:	41 57                	push   %r15
  6c62a3:	41 56                	push   %r14
  6c62a5:	41 55                	push   %r13
  6c62a7:	41 54                	push   %r12
  6c62a9:	53                   	push   %rbx
  6c62aa:	48 81 ec c8 01 00 00 	sub    $0x1c8,%rsp
  6c62b1:	4d 89 c6             	mov    %r8,%r14
  6c62b4:	49 89 cd             	mov    %rcx,%r13
  6c62b7:	48 89 54 24 10       	mov    %rdx,0x10(%rsp)
  6c62bc:	48 89 f5             	mov    %rsi,%rbp
  6c62bf:	48 89 7c 24 08       	mov    %rdi,0x8(%rsp)
  6c62c4:	48 8b 15 e5 6c 03 00 	mov    0x36ce5(%rip),%rdx        # 6fcfb0 <_ZN11__sanitizer20PrimaryAllocatorNameE>
  6c62cb:	bf 00 00 10 00       	mov    $0x100000,%edi
  6c62d0:	be 00 00 10 00       	mov    $0x100000,%esi
  6c62d5:	e8 86 bd 00 00       	callq  6d2060 <_ZN11__sanitizer28MmapAlignedOrDieOnFatalErrorEmmPKc>
  6c62da:	48 85 c0             	test   %rax,%rax
  6c62dd:	0f 84 ef 0a 00 00    	je     6c6dd2 <_ZN11__sanitizer20SizeClassAllocator32INS_4AP32EE16PopulateFreeListEPNS_14AllocatorStatsEPNS_30SizeClassAllocator32LocalCacheIS2_EEPNS2_13SizeClassInfoEm+0xb32>
  6c62e3:	49 89 c4             	mov    %rax,%r12
  6c62e6:	48 81 45 18 00 00 10 	addq   $0x100000,0x18(%rbp)
  6c62ed:	00 
  6c62ee:	41 f7 c4 ff ff 0f 00 	test   $0xfffff,%r12d
  6c62f5:	0f 85 f9 0a 00 00    	jne    6c6df4 <_ZN11__sanitizer20SizeClassAllocator32INS_4AP32EE16PopulateFreeListEPNS_14AllocatorStatsEPNS_30SizeClassAllocator32LocalCacheIS2_EEPNS2_13SizeClassInfoEm+0xb54>
  6c62fb:	4c 89 e5             	mov    %r12,%rbp
  6c62fe:	48 c1 ed 14          	shr    $0x14,%rbp
  6c6302:	4c 89 e0             	mov    %r12,%rax
  6c6305:	48 c1 e8 2f          	shr    $0x2f,%rax
  6c6309:	0f 85 fa 0a 00 00    	jne    6c6e09 <_ZN11__sanitizer20SizeClassAllocator32INS_4AP32EE16PopulateFreeListEPNS_14AllocatorStatsEPNS_30SizeClassAllocator32LocalCacheIS2_EEPNS2_13SizeClassInfoEm+0xb69>
  6c630f:	4c 89 e6             	mov    %r12,%rsi
  6c6312:	48 c1 ee 20          	shr    $0x20,%rsi
  6c6316:	48 8b 44 24 08       	mov    0x8(%rsp),%rax
  6c631b:	48 8b 44 f0 08       	mov    0x8(%rax,%rsi,8),%rax
  6c6320:	48 85 c0             	test   %rax,%rax
  6c6323:	0f 84 01 0b 00 00    	je     6c6e2a <_ZN11__sanitizer20SizeClassAllocator32INS_4AP32EE16PopulateFreeListEPNS_14AllocatorStatsEPNS_30SizeClassAllocator32LocalCacheIS2_EEPNS2_13SizeClassInfoEm+0xb8a>
  6c6329:	81 e5 ff 0f 00 00    	and    $0xfff,%ebp
  6c632f:	44 88 34 28          	mov    %r14b,(%rax,%rbp,1)
  6c6333:	41 b9 00 02 00 00    	mov    $0x200,%r9d
  6c6339:	49 83 fe 35          	cmp    $0x35,%r14
  6c633d:	74 3c                	je     6c637b <_ZN11__sanitizer20SizeClassAllocator32INS_4AP32EE16PopulateFreeListEPNS_14AllocatorStatsEPNS_30SizeClassAllocator32LocalCacheIS2_EEPNS2_13SizeClassInfoEm+0xdb>
  6c633f:	49 83 fe 10          	cmp    $0x10,%r14
  6c6343:	77 09                	ja     6c634e <_ZN11__sanitizer20SizeClassAllocator32INS_4AP32EE16PopulateFreeListEPNS_14AllocatorStatsEPNS_30SizeClassAllocator32LocalCacheIS2_EEPNS2_13SizeClassInfoEm+0xae>
  6c6345:	4d 89 f1             	mov    %r14,%r9
  6c6348:	49 c1 e1 04          	shl    $0x4,%r9
  6c634c:	eb 24                	jmp    6c6372 <_ZN11__sanitizer20SizeClassAllocator32INS_4AP32EE16PopulateFreeListEPNS_14AllocatorStatsEPNS_30SizeClassAllocator32LocalCacheIS2_EEPNS2_13SizeClassInfoEm+0xd2>
  6c634e:	41 8d 4e f0          	lea    -0x10(%r14),%ecx
  6c6352:	c1 e9 02             	shr    $0x2,%ecx
  6c6355:	b8 00 01 00 00       	mov    $0x100,%eax
  6c635a:	48 d3 e0             	shl    %cl,%rax
  6c635d:	48 89 c1             	mov    %rax,%rcx
  6c6360:	48 c1 e9 02          	shr    $0x2,%rcx
  6c6364:	45 89 f1             	mov    %r14d,%r9d
  6c6367:	41 83 e1 03          	and    $0x3,%r9d
  6c636b:	4c 0f af c9          	imul   %rcx,%r9
  6c636f:	49 01 c1             	add    %rax,%r9
  6c6372:	4d 85 c9             	test   %r9,%r9
  6c6375:	0f 84 be 0a 00 00    	je     6c6e39 <_ZN11__sanitizer20SizeClassAllocator32INS_4AP32EE16PopulateFreeListEPNS_14AllocatorStatsEPNS_30SizeClassAllocator32LocalCacheIS2_EEPNS2_13SizeClassInfoEm+0xb99>
  6c637b:	b8 00 40 00 00       	mov    $0x4000,%eax
  6c6380:	31 d2                	xor    %edx,%edx
  6c6382:	41 f7 f1             	div    %r9d
  6c6385:	83 f8 40             	cmp    $0x40,%eax
  6c6388:	b9 40 00 00 00       	mov    $0x40,%ecx
  6c638d:	48 0f 42 c8          	cmovb  %rax,%rcx
  6c6391:	48 85 c9             	test   %rcx,%rcx
  6c6394:	b8 01 00 00 00       	mov    $0x1,%eax
  6c6399:	48 0f 45 c1          	cmovne %rcx,%rax
  6c639d:	48 83 f8 3e          	cmp    $0x3e,%rax
  6c63a1:	be 3e 00 00 00       	mov    $0x3e,%esi
  6c63a6:	48 0f 42 f0          	cmovb  %rax,%rsi
  6c63aa:	ba 00 00 10 00       	mov    $0x100000,%edx
  6c63af:	49 81 f9 00 00 10 00 	cmp    $0x100000,%r9
  6c63b6:	77 0a                	ja     6c63c2 <_ZN11__sanitizer20SizeClassAllocator32INS_4AP32EE16PopulateFreeListEPNS_14AllocatorStatsEPNS_30SizeClassAllocator32LocalCacheIS2_EEPNS2_13SizeClassInfoEm+0x122>
  6c63b8:	b8 00 00 10 00       	mov    $0x100000,%eax
  6c63bd:	31 d2                	xor    %edx,%edx
  6c63bf:	41 f7 f1             	div    %r9d
  6c63c2:	48 f7 da             	neg    %rdx
  6c63c5:	4d 8d 14 14          	lea    (%r12,%rdx,1),%r10
  6c63c9:	49 81 c2 00 00 10 00 	add    $0x100000,%r10
  6c63d0:	b0 01                	mov    $0x1,%al
  6c63d2:	4d 39 e2             	cmp    %r12,%r10
  6c63d5:	0f 86 e5 09 00 00    	jbe    6c6dc0 <_ZN11__sanitizer20SizeClassAllocator32INS_4AP32EE16PopulateFreeListEPNS_14AllocatorStatsEPNS_30SizeClassAllocator32LocalCacheIS2_EEPNS2_13SizeClassInfoEm+0xb20>
  6c63db:	4c 89 f0             	mov    %r14,%rax
  6c63de:	48 c1 e0 0a          	shl    $0xa,%rax
  6c63e2:	48 8b 4c 24 10       	mov    0x10(%rsp),%rcx
  6c63e7:	4c 8d 1c 01          	lea    (%rcx,%rax,1),%r11
  6c63eb:	49 83 c3 18          	add    $0x18,%r11
  6c63ef:	45 31 c0             	xor    %r8d,%r8d
  6c63f2:	31 c0                	xor    %eax,%eax
  6c63f4:	4c 89 64 24 40       	mov    %r12,0x40(%rsp)
  6c63f9:	4b 8d 1c 0c          	lea    (%r12,%r9,1),%rbx
  6c63fd:	4c 39 d3             	cmp    %r10,%rbx
  6c6400:	0f 83 be 08 00 00    	jae    6c6cc4 <_ZN11__sanitizer20SizeClassAllocator32INS_4AP32EE16PopulateFreeListEPNS_14AllocatorStatsEPNS_30SizeClassAllocator32LocalCacheIS2_EEPNS2_13SizeClassInfoEm+0xa24>
  6c6406:	48 89 5c 24 48       	mov    %rbx,0x48(%rsp)
  6c640b:	4c 01 cb             	add    %r9,%rbx
  6c640e:	4c 39 d3             	cmp    %r10,%rbx
  6c6411:	0f 83 f0 04 00 00    	jae    6c6907 <_ZN11__sanitizer20SizeClassAllocator32INS_4AP32EE16PopulateFreeListEPNS_14AllocatorStatsEPNS_30SizeClassAllocator32LocalCacheIS2_EEPNS2_13SizeClassInfoEm+0x667>
  6c6417:	48 89 5c 24 50       	mov    %rbx,0x50(%rsp)
  6c641c:	4c 01 cb             	add    %r9,%rbx
  6c641f:	4c 39 d3             	cmp    %r10,%rbx
  6c6422:	0f 83 f5 04 00 00    	jae    6c691d <_ZN11__sanitizer20SizeClassAllocator32INS_4AP32EE16PopulateFreeListEPNS_14AllocatorStatsEPNS_30SizeClassAllocator32LocalCacheIS2_EEPNS2_13SizeClassInfoEm+0x67d>
  6c6428:	48 89 5c 24 58       	mov    %rbx,0x58(%rsp)
  6c642d:	4c 01 cb             	add    %r9,%rbx
  6c6430:	4c 39 d3             	cmp    %r10,%rbx
  6c6433:	0f 83 fa 04 00 00    	jae    6c6933 <_ZN11__sanitizer20SizeClassAllocator32INS_4AP32EE16PopulateFreeListEPNS_14AllocatorStatsEPNS_30SizeClassAllocator32LocalCacheIS2_EEPNS2_13SizeClassInfoEm+0x693>
  6c6439:	48 89 5c 24 60       	mov    %rbx,0x60(%rsp)
  6c643e:	4c 01 cb             	add    %r9,%rbx
  6c6441:	4c 39 d3             	cmp    %r10,%rbx
  6c6444:	0f 83 ff 04 00 00    	jae    6c6949 <_ZN11__sanitizer20SizeClassAllocator32INS_4AP32EE16PopulateFreeListEPNS_14AllocatorStatsEPNS_30SizeClassAllocator32LocalCacheIS2_EEPNS2_13SizeClassInfoEm+0x6a9>
  6c644a:	48 89 5c 24 68       	mov    %rbx,0x68(%rsp)
  6c644f:	4c 01 cb             	add    %r9,%rbx
  6c6452:	4c 39 d3             	cmp    %r10,%rbx
  6c6455:	0f 83 04 05 00 00    	jae    6c695f <_ZN11__sanitizer20SizeClassAllocator32INS_4AP32EE16PopulateFreeListEPNS_14AllocatorStatsEPNS_30SizeClassAllocator32LocalCacheIS2_EEPNS2_13SizeClassInfoEm+0x6bf>
  6c645b:	48 89 5c 24 70       	mov    %rbx,0x70(%rsp)
  6c6460:	4c 01 cb             	add    %r9,%rbx
  6c6463:	4c 39 d3             	cmp    %r10,%rbx
  6c6466:	0f 83 09 05 00 00    	jae    6c6975 <_ZN11__sanitizer20SizeClassAllocator32INS_4AP32EE16PopulateFreeListEPNS_14AllocatorStatsEPNS_30SizeClassAllocator32LocalCacheIS2_EEPNS2_13SizeClassInfoEm+0x6d5>
  6c646c:	48 89 5c 24 78       	mov    %rbx,0x78(%rsp)
  6c6471:	4c 01 cb             	add    %r9,%rbx
  6c6474:	4c 39 d3             	cmp    %r10,%rbx
  6c6477:	0f 83 0e 05 00 00    	jae    6c698b <_ZN11__sanitizer20SizeClassAllocator32INS_4AP32EE16PopulateFreeListEPNS_14AllocatorStatsEPNS_30SizeClassAllocator32LocalCacheIS2_EEPNS2_13SizeClassInfoEm+0x6eb>
  6c647d:	48 89 9c 24 80 00 00 	mov    %rbx,0x80(%rsp)
  6c6484:	00 
  6c6485:	4c 01 cb             	add    %r9,%rbx
  6c6488:	4c 39 d3             	cmp    %r10,%rbx
  6c648b:	0f 83 10 05 00 00    	jae    6c69a1 <_ZN11__sanitizer20SizeClassAllocator32INS_4AP32EE16PopulateFreeListEPNS_14AllocatorStatsEPNS_30SizeClassAllocator32LocalCacheIS2_EEPNS2_13SizeClassInfoEm+0x701>
  6c6491:	48 89 9c 24 88 00 00 	mov    %rbx,0x88(%rsp)
  6c6498:	00 
  6c6499:	4c 01 cb             	add    %r9,%rbx
  6c649c:	4c 39 d3             	cmp    %r10,%rbx
  6c649f:	0f 83 12 05 00 00    	jae    6c69b7 <_ZN11__sanitizer20SizeClassAllocator32INS_4AP32EE16PopulateFreeListEPNS_14AllocatorStatsEPNS_30SizeClassAllocator32LocalCacheIS2_EEPNS2_13SizeClassInfoEm+0x717>
  6c64a5:	48 89 9c 24 90 00 00 	mov    %rbx,0x90(%rsp)
  6c64ac:	00 
  6c64ad:	4c 01 cb             	add    %r9,%rbx
  6c64b0:	4c 39 d3             	cmp    %r10,%rbx
  6c64b3:	0f 83 14 05 00 00    	jae    6c69cd <_ZN11__sanitizer20SizeClassAllocator32INS_4AP32EE16PopulateFreeListEPNS_14AllocatorStatsEPNS_30SizeClassAllocator32LocalCacheIS2_EEPNS2_13SizeClassInfoEm+0x72d>
  6c64b9:	48 89 9c 24 98 00 00 	mov    %rbx,0x98(%rsp)
  6c64c0:	00 
  6c64c1:	4c 01 cb             	add    %r9,%rbx
  6c64c4:	4c 39 d3             	cmp    %r10,%rbx
  6c64c7:	0f 83 16 05 00 00    	jae    6c69e3 <_ZN11__sanitizer20SizeClassAllocator32INS_4AP32EE16PopulateFreeListEPNS_14AllocatorStatsEPNS_30SizeClassAllocator32LocalCacheIS2_EEPNS2_13SizeClassInfoEm+0x743>
  6c64cd:	48 89 9c 24 a0 00 00 	mov    %rbx,0xa0(%rsp)
  6c64d4:	00 
  6c64d5:	4c 01 cb             	add    %r9,%rbx
  6c64d8:	4c 39 d3             	cmp    %r10,%rbx
  6c64db:	0f 83 18 05 00 00    	jae    6c69f9 <_ZN11__sanitizer20SizeClassAllocator32INS_4AP32EE16PopulateFreeListEPNS_14AllocatorStatsEPNS_30SizeClassAllocator32LocalCacheIS2_EEPNS2_13SizeClassInfoEm+0x759>
  6c64e1:	48 89 9c 24 a8 00 00 	mov    %rbx,0xa8(%rsp)
  6c64e8:	00 
  6c64e9:	4c 01 cb             	add    %r9,%rbx
  6c64ec:	4c 39 d3             	cmp    %r10,%rbx
  6c64ef:	0f 83 1a 05 00 00    	jae    6c6a0f <_ZN11__sanitizer20SizeClassAllocator32INS_4AP32EE16PopulateFreeListEPNS_14AllocatorStatsEPNS_30SizeClassAllocator32LocalCacheIS2_EEPNS2_13SizeClassInfoEm+0x76f>
  6c64f5:	48 89 9c 24 b0 00 00 	mov    %rbx,0xb0(%rsp)
  6c64fc:	00 
  6c64fd:	4c 01 cb             	add    %r9,%rbx
  6c6500:	4c 39 d3             	cmp    %r10,%rbx
  6c6503:	0f 83 1c 05 00 00    	jae    6c6a25 <_ZN11__sanitizer20SizeClassAllocator32INS_4AP32EE16PopulateFreeListEPNS_14AllocatorStatsEPNS_30SizeClassAllocator32LocalCacheIS2_EEPNS2_13SizeClassInfoEm+0x785>
  6c6509:	48 89 9c 24 b8 00 00 	mov    %rbx,0xb8(%rsp)
  6c6510:	00 
  6c6511:	4c 01 cb             	add    %r9,%rbx
  6c6514:	4c 39 d3             	cmp    %r10,%rbx
  6c6517:	0f 83 1e 05 00 00    	jae    6c6a3b <_ZN11__sanitizer20SizeClassAllocator32INS_4AP32EE16PopulateFreeListEPNS_14AllocatorStatsEPNS_30SizeClassAllocator32LocalCacheIS2_EEPNS2_13SizeClassInfoEm+0x79b>
  6c651d:	48 89 9c 24 c0 00 00 	mov    %rbx,0xc0(%rsp)
  6c6524:	00 
  6c6525:	4c 01 cb             	add    %r9,%rbx
  6c6528:	4c 39 d3             	cmp    %r10,%rbx
  6c652b:	0f 83 20 05 00 00    	jae    6c6a51 <_ZN11__sanitizer20SizeClassAllocator32INS_4AP32EE16PopulateFreeListEPNS_14AllocatorStatsEPNS_30SizeClassAllocator32LocalCacheIS2_EEPNS2_13SizeClassInfoEm+0x7b1>
  6c6531:	48 89 9c 24 c8 00 00 	mov    %rbx,0xc8(%rsp)
  6c6538:	00 
  6c6539:	4c 01 cb             	add    %r9,%rbx
  6c653c:	4c 39 d3             	cmp    %r10,%rbx
  6c653f:	0f 83 22 05 00 00    	jae    6c6a67 <_ZN11__sanitizer20SizeClassAllocator32INS_4AP32EE16PopulateFreeListEPNS_14AllocatorStatsEPNS_30SizeClassAllocator32LocalCacheIS2_EEPNS2_13SizeClassInfoEm+0x7c7>
  6c6545:	48 89 9c 24 d0 00 00 	mov    %rbx,0xd0(%rsp)
  6c654c:	00 
  6c654d:	4c 01 cb             	add    %r9,%rbx
  6c6550:	4c 39 d3             	cmp    %r10,%rbx
  6c6553:	0f 83 24 05 00 00    	jae    6c6a7d <_ZN11__sanitizer20SizeClassAllocator32INS_4AP32EE16PopulateFreeListEPNS_14AllocatorStatsEPNS_30SizeClassAllocator32LocalCacheIS2_EEPNS2_13SizeClassInfoEm+0x7dd>
  6c6559:	48 89 9c 24 d8 00 00 	mov    %rbx,0xd8(%rsp)
  6c6560:	00 
  6c6561:	4c 01 cb             	add    %r9,%rbx
  6c6564:	4c 39 d3             	cmp    %r10,%rbx
  6c6567:	0f 83 26 05 00 00    	jae    6c6a93 <_ZN11__sanitizer20SizeClassAllocator32INS_4AP32EE16PopulateFreeListEPNS_14AllocatorStatsEPNS_30SizeClassAllocator32LocalCacheIS2_EEPNS2_13SizeClassInfoEm+0x7f3>
  6c656d:	48 89 9c 24 e0 00 00 	mov    %rbx,0xe0(%rsp)
  6c6574:	00 
  6c6575:	4c 01 cb             	add    %r9,%rbx
  6c6578:	4c 39 d3             	cmp    %r10,%rbx
  6c657b:	0f 83 28 05 00 00    	jae    6c6aa9 <_ZN11__sanitizer20SizeClassAllocator32INS_4AP32EE16PopulateFreeListEPNS_14AllocatorStatsEPNS_30SizeClassAllocator32LocalCacheIS2_EEPNS2_13SizeClassInfoEm+0x809>
  6c6581:	48 89 9c 24 e8 00 00 	mov    %rbx,0xe8(%rsp)
  6c6588:	00 
  6c6589:	4c 01 cb             	add    %r9,%rbx
  6c658c:	4c 39 d3             	cmp    %r10,%rbx
  6c658f:	0f 83 2a 05 00 00    	jae    6c6abf <_ZN11__sanitizer20SizeClassAllocator32INS_4AP32EE16PopulateFreeListEPNS_14AllocatorStatsEPNS_30SizeClassAllocator32LocalCacheIS2_EEPNS2_13SizeClassInfoEm+0x81f>
  6c6595:	48 89 9c 24 f0 00 00 	mov    %rbx,0xf0(%rsp)
  6c659c:	00 
  6c659d:	4c 01 cb             	add    %r9,%rbx
  6c65a0:	4c 39 d3             	cmp    %r10,%rbx
  6c65a3:	0f 83 2c 05 00 00    	jae    6c6ad5 <_ZN11__sanitizer20SizeClassAllocator32INS_4AP32EE16PopulateFreeListEPNS_14AllocatorStatsEPNS_30SizeClassAllocator32LocalCacheIS2_EEPNS2_13SizeClassInfoEm+0x835>
  6c65a9:	48 89 9c 24 f8 00 00 	mov    %rbx,0xf8(%rsp)
  6c65b0:	00 
  6c65b1:	4c 01 cb             	add    %r9,%rbx
  6c65b4:	4c 39 d3             	cmp    %r10,%rbx
  6c65b7:	0f 83 2e 05 00 00    	jae    6c6aeb <_ZN11__sanitizer20SizeClassAllocator32INS_4AP32EE16PopulateFreeListEPNS_14AllocatorStatsEPNS_30SizeClassAllocator32LocalCacheIS2_EEPNS2_13SizeClassInfoEm+0x84b>
  6c65bd:	48 89 9c 24 00 01 00 	mov    %rbx,0x100(%rsp)
  6c65c4:	00 
  6c65c5:	4c 01 cb             	add    %r9,%rbx
  6c65c8:	4c 39 d3             	cmp    %r10,%rbx
  6c65cb:	0f 83 30 05 00 00    	jae    6c6b01 <_ZN11__sanitizer20SizeClassAllocator32INS_4AP32EE16PopulateFreeListEPNS_14AllocatorStatsEPNS_30SizeClassAllocator32LocalCacheIS2_EEPNS2_13SizeClassInfoEm+0x861>
  6c65d1:	48 89 9c 24 08 01 00 	mov    %rbx,0x108(%rsp)
  6c65d8:	00 
  6c65d9:	4c 01 cb             	add    %r9,%rbx
  6c65dc:	4c 39 d3             	cmp    %r10,%rbx
  6c65df:	0f 83 32 05 00 00    	jae    6c6b17 <_ZN11__sanitizer20SizeClassAllocator32INS_4AP32EE16PopulateFreeListEPNS_14AllocatorStatsEPNS_30SizeClassAllocator32LocalCacheIS2_EEPNS2_13SizeClassInfoEm+0x877>
  6c65e5:	48 89 9c 24 10 01 00 	mov    %rbx,0x110(%rsp)
  6c65ec:	00 
  6c65ed:	4c 01 cb             	add    %r9,%rbx
  6c65f0:	4c 39 d3             	cmp    %r10,%rbx
  6c65f3:	0f 83 34 05 00 00    	jae    6c6b2d <_ZN11__sanitizer20SizeClassAllocator32INS_4AP32EE16PopulateFreeListEPNS_14AllocatorStatsEPNS_30SizeClassAllocator32LocalCacheIS2_EEPNS2_13SizeClassInfoEm+0x88d>
  6c65f9:	48 89 9c 24 18 01 00 	mov    %rbx,0x118(%rsp)
  6c6600:	00 
  6c6601:	4c 01 cb             	add    %r9,%rbx
  6c6604:	4c 39 d3             	cmp    %r10,%rbx
  6c6607:	0f 83 36 05 00 00    	jae    6c6b43 <_ZN11__sanitizer20SizeClassAllocator32INS_4AP32EE16PopulateFreeListEPNS_14AllocatorStatsEPNS_30SizeClassAllocator32LocalCacheIS2_EEPNS2_13SizeClassInfoEm+0x8a3>
  6c660d:	48 89 9c 24 20 01 00 	mov    %rbx,0x120(%rsp)
  6c6614:	00 
  6c6615:	4c 01 cb             	add    %r9,%rbx
  6c6618:	4c 39 d3             	cmp    %r10,%rbx
  6c661b:	0f 83 38 05 00 00    	jae    6c6b59 <_ZN11__sanitizer20SizeClassAllocator32INS_4AP32EE16PopulateFreeListEPNS_14AllocatorStatsEPNS_30SizeClassAllocator32LocalCacheIS2_EEPNS2_13SizeClassInfoEm+0x8b9>
  6c6621:	48 89 9c 24 28 01 00 	mov    %rbx,0x128(%rsp)
  6c6628:	00 
  6c6629:	4c 01 cb             	add    %r9,%rbx
  6c662c:	4c 39 d3             	cmp    %r10,%rbx
  6c662f:	0f 83 3a 05 00 00    	jae    6c6b6f <_ZN11__sanitizer20SizeClassAllocator32INS_4AP32EE16PopulateFreeListEPNS_14AllocatorStatsEPNS_30SizeClassAllocator32LocalCacheIS2_EEPNS2_13SizeClassInfoEm+0x8cf>
  6c6635:	48 89 9c 24 30 01 00 	mov    %rbx,0x130(%rsp)
  6c663c:	00 
  6c663d:	4c 01 cb             	add    %r9,%rbx
  6c6640:	4c 39 d3             	cmp    %r10,%rbx
  6c6643:	0f 83 3c 05 00 00    	jae    6c6b85 <_ZN11__sanitizer20SizeClassAllocator32INS_4AP32EE16PopulateFreeListEPNS_14AllocatorStatsEPNS_30SizeClassAllocator32LocalCacheIS2_EEPNS2_13SizeClassInfoEm+0x8e5>
  6c6649:	48 89 9c 24 38 01 00 	mov    %rbx,0x138(%rsp)
  6c6650:	00 
  6c6651:	4c 01 cb             	add    %r9,%rbx
  6c6654:	4c 39 d3             	cmp    %r10,%rbx
  6c6657:	0f 83 3e 05 00 00    	jae    6c6b9b <_ZN11__sanitizer20SizeClassAllocator32INS_4AP32EE16PopulateFreeListEPNS_14AllocatorStatsEPNS_30SizeClassAllocator32LocalCacheIS2_EEPNS2_13SizeClassInfoEm+0x8fb>
  6c665d:	48 89 9c 24 40 01 00 	mov    %rbx,0x140(%rsp)
  6c6664:	00 
  6c6665:	4c 01 cb             	add    %r9,%rbx
  6c6668:	4c 39 d3             	cmp    %r10,%rbx
  6c666b:	0f 83 40 05 00 00    	jae    6c6bb1 <_ZN11__sanitizer20SizeClassAllocator32INS_4AP32EE16PopulateFreeListEPNS_14AllocatorStatsEPNS_30SizeClassAllocator32LocalCacheIS2_EEPNS2_13SizeClassInfoEm+0x911>
  6c6671:	48 89 9c 24 48 01 00 	mov    %rbx,0x148(%rsp)
  6c6678:	00 
  6c6679:	4c 01 cb             	add    %r9,%rbx
  6c667c:	4c 39 d3             	cmp    %r10,%rbx
  6c667f:	0f 83 42 05 00 00    	jae    6c6bc7 <_ZN11__sanitizer20SizeClassAllocator32INS_4AP32EE16PopulateFreeListEPNS_14AllocatorStatsEPNS_30SizeClassAllocator32LocalCacheIS2_EEPNS2_13SizeClassInfoEm+0x927>
  6c6685:	48 89 9c 24 50 01 00 	mov    %rbx,0x150(%rsp)
  6c668c:	00 
  6c668d:	4c 01 cb             	add    %r9,%rbx
  6c6690:	4c 39 d3             	cmp    %r10,%rbx
  6c6693:	0f 83 44 05 00 00    	jae    6c6bdd <_ZN11__sanitizer20SizeClassAllocator32INS_4AP32EE16PopulateFreeListEPNS_14AllocatorStatsEPNS_30SizeClassAllocator32LocalCacheIS2_EEPNS2_13SizeClassInfoEm+0x93d>
  6c6699:	48 89 9c 24 58 01 00 	mov    %rbx,0x158(%rsp)
  6c66a0:	00 
  6c66a1:	4c 01 cb             	add    %r9,%rbx
  6c66a4:	4c 39 d3             	cmp    %r10,%rbx
  6c66a7:	0f 83 46 05 00 00    	jae    6c6bf3 <_ZN11__sanitizer20SizeClassAllocator32INS_4AP32EE16PopulateFreeListEPNS_14AllocatorStatsEPNS_30SizeClassAllocator32LocalCacheIS2_EEPNS2_13SizeClassInfoEm+0x953>
  6c66ad:	48 89 9c 24 60 01 00 	mov    %rbx,0x160(%rsp)
  6c66b4:	00 
  6c66b5:	4c 01 cb             	add    %r9,%rbx
  6c66b8:	4c 39 d3             	cmp    %r10,%rbx
  6c66bb:	0f 83 48 05 00 00    	jae    6c6c09 <_ZN11__sanitizer20SizeClassAllocator32INS_4AP32EE16PopulateFreeListEPNS_14AllocatorStatsEPNS_30SizeClassAllocator32LocalCacheIS2_EEPNS2_13SizeClassInfoEm+0x969>
  6c66c1:	48 89 9c 24 68 01 00 	mov    %rbx,0x168(%rsp)
  6c66c8:	00 
  6c66c9:	4c 01 cb             	add    %r9,%rbx
  6c66cc:	4c 39 d3             	cmp    %r10,%rbx
  6c66cf:	0f 83 4a 05 00 00    	jae    6c6c1f <_ZN11__sanitizer20SizeClassAllocator32INS_4AP32EE16PopulateFreeListEPNS_14AllocatorStatsEPNS_30SizeClassAllocator32LocalCacheIS2_EEPNS2_13SizeClassInfoEm+0x97f>
  6c66d5:	48 89 9c 24 70 01 00 	mov    %rbx,0x170(%rsp)
  6c66dc:	00 
  6c66dd:	4c 01 cb             	add    %r9,%rbx
  6c66e0:	4c 39 d3             	cmp    %r10,%rbx
  6c66e3:	0f 83 4c 05 00 00    	jae    6c6c35 <_ZN11__sanitizer20SizeClassAllocator32INS_4AP32EE16PopulateFreeListEPNS_14AllocatorStatsEPNS_30SizeClassAllocator32LocalCacheIS2_EEPNS2_13SizeClassInfoEm+0x995>
  6c66e9:	48 89 9c 24 78 01 00 	mov    %rbx,0x178(%rsp)
  6c66f0:	00 
  6c66f1:	4c 01 cb             	add    %r9,%rbx
  6c66f4:	4c 39 d3             	cmp    %r10,%rbx
  6c66f7:	0f 83 4e 05 00 00    	jae    6c6c4b <_ZN11__sanitizer20SizeClassAllocator32INS_4AP32EE16PopulateFreeListEPNS_14AllocatorStatsEPNS_30SizeClassAllocator32LocalCacheIS2_EEPNS2_13SizeClassInfoEm+0x9ab>
  6c66fd:	48 89 9c 24 80 01 00 	mov    %rbx,0x180(%rsp)
  6c6704:	00 
  6c6705:	4c 01 cb             	add    %r9,%rbx
  6c6708:	4c 39 d3             	cmp    %r10,%rbx
  6c670b:	0f 83 50 05 00 00    	jae    6c6c61 <_ZN11__sanitizer20SizeClassAllocator32INS_4AP32EE16PopulateFreeListEPNS_14AllocatorStatsEPNS_30SizeClassAllocator32LocalCacheIS2_EEPNS2_13SizeClassInfoEm+0x9c1>
  6c6711:	48 89 9c 24 88 01 00 	mov    %rbx,0x188(%rsp)
  6c6718:	00 
  6c6719:	4c 01 cb             	add    %r9,%rbx
  6c671c:	4c 39 d3             	cmp    %r10,%rbx
  6c671f:	0f 83 4e 05 00 00    	jae    6c6c73 <_ZN11__sanitizer20SizeClassAllocator32INS_4AP32EE16PopulateFreeListEPNS_14AllocatorStatsEPNS_30SizeClassAllocator32LocalCacheIS2_EEPNS2_13SizeClassInfoEm+0x9d3>
  6c6725:	48 89 9c 24 90 01 00 	mov    %rbx,0x190(%rsp)
  6c672c:	00 
  6c672d:	4c 01 cb             	add    %r9,%rbx
  6c6730:	4c 39 d3             	cmp    %r10,%rbx
  6c6733:	0f 83 49 05 00 00    	jae    6c6c82 <_ZN11__sanitizer20SizeClassAllocator32INS_4AP32EE16PopulateFreeListEPNS_14AllocatorStatsEPNS_30SizeClassAllocator32LocalCacheIS2_EEPNS2_13SizeClassInfoEm+0x9e2>
  6c6739:	48 89 9c 24 98 01 00 	mov    %rbx,0x198(%rsp)
  6c6740:	00 
  6c6741:	4c 01 cb             	add    %r9,%rbx
  6c6744:	4c 39 d3             	cmp    %r10,%rbx
  6c6747:	0f 83 44 05 00 00    	jae    6c6c91 <_ZN11__sanitizer20SizeClassAllocator32INS_4AP32EE16PopulateFreeListEPNS_14AllocatorStatsEPNS_30SizeClassAllocator32LocalCacheIS2_EEPNS2_13SizeClassInfoEm+0x9f1>
  6c674d:	48 89 9c 24 a0 01 00 	mov    %rbx,0x1a0(%rsp)
  6c6754:	00 
  6c6755:	4c 01 cb             	add    %r9,%rbx
  6c6758:	4c 39 d3             	cmp    %r10,%rbx
  6c675b:	0f 83 3f 05 00 00    	jae    6c6ca0 <_ZN11__sanitizer20SizeClassAllocator32INS_4AP32EE16PopulateFreeListEPNS_14AllocatorStatsEPNS_30SizeClassAllocator32LocalCacheIS2_EEPNS2_13SizeClassInfoEm+0xa00>
  6c6761:	48 89 9c 24 a8 01 00 	mov    %rbx,0x1a8(%rsp)
  6c6768:	00 
  6c6769:	4c 01 cb             	add    %r9,%rbx
  6c676c:	4c 39 d3             	cmp    %r10,%rbx
  6c676f:	0f 83 3a 05 00 00    	jae    6c6caf <_ZN11__sanitizer20SizeClassAllocator32INS_4AP32EE16PopulateFreeListEPNS_14AllocatorStatsEPNS_30SizeClassAllocator32LocalCacheIS2_EEPNS2_13SizeClassInfoEm+0xa0f>
  6c6775:	48 89 9c 24 b0 01 00 	mov    %rbx,0x1b0(%rsp)
  6c677c:	00 
  6c677d:	4c 01 cb             	add    %r9,%rbx
  6c6780:	4c 39 d3             	cmp    %r10,%rbx
  6c6783:	0f 83 35 05 00 00    	jae    6c6cbe <_ZN11__sanitizer20SizeClassAllocator32INS_4AP32EE16PopulateFreeListEPNS_14AllocatorStatsEPNS_30SizeClassAllocator32LocalCacheIS2_EEPNS2_13SizeClassInfoEm+0xa1e>
  6c6789:	4c 89 74 24 38       	mov    %r14,0x38(%rsp)
  6c678e:	48 89 9c 24 b8 01 00 	mov    %rbx,0x1b8(%rsp)
  6c6795:	00 
  6c6796:	41 be 01 00 00 00    	mov    $0x1,%r14d
  6c679c:	48 85 c0             	test   %rax,%rax
  6c679f:	74 1f                	je     6c67c0 <_ZN11__sanitizer20SizeClassAllocator32INS_4AP32EE16PopulateFreeListEPNS_14AllocatorStatsEPNS_30SizeClassAllocator32LocalCacheIS2_EEPNS2_13SizeClassInfoEm+0x520>
  6c67a1:	66 2e 0f 1f 84 00 00 	nopw   %cs:0x0(%rax,%rax,1)
  6c67a8:	00 00 00 
  6c67ab:	0f 1f 44 00 00       	nopl   0x0(%rax,%rax,1)
  6c67b0:	48 8b 48 08          	mov    0x8(%rax),%rcx
  6c67b4:	e9 7d 00 00 00       	jmpq   6c6836 <_ZN11__sanitizer20SizeClassAllocator32INS_4AP32EE16PopulateFreeListEPNS_14AllocatorStatsEPNS_30SizeClassAllocator32LocalCacheIS2_EEPNS2_13SizeClassInfoEm+0x596>
  6c67b9:	0f 1f 80 00 00 00 00 	nopl   0x0(%rax)
  6c67c0:	49 8b 0b             	mov    (%r11),%rcx
  6c67c3:	48 85 c9             	test   %rcx,%rcx
  6c67c6:	74 58                	je     6c6820 <_ZN11__sanitizer20SizeClassAllocator32INS_4AP32EE16PopulateFreeListEPNS_14AllocatorStatsEPNS_30SizeClassAllocator32LocalCacheIS2_EEPNS2_13SizeClassInfoEm+0x580>
  6c67c8:	48 83 f9 36          	cmp    $0x36,%rcx
  6c67cc:	0f 83 04 06 00 00    	jae    6c6dd6 <_ZN11__sanitizer20SizeClassAllocator32INS_4AP32EE16PopulateFreeListEPNS_14AllocatorStatsEPNS_30SizeClassAllocator32LocalCacheIS2_EEPNS2_13SizeClassInfoEm+0xb36>
  6c67d2:	48 8b 7c 24 10       	mov    0x10(%rsp),%rdi
  6c67d7:	49 89 cf             	mov    %rcx,%r15
  6c67da:	49 c1 e7 0a          	shl    $0xa,%r15
  6c67de:	4a 8d 2c 3f          	lea    (%rdi,%r15,1),%rbp
  6c67e2:	4a 8b 04 3f          	mov    (%rdi,%r15,1),%rax
  6c67e6:	48 85 c0             	test   %rax,%rax
  6c67e9:	0f 84 b1 00 00 00    	je     6c68a0 <_ZN11__sanitizer20SizeClassAllocator32INS_4AP32EE16PopulateFreeListEPNS_14AllocatorStatsEPNS_30SizeClassAllocator32LocalCacheIS2_EEPNS2_13SizeClassInfoEm+0x600>
  6c67ef:	48 8d 48 ff          	lea    -0x1(%rax),%rcx
  6c67f3:	48 89 4d 00          	mov    %rcx,0x0(%rbp)
  6c67f7:	48 8b 4c c5 10       	mov    0x10(%rbp,%rax,8),%rcx
  6c67fc:	48 8b 44 c5 18       	mov    0x18(%rbp,%rax,8),%rax
  6c6801:	0f 18 01             	prefetchnta (%rcx)
  6c6804:	4a 8b 4c 3f 10       	mov    0x10(%rdi,%r15,1),%rcx
  6c6809:	48 01 8f 10 d8 00 00 	add    %rcx,0xd810(%rdi)
  6c6810:	48 85 c0             	test   %rax,%rax
  6c6813:	75 17                	jne    6c682c <_ZN11__sanitizer20SizeClassAllocator32INS_4AP32EE16PopulateFreeListEPNS_14AllocatorStatsEPNS_30SizeClassAllocator32LocalCacheIS2_EEPNS2_13SizeClassInfoEm+0x58c>
  6c6815:	e9 b8 05 00 00       	jmpq   6c6dd2 <_ZN11__sanitizer20SizeClassAllocator32INS_4AP32EE16PopulateFreeListEPNS_14AllocatorStatsEPNS_30SizeClassAllocator32LocalCacheIS2_EEPNS2_13SizeClassInfoEm+0xb32>
  6c681a:	66 0f 1f 44 00 00    	nopw   0x0(%rax,%rax,1)
  6c6820:	4c 89 e0             	mov    %r12,%rax
  6c6823:	48 85 c0             	test   %rax,%rax
  6c6826:	0f 84 a6 05 00 00    	je     6c6dd2 <_ZN11__sanitizer20SizeClassAllocator32INS_4AP32EE16PopulateFreeListEPNS_14AllocatorStatsEPNS_30SizeClassAllocator32LocalCacheIS2_EEPNS2_13SizeClassInfoEm+0xb32>
  6c682c:	48 c7 40 08 00 00 00 	movq   $0x0,0x8(%rax)
  6c6833:	00 
  6c6834:	31 c9                	xor    %ecx,%ecx
  6c6836:	48 8d 51 01          	lea    0x1(%rcx),%rdx
  6c683a:	48 89 50 08          	mov    %rdx,0x8(%rax)
  6c683e:	4c 89 64 c8 10       	mov    %r12,0x10(%rax,%rcx,8)
  6c6843:	48 39 f2             	cmp    %rsi,%rdx
  6c6846:	75 3b                	jne    6c6883 <_ZN11__sanitizer20SizeClassAllocator32INS_4AP32EE16PopulateFreeListEPNS_14AllocatorStatsEPNS_30SizeClassAllocator32LocalCacheIS2_EEPNS2_13SizeClassInfoEm+0x5e3>
  6c6848:	49 8b 4d 08          	mov    0x8(%r13),%rcx
  6c684c:	48 c7 00 00 00 00 00 	movq   $0x0,(%rax)
  6c6853:	48 85 c9             	test   %rcx,%rcx
  6c6856:	74 18                	je     6c6870 <_ZN11__sanitizer20SizeClassAllocator32INS_4AP32EE16PopulateFreeListEPNS_14AllocatorStatsEPNS_30SizeClassAllocator32LocalCacheIS2_EEPNS2_13SizeClassInfoEm+0x5d0>
  6c6858:	49 8b 55 18          	mov    0x18(%r13),%rdx
  6c685c:	48 89 02             	mov    %rax,(%rdx)
  6c685f:	49 89 45 18          	mov    %rax,0x18(%r13)
  6c6863:	48 83 c1 01          	add    $0x1,%rcx
  6c6867:	eb 14                	jmp    6c687d <_ZN11__sanitizer20SizeClassAllocator32INS_4AP32EE16PopulateFreeListEPNS_14AllocatorStatsEPNS_30SizeClassAllocator32LocalCacheIS2_EEPNS2_13SizeClassInfoEm+0x5dd>
  6c6869:	0f 1f 80 00 00 00 00 	nopl   0x0(%rax)
  6c6870:	49 89 45 18          	mov    %rax,0x18(%r13)
  6c6874:	49 89 45 10          	mov    %rax,0x10(%r13)
  6c6878:	b9 01 00 00 00       	mov    $0x1,%ecx
  6c687d:	49 89 4d 08          	mov    %rcx,0x8(%r13)
  6c6881:	31 c0                	xor    %eax,%eax
  6c6883:	49 83 fe 30          	cmp    $0x30,%r14
  6c6887:	74 65                	je     6c68ee <_ZN11__sanitizer20SizeClassAllocator32INS_4AP32EE16PopulateFreeListEPNS_14AllocatorStatsEPNS_30SizeClassAllocator32LocalCacheIS2_EEPNS2_13SizeClassInfoEm+0x64e>
  6c6889:	4e 8b 64 f4 40       	mov    0x40(%rsp,%r14,8),%r12
  6c688e:	49 83 c6 01          	add    $0x1,%r14
  6c6892:	48 85 c0             	test   %rax,%rax
  6c6895:	0f 85 15 ff ff ff    	jne    6c67b0 <_ZN11__sanitizer20SizeClassAllocator32INS_4AP32EE16PopulateFreeListEPNS_14AllocatorStatsEPNS_30SizeClassAllocator32LocalCacheIS2_EEPNS2_13SizeClassInfoEm+0x510>
  6c689b:	e9 20 ff ff ff       	jmpq   6c67c0 <_ZN11__sanitizer20SizeClassAllocator32INS_4AP32EE16PopulateFreeListEPNS_14AllocatorStatsEPNS_30SizeClassAllocator32LocalCacheIS2_EEPNS2_13SizeClassInfoEm+0x520>
  6c68a0:	4c 89 5c 24 18       	mov    %r11,0x18(%rsp)
  6c68a5:	4c 89 54 24 20       	mov    %r10,0x20(%rsp)
  6c68aa:	4c 89 4c 24 28       	mov    %r9,0x28(%rsp)
  6c68af:	48 89 74 24 30       	mov    %rsi,0x30(%rsp)
  6c68b4:	48 89 ee             	mov    %rbp,%rsi
  6c68b7:	48 8b 54 24 08       	mov    0x8(%rsp),%rdx
  6c68bc:	e8 df f5 ff ff       	callq  6c5ea0 <_ZN11__sanitizer30SizeClassAllocator32LocalCacheINS_20SizeClassAllocator32INS_4AP32EEEE6RefillEPNS4_8PerClassEPS3_m>
  6c68c1:	84 c0                	test   %al,%al
  6c68c3:	0f 84 09 05 00 00    	je     6c6dd2 <_ZN11__sanitizer20SizeClassAllocator32INS_4AP32EE16PopulateFreeListEPNS_14AllocatorStatsEPNS_30SizeClassAllocator32LocalCacheIS2_EEPNS2_13SizeClassInfoEm+0xb32>
  6c68c9:	48 8b 45 00          	mov    0x0(%rbp),%rax
  6c68cd:	48 8b 7c 24 10       	mov    0x10(%rsp),%rdi
  6c68d2:	48 8b 74 24 30       	mov    0x30(%rsp),%rsi
  6c68d7:	45 31 c0             	xor    %r8d,%r8d
  6c68da:	4c 8b 4c 24 28       	mov    0x28(%rsp),%r9
  6c68df:	4c 8b 54 24 20       	mov    0x20(%rsp),%r10
  6c68e4:	4c 8b 5c 24 18       	mov    0x18(%rsp),%r11
  6c68e9:	e9 01 ff ff ff       	jmpq   6c67ef <_ZN11__sanitizer20SizeClassAllocator32INS_4AP32EE16PopulateFreeListEPNS_14AllocatorStatsEPNS_30SizeClassAllocator32LocalCacheIS2_EEPNS2_13SizeClassInfoEm+0x54f>
  6c68ee:	4c 01 cb             	add    %r9,%rbx
  6c68f1:	49 89 dc             	mov    %rbx,%r12
  6c68f4:	4c 39 d3             	cmp    %r10,%rbx
  6c68f7:	4c 8b 74 24 38       	mov    0x38(%rsp),%r14
  6c68fc:	0f 82 f2 fa ff ff    	jb     6c63f4 <_ZN11__sanitizer20SizeClassAllocator32INS_4AP32EE16PopulateFreeListEPNS_14AllocatorStatsEPNS_30SizeClassAllocator32LocalCacheIS2_EEPNS2_13SizeClassInfoEm+0x154>
  6c6902:	e9 75 04 00 00       	jmpq   6c6d7c <_ZN11__sanitizer20SizeClassAllocator32INS_4AP32EE16PopulateFreeListEPNS_14AllocatorStatsEPNS_30SizeClassAllocator32LocalCacheIS2_EEPNS2_13SizeClassInfoEm+0xadc>
  6c6907:	41 b8 01 00 00 00    	mov    $0x1,%r8d
  6c690d:	31 db                	xor    %ebx,%ebx
  6c690f:	48 85 c0             	test   %rax,%rax
  6c6912:	0f 85 c6 03 00 00    	jne    6c6cde <_ZN11__sanitizer20SizeClassAllocator32INS_4AP32EE16PopulateFreeListEPNS_14AllocatorStatsEPNS_30SizeClassAllocator32LocalCacheIS2_EEPNS2_13SizeClassInfoEm+0xa3e>
  6c6918:	e9 d3 03 00 00       	jmpq   6c6cf0 <_ZN11__sanitizer20SizeClassAllocator32INS_4AP32EE16PopulateFreeListEPNS_14AllocatorStatsEPNS_30SizeClassAllocator32LocalCacheIS2_EEPNS2_13SizeClassInfoEm+0xa50>
  6c691d:	41 b8 02 00 00 00    	mov    $0x2,%r8d
  6c6923:	31 db                	xor    %ebx,%ebx
  6c6925:	48 85 c0             	test   %rax,%rax
  6c6928:	0f 85 b0 03 00 00    	jne    6c6cde <_ZN11__sanitizer20SizeClassAllocator32INS_4AP32EE16PopulateFreeListEPNS_14AllocatorStatsEPNS_30SizeClassAllocator32LocalCacheIS2_EEPNS2_13SizeClassInfoEm+0xa3e>
  6c692e:	e9 bd 03 00 00       	jmpq   6c6cf0 <_ZN11__sanitizer20SizeClassAllocator32INS_4AP32EE16PopulateFreeListEPNS_14AllocatorStatsEPNS_30SizeClassAllocator32LocalCacheIS2_EEPNS2_13SizeClassInfoEm+0xa50>
  6c6933:	41 b8 03 00 00 00    	mov    $0x3,%r8d
  6c6939:	31 db                	xor    %ebx,%ebx
  6c693b:	48 85 c0             	test   %rax,%rax
  6c693e:	0f 85 9a 03 00 00    	jne    6c6cde <_ZN11__sanitizer20SizeClassAllocator32INS_4AP32EE16PopulateFreeListEPNS_14AllocatorStatsEPNS_30SizeClassAllocator32LocalCacheIS2_EEPNS2_13SizeClassInfoEm+0xa3e>
  6c6944:	e9 a7 03 00 00       	jmpq   6c6cf0 <_ZN11__sanitizer20SizeClassAllocator32INS_4AP32EE16PopulateFreeListEPNS_14AllocatorStatsEPNS_30SizeClassAllocator32LocalCacheIS2_EEPNS2_13SizeClassInfoEm+0xa50>
  6c6949:	41 b8 04 00 00 00    	mov    $0x4,%r8d
  6c694f:	31 db                	xor    %ebx,%ebx
  6c6951:	48 85 c0             	test   %rax,%rax
  6c6954:	0f 85 84 03 00 00    	jne    6c6cde <_ZN11__sanitizer20SizeClassAllocator32INS_4AP32EE16PopulateFreeListEPNS_14AllocatorStatsEPNS_30SizeClassAllocator32LocalCacheIS2_EEPNS2_13SizeClassInfoEm+0xa3e>
  6c695a:	e9 91 03 00 00       	jmpq   6c6cf0 <_ZN11__sanitizer20SizeClassAllocator32INS_4AP32EE16PopulateFreeListEPNS_14AllocatorStatsEPNS_30SizeClassAllocator32LocalCacheIS2_EEPNS2_13SizeClassInfoEm+0xa50>
  6c695f:	41 b8 05 00 00 00    	mov    $0x5,%r8d
  6c6965:	31 db                	xor    %ebx,%ebx
  6c6967:	48 85 c0             	test   %rax,%rax
  6c696a:	0f 85 6e 03 00 00    	jne    6c6cde <_ZN11__sanitizer20SizeClassAllocator32INS_4AP32EE16PopulateFreeListEPNS_14AllocatorStatsEPNS_30SizeClassAllocator32LocalCacheIS2_EEPNS2_13SizeClassInfoEm+0xa3e>
  6c6970:	e9 7b 03 00 00       	jmpq   6c6cf0 <_ZN11__sanitizer20SizeClassAllocator32INS_4AP32EE16PopulateFreeListEPNS_14AllocatorStatsEPNS_30SizeClassAllocator32LocalCacheIS2_EEPNS2_13SizeClassInfoEm+0xa50>
  6c6975:	41 b8 06 00 00 00    	mov    $0x6,%r8d
  6c697b:	31 db                	xor    %ebx,%ebx
  6c697d:	48 85 c0             	test   %rax,%rax
  6c6980:	0f 85 58 03 00 00    	jne    6c6cde <_ZN11__sanitizer20SizeClassAllocator32INS_4AP32EE16PopulateFreeListEPNS_14AllocatorStatsEPNS_30SizeClassAllocator32LocalCacheIS2_EEPNS2_13SizeClassInfoEm+0xa3e>
  6c6986:	e9 65 03 00 00       	jmpq   6c6cf0 <_ZN11__sanitizer20SizeClassAllocator32INS_4AP32EE16PopulateFreeListEPNS_14AllocatorStatsEPNS_30SizeClassAllocator32LocalCacheIS2_EEPNS2_13SizeClassInfoEm+0xa50>
  6c698b:	41 b8 07 00 00 00    	mov    $0x7,%r8d
  6c6991:	31 db                	xor    %ebx,%ebx
  6c6993:	48 85 c0             	test   %rax,%rax
  6c6996:	0f 85 42 03 00 00    	jne    6c6cde <_ZN11__sanitizer20SizeClassAllocator32INS_4AP32EE16PopulateFreeListEPNS_14AllocatorStatsEPNS_30SizeClassAllocator32LocalCacheIS2_EEPNS2_13SizeClassInfoEm+0xa3e>
  6c699c:	e9 4f 03 00 00       	jmpq   6c6cf0 <_ZN11__sanitizer20SizeClassAllocator32INS_4AP32EE16PopulateFreeListEPNS_14AllocatorStatsEPNS_30SizeClassAllocator32LocalCacheIS2_EEPNS2_13SizeClassInfoEm+0xa50>
  6c69a1:	41 b8 08 00 00 00    	mov    $0x8,%r8d
  6c69a7:	31 db                	xor    %ebx,%ebx
  6c69a9:	48 85 c0             	test   %rax,%rax
  6c69ac:	0f 85 2c 03 00 00    	jne    6c6cde <_ZN11__sanitizer20SizeClassAllocator32INS_4AP32EE16PopulateFreeListEPNS_14AllocatorStatsEPNS_30SizeClassAllocator32LocalCacheIS2_EEPNS2_13SizeClassInfoEm+0xa3e>
  6c69b2:	e9 39 03 00 00       	jmpq   6c6cf0 <_ZN11__sanitizer20SizeClassAllocator32INS_4AP32EE16PopulateFreeListEPNS_14AllocatorStatsEPNS_30SizeClassAllocator32LocalCacheIS2_EEPNS2_13SizeClassInfoEm+0xa50>
  6c69b7:	41 b8 09 00 00 00    	mov    $0x9,%r8d
  6c69bd:	31 db                	xor    %ebx,%ebx
  6c69bf:	48 85 c0             	test   %rax,%rax
  6c69c2:	0f 85 16 03 00 00    	jne    6c6cde <_ZN11__sanitizer20SizeClassAllocator32INS_4AP32EE16PopulateFreeListEPNS_14AllocatorStatsEPNS_30SizeClassAllocator32LocalCacheIS2_EEPNS2_13SizeClassInfoEm+0xa3e>
  6c69c8:	e9 23 03 00 00       	jmpq   6c6cf0 <_ZN11__sanitizer20SizeClassAllocator32INS_4AP32EE16PopulateFreeListEPNS_14AllocatorStatsEPNS_30SizeClassAllocator32LocalCacheIS2_EEPNS2_13SizeClassInfoEm+0xa50>
  6c69cd:	41 b8 0a 00 00 00    	mov    $0xa,%r8d
  6c69d3:	31 db                	xor    %ebx,%ebx
  6c69d5:	48 85 c0             	test   %rax,%rax
  6c69d8:	0f 85 00 03 00 00    	jne    6c6cde <_ZN11__sanitizer20SizeClassAllocator32INS_4AP32EE16PopulateFreeListEPNS_14AllocatorStatsEPNS_30SizeClassAllocator32LocalCacheIS2_EEPNS2_13SizeClassInfoEm+0xa3e>
  6c69de:	e9 0d 03 00 00       	jmpq   6c6cf0 <_ZN11__sanitizer20SizeClassAllocator32INS_4AP32EE16PopulateFreeListEPNS_14AllocatorStatsEPNS_30SizeClassAllocator32LocalCacheIS2_EEPNS2_13SizeClassInfoEm+0xa50>
  6c69e3:	41 b8 0b 00 00 00    	mov    $0xb,%r8d
  6c69e9:	31 db                	xor    %ebx,%ebx
  6c69eb:	48 85 c0             	test   %rax,%rax
  6c69ee:	0f 85 ea 02 00 00    	jne    6c6cde <_ZN11__sanitizer20SizeClassAllocator32INS_4AP32EE16PopulateFreeListEPNS_14AllocatorStatsEPNS_30SizeClassAllocator32LocalCacheIS2_EEPNS2_13SizeClassInfoEm+0xa3e>
  6c69f4:	e9 f7 02 00 00       	jmpq   6c6cf0 <_ZN11__sanitizer20SizeClassAllocator32INS_4AP32EE16PopulateFreeListEPNS_14AllocatorStatsEPNS_30SizeClassAllocator32LocalCacheIS2_EEPNS2_13SizeClassInfoEm+0xa50>
  6c69f9:	41 b8 0c 00 00 00    	mov    $0xc,%r8d
  6c69ff:	31 db                	xor    %ebx,%ebx
  6c6a01:	48 85 c0             	test   %rax,%rax
  6c6a04:	0f 85 d4 02 00 00    	jne    6c6cde <_ZN11__sanitizer20SizeClassAllocator32INS_4AP32EE16PopulateFreeListEPNS_14AllocatorStatsEPNS_30SizeClassAllocator32LocalCacheIS2_EEPNS2_13SizeClassInfoEm+0xa3e>
  6c6a0a:	e9 e1 02 00 00       	jmpq   6c6cf0 <_ZN11__sanitizer20SizeClassAllocator32INS_4AP32EE16PopulateFreeListEPNS_14AllocatorStatsEPNS_30SizeClassAllocator32LocalCacheIS2_EEPNS2_13SizeClassInfoEm+0xa50>
  6c6a0f:	41 b8 0d 00 00 00    	mov    $0xd,%r8d
  6c6a15:	31 db                	xor    %ebx,%ebx
  6c6a17:	48 85 c0             	test   %rax,%rax
  6c6a1a:	0f 85 be 02 00 00    	jne    6c6cde <_ZN11__sanitizer20SizeClassAllocator32INS_4AP32EE16PopulateFreeListEPNS_14AllocatorStatsEPNS_30SizeClassAllocator32LocalCacheIS2_EEPNS2_13SizeClassInfoEm+0xa3e>
  6c6a20:	e9 cb 02 00 00       	jmpq   6c6cf0 <_ZN11__sanitizer20SizeClassAllocator32INS_4AP32EE16PopulateFreeListEPNS_14AllocatorStatsEPNS_30SizeClassAllocator32LocalCacheIS2_EEPNS2_13SizeClassInfoEm+0xa50>
  6c6a25:	41 b8 0e 00 00 00    	mov    $0xe,%r8d
  6c6a2b:	31 db                	xor    %ebx,%ebx
  6c6a2d:	48 85 c0             	test   %rax,%rax
  6c6a30:	0f 85 a8 02 00 00    	jne    6c6cde <_ZN11__sanitizer20SizeClassAllocator32INS_4AP32EE16PopulateFreeListEPNS_14AllocatorStatsEPNS_30SizeClassAllocator32LocalCacheIS2_EEPNS2_13SizeClassInfoEm+0xa3e>
  6c6a36:	e9 b5 02 00 00       	jmpq   6c6cf0 <_ZN11__sanitizer20SizeClassAllocator32INS_4AP32EE16PopulateFreeListEPNS_14AllocatorStatsEPNS_30SizeClassAllocator32LocalCacheIS2_EEPNS2_13SizeClassInfoEm+0xa50>
  6c6a3b:	41 b8 0f 00 00 00    	mov    $0xf,%r8d
  6c6a41:	31 db                	xor    %ebx,%ebx
  6c6a43:	48 85 c0             	test   %rax,%rax
  6c6a46:	0f 85 92 02 00 00    	jne    6c6cde <_ZN11__sanitizer20SizeClassAllocator32INS_4AP32EE16PopulateFreeListEPNS_14AllocatorStatsEPNS_30SizeClassAllocator32LocalCacheIS2_EEPNS2_13SizeClassInfoEm+0xa3e>
  6c6a4c:	e9 9f 02 00 00       	jmpq   6c6cf0 <_ZN11__sanitizer20SizeClassAllocator32INS_4AP32EE16PopulateFreeListEPNS_14AllocatorStatsEPNS_30SizeClassAllocator32LocalCacheIS2_EEPNS2_13SizeClassInfoEm+0xa50>
  6c6a51:	41 b8 10 00 00 00    	mov    $0x10,%r8d
  6c6a57:	31 db                	xor    %ebx,%ebx
  6c6a59:	48 85 c0             	test   %rax,%rax
  6c6a5c:	0f 85 7c 02 00 00    	jne    6c6cde <_ZN11__sanitizer20SizeClassAllocator32INS_4AP32EE16PopulateFreeListEPNS_14AllocatorStatsEPNS_30SizeClassAllocator32LocalCacheIS2_EEPNS2_13SizeClassInfoEm+0xa3e>
  6c6a62:	e9 89 02 00 00       	jmpq   6c6cf0 <_ZN11__sanitizer20SizeClassAllocator32INS_4AP32EE16PopulateFreeListEPNS_14AllocatorStatsEPNS_30SizeClassAllocator32LocalCacheIS2_EEPNS2_13SizeClassInfoEm+0xa50>
  6c6a67:	41 b8 11 00 00 00    	mov    $0x11,%r8d
  6c6a6d:	31 db                	xor    %ebx,%ebx
  6c6a6f:	48 85 c0             	test   %rax,%rax
  6c6a72:	0f 85 66 02 00 00    	jne    6c6cde <_ZN11__sanitizer20SizeClassAllocator32INS_4AP32EE16PopulateFreeListEPNS_14AllocatorStatsEPNS_30SizeClassAllocator32LocalCacheIS2_EEPNS2_13SizeClassInfoEm+0xa3e>
  6c6a78:	e9 73 02 00 00       	jmpq   6c6cf0 <_ZN11__sanitizer20SizeClassAllocator32INS_4AP32EE16PopulateFreeListEPNS_14AllocatorStatsEPNS_30SizeClassAllocator32LocalCacheIS2_EEPNS2_13SizeClassInfoEm+0xa50>
  6c6a7d:	41 b8 12 00 00 00    	mov    $0x12,%r8d
  6c6a83:	31 db                	xor    %ebx,%ebx
  6c6a85:	48 85 c0             	test   %rax,%rax
  6c6a88:	0f 85 50 02 00 00    	jne    6c6cde <_ZN11__sanitizer20SizeClassAllocator32INS_4AP32EE16PopulateFreeListEPNS_14AllocatorStatsEPNS_30SizeClassAllocator32LocalCacheIS2_EEPNS2_13SizeClassInfoEm+0xa3e>
  6c6a8e:	e9 5d 02 00 00       	jmpq   6c6cf0 <_ZN11__sanitizer20SizeClassAllocator32INS_4AP32EE16PopulateFreeListEPNS_14AllocatorStatsEPNS_30SizeClassAllocator32LocalCacheIS2_EEPNS2_13SizeClassInfoEm+0xa50>
  6c6a93:	41 b8 13 00 00 00    	mov    $0x13,%r8d
  6c6a99:	31 db                	xor    %ebx,%ebx
  6c6a9b:	48 85 c0             	test   %rax,%rax
  6c6a9e:	0f 85 3a 02 00 00    	jne    6c6cde <_ZN11__sanitizer20SizeClassAllocator32INS_4AP32EE16PopulateFreeListEPNS_14AllocatorStatsEPNS_30SizeClassAllocator32LocalCacheIS2_EEPNS2_13SizeClassInfoEm+0xa3e>
  6c6aa4:	e9 47 02 00 00       	jmpq   6c6cf0 <_ZN11__sanitizer20SizeClassAllocator32INS_4AP32EE16PopulateFreeListEPNS_14AllocatorStatsEPNS_30SizeClassAllocator32LocalCacheIS2_EEPNS2_13SizeClassInfoEm+0xa50>
  6c6aa9:	41 b8 14 00 00 00    	mov    $0x14,%r8d
  6c6aaf:	31 db                	xor    %ebx,%ebx
  6c6ab1:	48 85 c0             	test   %rax,%rax
  6c6ab4:	0f 85 24 02 00 00    	jne    6c6cde <_ZN11__sanitizer20SizeClassAllocator32INS_4AP32EE16PopulateFreeListEPNS_14AllocatorStatsEPNS_30SizeClassAllocator32LocalCacheIS2_EEPNS2_13SizeClassInfoEm+0xa3e>
  6c6aba:	e9 31 02 00 00       	jmpq   6c6cf0 <_ZN11__sanitizer20SizeClassAllocator32INS_4AP32EE16PopulateFreeListEPNS_14AllocatorStatsEPNS_30SizeClassAllocator32LocalCacheIS2_EEPNS2_13SizeClassInfoEm+0xa50>
  6c6abf:	41 b8 15 00 00 00    	mov    $0x15,%r8d
  6c6ac5:	31 db                	xor    %ebx,%ebx
  6c6ac7:	48 85 c0             	test   %rax,%rax
  6c6aca:	0f 85 0e 02 00 00    	jne    6c6cde <_ZN11__sanitizer20SizeClassAllocator32INS_4AP32EE16PopulateFreeListEPNS_14AllocatorStatsEPNS_30SizeClassAllocator32LocalCacheIS2_EEPNS2_13SizeClassInfoEm+0xa3e>
  6c6ad0:	e9 1b 02 00 00       	jmpq   6c6cf0 <_ZN11__sanitizer20SizeClassAllocator32INS_4AP32EE16PopulateFreeListEPNS_14AllocatorStatsEPNS_30SizeClassAllocator32LocalCacheIS2_EEPNS2_13SizeClassInfoEm+0xa50>
  6c6ad5:	41 b8 16 00 00 00    	mov    $0x16,%r8d
  6c6adb:	31 db                	xor    %ebx,%ebx
  6c6add:	48 85 c0             	test   %rax,%rax
  6c6ae0:	0f 85 f8 01 00 00    	jne    6c6cde <_ZN11__sanitizer20SizeClassAllocator32INS_4AP32EE16PopulateFreeListEPNS_14AllocatorStatsEPNS_30SizeClassAllocator32LocalCacheIS2_EEPNS2_13SizeClassInfoEm+0xa3e>
  6c6ae6:	e9 05 02 00 00       	jmpq   6c6cf0 <_ZN11__sanitizer20SizeClassAllocator32INS_4AP32EE16PopulateFreeListEPNS_14AllocatorStatsEPNS_30SizeClassAllocator32LocalCacheIS2_EEPNS2_13SizeClassInfoEm+0xa50>
  6c6aeb:	41 b8 17 00 00 00    	mov    $0x17,%r8d
  6c6af1:	31 db                	xor    %ebx,%ebx
  6c6af3:	48 85 c0             	test   %rax,%rax
  6c6af6:	0f 85 e2 01 00 00    	jne    6c6cde <_ZN11__sanitizer20SizeClassAllocator32INS_4AP32EE16PopulateFreeListEPNS_14AllocatorStatsEPNS_30SizeClassAllocator32LocalCacheIS2_EEPNS2_13SizeClassInfoEm+0xa3e>
  6c6afc:	e9 ef 01 00 00       	jmpq   6c6cf0 <_ZN11__sanitizer20SizeClassAllocator32INS_4AP32EE16PopulateFreeListEPNS_14AllocatorStatsEPNS_30SizeClassAllocator32LocalCacheIS2_EEPNS2_13SizeClassInfoEm+0xa50>
  6c6b01:	41 b8 18 00 00 00    	mov    $0x18,%r8d
  6c6b07:	31 db                	xor    %ebx,%ebx
  6c6b09:	48 85 c0             	test   %rax,%rax
  6c6b0c:	0f 85 cc 01 00 00    	jne    6c6cde <_ZN11__sanitizer20SizeClassAllocator32INS_4AP32EE16PopulateFreeListEPNS_14AllocatorStatsEPNS_30SizeClassAllocator32LocalCacheIS2_EEPNS2_13SizeClassInfoEm+0xa3e>
  6c6b12:	e9 d9 01 00 00       	jmpq   6c6cf0 <_ZN11__sanitizer20SizeClassAllocator32INS_4AP32EE16PopulateFreeListEPNS_14AllocatorStatsEPNS_30SizeClassAllocator32LocalCacheIS2_EEPNS2_13SizeClassInfoEm+0xa50>
  6c6b17:	41 b8 19 00 00 00    	mov    $0x19,%r8d
  6c6b1d:	31 db                	xor    %ebx,%ebx
  6c6b1f:	48 85 c0             	test   %rax,%rax
  6c6b22:	0f 85 b6 01 00 00    	jne    6c6cde <_ZN11__sanitizer20SizeClassAllocator32INS_4AP32EE16PopulateFreeListEPNS_14AllocatorStatsEPNS_30SizeClassAllocator32LocalCacheIS2_EEPNS2_13SizeClassInfoEm+0xa3e>
  6c6b28:	e9 c3 01 00 00       	jmpq   6c6cf0 <_ZN11__sanitizer20SizeClassAllocator32INS_4AP32EE16PopulateFreeListEPNS_14AllocatorStatsEPNS_30SizeClassAllocator32LocalCacheIS2_EEPNS2_13SizeClassInfoEm+0xa50>
  6c6b2d:	41 b8 1a 00 00 00    	mov    $0x1a,%r8d
  6c6b33:	31 db                	xor    %ebx,%ebx
  6c6b35:	48 85 c0             	test   %rax,%rax
  6c6b38:	0f 85 a0 01 00 00    	jne    6c6cde <_ZN11__sanitizer20SizeClassAllocator32INS_4AP32EE16PopulateFreeListEPNS_14AllocatorStatsEPNS_30SizeClassAllocator32LocalCacheIS2_EEPNS2_13SizeClassInfoEm+0xa3e>
  6c6b3e:	e9 ad 01 00 00       	jmpq   6c6cf0 <_ZN11__sanitizer20SizeClassAllocator32INS_4AP32EE16PopulateFreeListEPNS_14AllocatorStatsEPNS_30SizeClassAllocator32LocalCacheIS2_EEPNS2_13SizeClassInfoEm+0xa50>
  6c6b43:	41 b8 1b 00 00 00    	mov    $0x1b,%r8d
  6c6b49:	31 db                	xor    %ebx,%ebx
  6c6b4b:	48 85 c0             	test   %rax,%rax
  6c6b4e:	0f 85 8a 01 00 00    	jne    6c6cde <_ZN11__sanitizer20SizeClassAllocator32INS_4AP32EE16PopulateFreeListEPNS_14AllocatorStatsEPNS_30SizeClassAllocator32LocalCacheIS2_EEPNS2_13SizeClassInfoEm+0xa3e>
  6c6b54:	e9 97 01 00 00       	jmpq   6c6cf0 <_ZN11__sanitizer20SizeClassAllocator32INS_4AP32EE16PopulateFreeListEPNS_14AllocatorStatsEPNS_30SizeClassAllocator32LocalCacheIS2_EEPNS2_13SizeClassInfoEm+0xa50>
  6c6b59:	41 b8 1c 00 00 00    	mov    $0x1c,%r8d
  6c6b5f:	31 db                	xor    %ebx,%ebx
  6c6b61:	48 85 c0             	test   %rax,%rax
  6c6b64:	0f 85 74 01 00 00    	jne    6c6cde <_ZN11__sanitizer20SizeClassAllocator32INS_4AP32EE16PopulateFreeListEPNS_14AllocatorStatsEPNS_30SizeClassAllocator32LocalCacheIS2_EEPNS2_13SizeClassInfoEm+0xa3e>
  6c6b6a:	e9 81 01 00 00       	jmpq   6c6cf0 <_ZN11__sanitizer20SizeClassAllocator32INS_4AP32EE16PopulateFreeListEPNS_14AllocatorStatsEPNS_30SizeClassAllocator32LocalCacheIS2_EEPNS2_13SizeClassInfoEm+0xa50>
  6c6b6f:	41 b8 1d 00 00 00    	mov    $0x1d,%r8d
  6c6b75:	31 db                	xor    %ebx,%ebx
  6c6b77:	48 85 c0             	test   %rax,%rax
  6c6b7a:	0f 85 5e 01 00 00    	jne    6c6cde <_ZN11__sanitizer20SizeClassAllocator32INS_4AP32EE16PopulateFreeListEPNS_14AllocatorStatsEPNS_30SizeClassAllocator32LocalCacheIS2_EEPNS2_13SizeClassInfoEm+0xa3e>
  6c6b80:	e9 6b 01 00 00       	jmpq   6c6cf0 <_ZN11__sanitizer20SizeClassAllocator32INS_4AP32EE16PopulateFreeListEPNS_14AllocatorStatsEPNS_30SizeClassAllocator32LocalCacheIS2_EEPNS2_13SizeClassInfoEm+0xa50>
  6c6b85:	41 b8 1e 00 00 00    	mov    $0x1e,%r8d
  6c6b8b:	31 db                	xor    %ebx,%ebx
  6c6b8d:	48 85 c0             	test   %rax,%rax
  6c6b90:	0f 85 48 01 00 00    	jne    6c6cde <_ZN11__sanitizer20SizeClassAllocator32INS_4AP32EE16PopulateFreeListEPNS_14AllocatorStatsEPNS_30SizeClassAllocator32LocalCacheIS2_EEPNS2_13SizeClassInfoEm+0xa3e>
  6c6b96:	e9 55 01 00 00       	jmpq   6c6cf0 <_ZN11__sanitizer20SizeClassAllocator32INS_4AP32EE16PopulateFreeListEPNS_14AllocatorStatsEPNS_30SizeClassAllocator32LocalCacheIS2_EEPNS2_13SizeClassInfoEm+0xa50>
  6c6b9b:	41 b8 1f 00 00 00    	mov    $0x1f,%r8d
  6c6ba1:	31 db                	xor    %ebx,%ebx
  6c6ba3:	48 85 c0             	test   %rax,%rax
  6c6ba6:	0f 85 32 01 00 00    	jne    6c6cde <_ZN11__sanitizer20SizeClassAllocator32INS_4AP32EE16PopulateFreeListEPNS_14AllocatorStatsEPNS_30SizeClassAllocator32LocalCacheIS2_EEPNS2_13SizeClassInfoEm+0xa3e>
  6c6bac:	e9 3f 01 00 00       	jmpq   6c6cf0 <_ZN11__sanitizer20SizeClassAllocator32INS_4AP32EE16PopulateFreeListEPNS_14AllocatorStatsEPNS_30SizeClassAllocator32LocalCacheIS2_EEPNS2_13SizeClassInfoEm+0xa50>
  6c6bb1:	41 b8 20 00 00 00    	mov    $0x20,%r8d
  6c6bb7:	31 db                	xor    %ebx,%ebx
  6c6bb9:	48 85 c0             	test   %rax,%rax
  6c6bbc:	0f 85 1c 01 00 00    	jne    6c6cde <_ZN11__sanitizer20SizeClassAllocator32INS_4AP32EE16PopulateFreeListEPNS_14AllocatorStatsEPNS_30SizeClassAllocator32LocalCacheIS2_EEPNS2_13SizeClassInfoEm+0xa3e>
  6c6bc2:	e9 29 01 00 00       	jmpq   6c6cf0 <_ZN11__sanitizer20SizeClassAllocator32INS_4AP32EE16PopulateFreeListEPNS_14AllocatorStatsEPNS_30SizeClassAllocator32LocalCacheIS2_EEPNS2_13SizeClassInfoEm+0xa50>
  6c6bc7:	41 b8 21 00 00 00    	mov    $0x21,%r8d
  6c6bcd:	31 db                	xor    %ebx,%ebx
  6c6bcf:	48 85 c0             	test   %rax,%rax
  6c6bd2:	0f 85 06 01 00 00    	jne    6c6cde <_ZN11__sanitizer20SizeClassAllocator32INS_4AP32EE16PopulateFreeListEPNS_14AllocatorStatsEPNS_30SizeClassAllocator32LocalCacheIS2_EEPNS2_13SizeClassInfoEm+0xa3e>
  6c6bd8:	e9 13 01 00 00       	jmpq   6c6cf0 <_ZN11__sanitizer20SizeClassAllocator32INS_4AP32EE16PopulateFreeListEPNS_14AllocatorStatsEPNS_30SizeClassAllocator32LocalCacheIS2_EEPNS2_13SizeClassInfoEm+0xa50>
  6c6bdd:	41 b8 22 00 00 00    	mov    $0x22,%r8d
  6c6be3:	31 db                	xor    %ebx,%ebx
  6c6be5:	48 85 c0             	test   %rax,%rax
  6c6be8:	0f 85 f0 00 00 00    	jne    6c6cde <_ZN11__sanitizer20SizeClassAllocator32INS_4AP32EE16PopulateFreeListEPNS_14AllocatorStatsEPNS_30SizeClassAllocator32LocalCacheIS2_EEPNS2_13SizeClassInfoEm+0xa3e>
  6c6bee:	e9 fd 00 00 00       	jmpq   6c6cf0 <_ZN11__sanitizer20SizeClassAllocator32INS_4AP32EE16PopulateFreeListEPNS_14AllocatorStatsEPNS_30SizeClassAllocator32LocalCacheIS2_EEPNS2_13SizeClassInfoEm+0xa50>
  6c6bf3:	41 b8 23 00 00 00    	mov    $0x23,%r8d
  6c6bf9:	31 db                	xor    %ebx,%ebx
  6c6bfb:	48 85 c0             	test   %rax,%rax
  6c6bfe:	0f 85 da 00 00 00    	jne    6c6cde <_ZN11__sanitizer20SizeClassAllocator32INS_4AP32EE16PopulateFreeListEPNS_14AllocatorStatsEPNS_30SizeClassAllocator32LocalCacheIS2_EEPNS2_13SizeClassInfoEm+0xa3e>
  6c6c04:	e9 e7 00 00 00       	jmpq   6c6cf0 <_ZN11__sanitizer20SizeClassAllocator32INS_4AP32EE16PopulateFreeListEPNS_14AllocatorStatsEPNS_30SizeClassAllocator32LocalCacheIS2_EEPNS2_13SizeClassInfoEm+0xa50>
  6c6c09:	41 b8 24 00 00 00    	mov    $0x24,%r8d
  6c6c0f:	31 db                	xor    %ebx,%ebx
  6c6c11:	48 85 c0             	test   %rax,%rax
  6c6c14:	0f 85 c4 00 00 00    	jne    6c6cde <_ZN11__sanitizer20SizeClassAllocator32INS_4AP32EE16PopulateFreeListEPNS_14AllocatorStatsEPNS_30SizeClassAllocator32LocalCacheIS2_EEPNS2_13SizeClassInfoEm+0xa3e>
  6c6c1a:	e9 d1 00 00 00       	jmpq   6c6cf0 <_ZN11__sanitizer20SizeClassAllocator32INS_4AP32EE16PopulateFreeListEPNS_14AllocatorStatsEPNS_30SizeClassAllocator32LocalCacheIS2_EEPNS2_13SizeClassInfoEm+0xa50>
  6c6c1f:	41 b8 25 00 00 00    	mov    $0x25,%r8d
  6c6c25:	31 db                	xor    %ebx,%ebx
  6c6c27:	48 85 c0             	test   %rax,%rax
  6c6c2a:	0f 85 ae 00 00 00    	jne    6c6cde <_ZN11__sanitizer20SizeClassAllocator32INS_4AP32EE16PopulateFreeListEPNS_14AllocatorStatsEPNS_30SizeClassAllocator32LocalCacheIS2_EEPNS2_13SizeClassInfoEm+0xa3e>
  6c6c30:	e9 bb 00 00 00       	jmpq   6c6cf0 <_ZN11__sanitizer20SizeClassAllocator32INS_4AP32EE16PopulateFreeListEPNS_14AllocatorStatsEPNS_30SizeClassAllocator32LocalCacheIS2_EEPNS2_13SizeClassInfoEm+0xa50>
  6c6c35:	41 b8 26 00 00 00    	mov    $0x26,%r8d
  6c6c3b:	31 db                	xor    %ebx,%ebx
  6c6c3d:	48 85 c0             	test   %rax,%rax
  6c6c40:	0f 85 98 00 00 00    	jne    6c6cde <_ZN11__sanitizer20SizeClassAllocator32INS_4AP32EE16PopulateFreeListEPNS_14AllocatorStatsEPNS_30SizeClassAllocator32LocalCacheIS2_EEPNS2_13SizeClassInfoEm+0xa3e>
  6c6c46:	e9 a5 00 00 00       	jmpq   6c6cf0 <_ZN11__sanitizer20SizeClassAllocator32INS_4AP32EE16PopulateFreeListEPNS_14AllocatorStatsEPNS_30SizeClassAllocator32LocalCacheIS2_EEPNS2_13SizeClassInfoEm+0xa50>
  6c6c4b:	41 b8 27 00 00 00    	mov    $0x27,%r8d
  6c6c51:	31 db                	xor    %ebx,%ebx
  6c6c53:	48 85 c0             	test   %rax,%rax
  6c6c56:	0f 85 82 00 00 00    	jne    6c6cde <_ZN11__sanitizer20SizeClassAllocator32INS_4AP32EE16PopulateFreeListEPNS_14AllocatorStatsEPNS_30SizeClassAllocator32LocalCacheIS2_EEPNS2_13SizeClassInfoEm+0xa3e>
  6c6c5c:	e9 8f 00 00 00       	jmpq   6c6cf0 <_ZN11__sanitizer20SizeClassAllocator32INS_4AP32EE16PopulateFreeListEPNS_14AllocatorStatsEPNS_30SizeClassAllocator32LocalCacheIS2_EEPNS2_13SizeClassInfoEm+0xa50>
  6c6c61:	41 b8 28 00 00 00    	mov    $0x28,%r8d
  6c6c67:	31 db                	xor    %ebx,%ebx
  6c6c69:	48 85 c0             	test   %rax,%rax
  6c6c6c:	75 70                	jne    6c6cde <_ZN11__sanitizer20SizeClassAllocator32INS_4AP32EE16PopulateFreeListEPNS_14AllocatorStatsEPNS_30SizeClassAllocator32LocalCacheIS2_EEPNS2_13SizeClassInfoEm+0xa3e>
  6c6c6e:	e9 7d 00 00 00       	jmpq   6c6cf0 <_ZN11__sanitizer20SizeClassAllocator32INS_4AP32EE16PopulateFreeListEPNS_14AllocatorStatsEPNS_30SizeClassAllocator32LocalCacheIS2_EEPNS2_13SizeClassInfoEm+0xa50>
  6c6c73:	41 b8 29 00 00 00    	mov    $0x29,%r8d
  6c6c79:	31 db                	xor    %ebx,%ebx
  6c6c7b:	48 85 c0             	test   %rax,%rax
  6c6c7e:	75 5e                	jne    6c6cde <_ZN11__sanitizer20SizeClassAllocator32INS_4AP32EE16PopulateFreeListEPNS_14AllocatorStatsEPNS_30SizeClassAllocator32LocalCacheIS2_EEPNS2_13SizeClassInfoEm+0xa3e>
  6c6c80:	eb 6e                	jmp    6c6cf0 <_ZN11__sanitizer20SizeClassAllocator32INS_4AP32EE16PopulateFreeListEPNS_14AllocatorStatsEPNS_30SizeClassAllocator32LocalCacheIS2_EEPNS2_13SizeClassInfoEm+0xa50>
  6c6c82:	41 b8 2a 00 00 00    	mov    $0x2a,%r8d
  6c6c88:	31 db                	xor    %ebx,%ebx
  6c6c8a:	48 85 c0             	test   %rax,%rax
  6c6c8d:	75 4f                	jne    6c6cde <_ZN11__sanitizer20SizeClassAllocator32INS_4AP32EE16PopulateFreeListEPNS_14AllocatorStatsEPNS_30SizeClassAllocator32LocalCacheIS2_EEPNS2_13SizeClassInfoEm+0xa3e>
  6c6c8f:	eb 5f                	jmp    6c6cf0 <_ZN11__sanitizer20SizeClassAllocator32INS_4AP32EE16PopulateFreeListEPNS_14AllocatorStatsEPNS_30SizeClassAllocator32LocalCacheIS2_EEPNS2_13SizeClassInfoEm+0xa50>
  6c6c91:	41 b8 2b 00 00 00    	mov    $0x2b,%r8d
  6c6c97:	31 db                	xor    %ebx,%ebx
  6c6c99:	48 85 c0             	test   %rax,%rax
  6c6c9c:	75 40                	jne    6c6cde <_ZN11__sanitizer20SizeClassAllocator32INS_4AP32EE16PopulateFreeListEPNS_14AllocatorStatsEPNS_30SizeClassAllocator32LocalCacheIS2_EEPNS2_13SizeClassInfoEm+0xa3e>
  6c6c9e:	eb 50                	jmp    6c6cf0 <_ZN11__sanitizer20SizeClassAllocator32INS_4AP32EE16PopulateFreeListEPNS_14AllocatorStatsEPNS_30SizeClassAllocator32LocalCacheIS2_EEPNS2_13SizeClassInfoEm+0xa50>
  6c6ca0:	41 b8 2c 00 00 00    	mov    $0x2c,%r8d
  6c6ca6:	31 db                	xor    %ebx,%ebx
  6c6ca8:	48 85 c0             	test   %rax,%rax
  6c6cab:	75 31                	jne    6c6cde <_ZN11__sanitizer20SizeClassAllocator32INS_4AP32EE16PopulateFreeListEPNS_14AllocatorStatsEPNS_30SizeClassAllocator32LocalCacheIS2_EEPNS2_13SizeClassInfoEm+0xa3e>
  6c6cad:	eb 41                	jmp    6c6cf0 <_ZN11__sanitizer20SizeClassAllocator32INS_4AP32EE16PopulateFreeListEPNS_14AllocatorStatsEPNS_30SizeClassAllocator32LocalCacheIS2_EEPNS2_13SizeClassInfoEm+0xa50>
  6c6caf:	41 b8 2d 00 00 00    	mov    $0x2d,%r8d
  6c6cb5:	31 db                	xor    %ebx,%ebx
  6c6cb7:	48 85 c0             	test   %rax,%rax
  6c6cba:	75 22                	jne    6c6cde <_ZN11__sanitizer20SizeClassAllocator32INS_4AP32EE16PopulateFreeListEPNS_14AllocatorStatsEPNS_30SizeClassAllocator32LocalCacheIS2_EEPNS2_13SizeClassInfoEm+0xa3e>
  6c6cbc:	eb 32                	jmp    6c6cf0 <_ZN11__sanitizer20SizeClassAllocator32INS_4AP32EE16PopulateFreeListEPNS_14AllocatorStatsEPNS_30SizeClassAllocator32LocalCacheIS2_EEPNS2_13SizeClassInfoEm+0xa50>
  6c6cbe:	41 b8 2e 00 00 00    	mov    $0x2e,%r8d
  6c6cc4:	31 db                	xor    %ebx,%ebx
  6c6cc6:	48 85 c0             	test   %rax,%rax
  6c6cc9:	75 13                	jne    6c6cde <_ZN11__sanitizer20SizeClassAllocator32INS_4AP32EE16PopulateFreeListEPNS_14AllocatorStatsEPNS_30SizeClassAllocator32LocalCacheIS2_EEPNS2_13SizeClassInfoEm+0xa3e>
  6c6ccb:	eb 23                	jmp    6c6cf0 <_ZN11__sanitizer20SizeClassAllocator32INS_4AP32EE16PopulateFreeListEPNS_14AllocatorStatsEPNS_30SizeClassAllocator32LocalCacheIS2_EEPNS2_13SizeClassInfoEm+0xa50>
  6c6ccd:	0f 1f 00             	nopl   (%rax)
  6c6cd0:	4c 8b 64 dc 48       	mov    0x48(%rsp,%rbx,8),%r12
  6c6cd5:	48 83 c3 01          	add    $0x1,%rbx
  6c6cd9:	48 85 c0             	test   %rax,%rax
  6c6cdc:	74 12                	je     6c6cf0 <_ZN11__sanitizer20SizeClassAllocator32INS_4AP32EE16PopulateFreeListEPNS_14AllocatorStatsEPNS_30SizeClassAllocator32LocalCacheIS2_EEPNS2_13SizeClassInfoEm+0xa50>
  6c6cde:	48 8b 48 08          	mov    0x8(%rax),%rcx
  6c6ce2:	eb 40                	jmp    6c6d24 <_ZN11__sanitizer20SizeClassAllocator32INS_4AP32EE16PopulateFreeListEPNS_14AllocatorStatsEPNS_30SizeClassAllocator32LocalCacheIS2_EEPNS2_13SizeClassInfoEm+0xa84>
  6c6ce4:	66 2e 0f 1f 84 00 00 	nopw   %cs:0x0(%rax,%rax,1)
  6c6ceb:	00 00 00 
  6c6cee:	66 90                	xchg   %ax,%ax
  6c6cf0:	4d 89 c7             	mov    %r8,%r15
  6c6cf3:	48 89 f5             	mov    %rsi,%rbp
  6c6cf6:	48 8b 7c 24 10       	mov    0x10(%rsp),%rdi
  6c6cfb:	4c 89 f6             	mov    %r14,%rsi
  6c6cfe:	48 8b 54 24 08       	mov    0x8(%rsp),%rdx
  6c6d03:	4c 89 e1             	mov    %r12,%rcx
  6c6d06:	e8 05 02 00 00       	callq  6c6f10 <_ZN11__sanitizer30SizeClassAllocator32LocalCacheINS_20SizeClassAllocator32INS_4AP32EEEE11CreateBatchEmPS3_PNS3_13TransferBatchE>
  6c6d0b:	48 85 c0             	test   %rax,%rax
  6c6d0e:	0f 84 be 00 00 00    	je     6c6dd2 <_ZN11__sanitizer20SizeClassAllocator32INS_4AP32EE16PopulateFreeListEPNS_14AllocatorStatsEPNS_30SizeClassAllocator32LocalCacheIS2_EEPNS2_13SizeClassInfoEm+0xb32>
  6c6d14:	48 c7 40 08 00 00 00 	movq   $0x0,0x8(%rax)
  6c6d1b:	00 
  6c6d1c:	31 c9                	xor    %ecx,%ecx
  6c6d1e:	48 89 ee             	mov    %rbp,%rsi
  6c6d21:	4d 89 f8             	mov    %r15,%r8
  6c6d24:	48 8d 51 01          	lea    0x1(%rcx),%rdx
  6c6d28:	48 89 50 08          	mov    %rdx,0x8(%rax)
  6c6d2c:	4c 89 64 c8 10       	mov    %r12,0x10(%rax,%rcx,8)
  6c6d31:	48 39 f2             	cmp    %rsi,%rdx
  6c6d34:	75 3d                	jne    6c6d73 <_ZN11__sanitizer20SizeClassAllocator32INS_4AP32EE16PopulateFreeListEPNS_14AllocatorStatsEPNS_30SizeClassAllocator32LocalCacheIS2_EEPNS2_13SizeClassInfoEm+0xad3>
  6c6d36:	49 8b 4d 08          	mov    0x8(%r13),%rcx
  6c6d3a:	48 c7 00 00 00 00 00 	movq   $0x0,(%rax)
  6c6d41:	48 85 c9             	test   %rcx,%rcx
  6c6d44:	74 1a                	je     6c6d60 <_ZN11__sanitizer20SizeClassAllocator32INS_4AP32EE16PopulateFreeListEPNS_14AllocatorStatsEPNS_30SizeClassAllocator32LocalCacheIS2_EEPNS2_13SizeClassInfoEm+0xac0>
  6c6d46:	49 8b 55 18          	mov    0x18(%r13),%rdx
  6c6d4a:	48 89 02             	mov    %rax,(%rdx)
  6c6d4d:	49 89 45 18          	mov    %rax,0x18(%r13)
  6c6d51:	48 83 c1 01          	add    $0x1,%rcx
  6c6d55:	eb 16                	jmp    6c6d6d <_ZN11__sanitizer20SizeClassAllocator32INS_4AP32EE16PopulateFreeListEPNS_14AllocatorStatsEPNS_30SizeClassAllocator32LocalCacheIS2_EEPNS2_13SizeClassInfoEm+0xacd>
  6c6d57:	66 0f 1f 84 00 00 00 	nopw   0x0(%rax,%rax,1)
  6c6d5e:	00 00 
  6c6d60:	49 89 45 18          	mov    %rax,0x18(%r13)
  6c6d64:	49 89 45 10          	mov    %rax,0x10(%r13)
  6c6d68:	b9 01 00 00 00       	mov    $0x1,%ecx
  6c6d6d:	49 89 4d 08          	mov    %rcx,0x8(%r13)
  6c6d71:	31 c0                	xor    %eax,%eax
  6c6d73:	49 39 d8             	cmp    %rbx,%r8
  6c6d76:	0f 85 54 ff ff ff    	jne    6c6cd0 <_ZN11__sanitizer20SizeClassAllocator32INS_4AP32EE16PopulateFreeListEPNS_14AllocatorStatsEPNS_30SizeClassAllocator32LocalCacheIS2_EEPNS2_13SizeClassInfoEm+0xa30>
  6c6d7c:	48 85 c0             	test   %rax,%rax
  6c6d7f:	74 3d                	je     6c6dbe <_ZN11__sanitizer20SizeClassAllocator32INS_4AP32EE16PopulateFreeListEPNS_14AllocatorStatsEPNS_30SizeClassAllocator32LocalCacheIS2_EEPNS2_13SizeClassInfoEm+0xb1e>
  6c6d81:	48 83 78 08 00       	cmpq   $0x0,0x8(%rax)
  6c6d86:	0f 84 c9 00 00 00    	je     6c6e55 <_ZN11__sanitizer20SizeClassAllocator32INS_4AP32EE16PopulateFreeListEPNS_14AllocatorStatsEPNS_30SizeClassAllocator32LocalCacheIS2_EEPNS2_13SizeClassInfoEm+0xbb5>
  6c6d8c:	49 8b 4d 08          	mov    0x8(%r13),%rcx
  6c6d90:	48 c7 00 00 00 00 00 	movq   $0x0,(%rax)
  6c6d97:	48 85 c9             	test   %rcx,%rcx
  6c6d9a:	74 11                	je     6c6dad <_ZN11__sanitizer20SizeClassAllocator32INS_4AP32EE16PopulateFreeListEPNS_14AllocatorStatsEPNS_30SizeClassAllocator32LocalCacheIS2_EEPNS2_13SizeClassInfoEm+0xb0d>
  6c6d9c:	49 8b 55 18          	mov    0x18(%r13),%rdx
  6c6da0:	48 89 02             	mov    %rax,(%rdx)
  6c6da3:	49 89 45 18          	mov    %rax,0x18(%r13)
  6c6da7:	48 83 c1 01          	add    $0x1,%rcx
  6c6dab:	eb 0d                	jmp    6c6dba <_ZN11__sanitizer20SizeClassAllocator32INS_4AP32EE16PopulateFreeListEPNS_14AllocatorStatsEPNS_30SizeClassAllocator32LocalCacheIS2_EEPNS2_13SizeClassInfoEm+0xb1a>
  6c6dad:	49 89 45 18          	mov    %rax,0x18(%r13)
  6c6db1:	49 89 45 10          	mov    %rax,0x10(%r13)
  6c6db5:	b9 01 00 00 00       	mov    $0x1,%ecx
  6c6dba:	49 89 4d 08          	mov    %rcx,0x8(%r13)
  6c6dbe:	b0 01                	mov    $0x1,%al
  6c6dc0:	48 81 c4 c8 01 00 00 	add    $0x1c8,%rsp
  6c6dc7:	5b                   	pop    %rbx
  6c6dc8:	41 5c                	pop    %r12
  6c6dca:	41 5d                	pop    %r13
  6c6dcc:	41 5e                	pop    %r14
  6c6dce:	41 5f                	pop    %r15
  6c6dd0:	5d                   	pop    %rbp
  6c6dd1:	c3                   	retq   
  6c6dd2:	31 c0                	xor    %eax,%eax
  6c6dd4:	eb ea                	jmp    6c6dc0 <_ZN11__sanitizer20SizeClassAllocator32INS_4AP32EE16PopulateFreeListEPNS_14AllocatorStatsEPNS_30SizeClassAllocator32LocalCacheIS2_EEPNS2_13SizeClassInfoEm+0xb20>
  6c6dd6:	48 8d 3d 84 02 b4 ff 	lea    -0x4bfd7c(%rip),%rdi        # 207061 <_IO_stdin_used+0x4271>
  6c6ddd:	48 8d 15 44 7e b4 ff 	lea    -0x4b81bc(%rip),%rdx        # 20ec28 <_IO_stdin_used+0xbe38>
  6c6de4:	41 b8 36 00 00 00    	mov    $0x36,%r8d
  6c6dea:	be a1 00 00 00       	mov    $0xa1,%esi
  6c6def:	e8 7c 28 01 00       	callq  6d9670 <_ZN11__sanitizer11CheckFailedEPKciS1_yy>
  6c6df4:	48 8d 3d 1f 66 b4 ff 	lea    -0x4b99e1(%rip),%rdi        # 20d41a <_IO_stdin_used+0xa62a>
  6c6dfb:	48 8d 15 98 c8 b3 ff 	lea    -0x4c3768(%rip),%rdx        # 20369a <_IO_stdin_used+0x8aa>
  6c6e02:	be 32 01 00 00       	mov    $0x132,%esi
  6c6e07:	eb 5f                	jmp    6c6e68 <_ZN11__sanitizer20SizeClassAllocator32INS_4AP32EE16PopulateFreeListEPNS_14AllocatorStatsEPNS_30SizeClassAllocator32LocalCacheIS2_EEPNS2_13SizeClassInfoEm+0xbc8>
  6c6e09:	48 8d 3d 0a 66 b4 ff 	lea    -0x4b99f6(%rip),%rdi        # 20d41a <_IO_stdin_used+0xa62a>
  6c6e10:	48 8d 15 ac 28 b4 ff 	lea    -0x4bd754(%rip),%rdx        # 2096c3 <_IO_stdin_used+0x68d3>
  6c6e17:	41 b8 00 00 00 08    	mov    $0x8000000,%r8d
  6c6e1d:	be 24 01 00 00       	mov    $0x124,%esi
  6c6e22:	48 89 e9             	mov    %rbp,%rcx
  6c6e25:	e8 46 28 01 00       	callq  6d9670 <_ZN11__sanitizer11CheckFailedEPKciS1_yy>
  6c6e2a:	48 8b 7c 24 08       	mov    0x8(%rsp),%rdi
  6c6e2f:	e8 4c 00 00 00       	callq  6c6e80 <_ZNK11__sanitizer11TwoLevelMapIhLy32768ELy4096ENS_21LocalAddressSpaceViewENS_20NoOpMapUnmapCallbackEE6CreateEm>
  6c6e34:	e9 f0 f4 ff ff       	jmpq   6c6329 <_ZN11__sanitizer20SizeClassAllocator32INS_4AP32EE16PopulateFreeListEPNS_14AllocatorStatsEPNS_30SizeClassAllocator32LocalCacheIS2_EEPNS2_13SizeClassInfoEm+0x89>
  6c6e39:	45 31 c9             	xor    %r9d,%r9d
  6c6e3c:	31 f6                	xor    %esi,%esi
  6c6e3e:	ba 00 00 10 00       	mov    $0x100000,%edx
  6c6e43:	49 81 f9 00 00 10 00 	cmp    $0x100000,%r9
  6c6e4a:	0f 86 68 f5 ff ff    	jbe    6c63b8 <_ZN11__sanitizer20SizeClassAllocator32INS_4AP32EE16PopulateFreeListEPNS_14AllocatorStatsEPNS_30SizeClassAllocator32LocalCacheIS2_EEPNS2_13SizeClassInfoEm+0x118>
  6c6e50:	e9 6d f5 ff ff       	jmpq   6c63c2 <_ZN11__sanitizer20SizeClassAllocator32INS_4AP32EE16PopulateFreeListEPNS_14AllocatorStatsEPNS_30SizeClassAllocator32LocalCacheIS2_EEPNS2_13SizeClassInfoEm+0x122>
  6c6e55:	48 8d 3d be 65 b4 ff 	lea    -0x4b9a42(%rip),%rdi        # 20d41a <_IO_stdin_used+0xa62a>
  6c6e5c:	48 8d 15 92 6e b4 ff 	lea    -0x4b916e(%rip),%rdx        # 20dcf5 <_IO_stdin_used+0xaf05>
  6c6e63:	be 75 01 00 00       	mov    $0x175,%esi
  6c6e68:	31 c9                	xor    %ecx,%ecx
  6c6e6a:	45 31 c0             	xor    %r8d,%r8d
  6c6e6d:	e8 fe 27 01 00       	callq  6d9670 <_ZN11__sanitizer11CheckFailedEPKciS1_yy>
  6c6e72:	cc                   	int3   
  6c6e73:	cc                   	int3   
  6c6e74:	cc                   	int3   
  6c6e75:	cc                   	int3   
  6c6e76:	cc                   	int3   
  6c6e77:	cc                   	int3   
  6c6e78:	cc                   	int3   
  6c6e79:	cc                   	int3   
  6c6e7a:	cc                   	int3   
  6c6e7b:	cc                   	int3   
  6c6e7c:	cc                   	int3   
  6c6e7d:	cc                   	int3   
  6c6e7e:	cc                   	int3   
  6c6e7f:	cc                   	int3   

00000000006c6e80 <_ZNK11__sanitizer11TwoLevelMapIhLy32768ELy4096ENS_21LocalAddressSpaceViewENS_20NoOpMapUnmapCallbackEE6CreateEm>:
  6c6e80:	41 57                	push   %r15
  6c6e82:	41 56                	push   %r14
  6c6e84:	53                   	push   %rbx
  6c6e85:	49 89 f6             	mov    %rsi,%r14
  6c6e88:	48 89 fb             	mov    %rdi,%rbx
  6c6e8b:	b0 01                	mov    $0x1,%al
  6c6e8d:	86 07                	xchg   %al,(%rdi)
  6c6e8f:	84 c0                	test   %al,%al
  6c6e91:	75 56                	jne    6c6ee9 <_ZNK11__sanitizer11TwoLevelMapIhLy32768ELy4096ENS_21LocalAddressSpaceViewENS_20NoOpMapUnmapCallbackEE6CreateEm+0x69>
  6c6e93:	4a 8b 44 f3 08       	mov    0x8(%rbx,%r14,8),%rax
  6c6e98:	48 85 c0             	test   %rax,%rax
  6c6e9b:	75 43                	jne    6c6ee0 <_ZNK11__sanitizer11TwoLevelMapIhLy32768ELy4096ENS_21LocalAddressSpaceViewENS_20NoOpMapUnmapCallbackEE6CreateEm+0x60>
  6c6e9d:	4c 8d 3d dc 4f 0d 00 	lea    0xd4fdc(%rip),%r15        # 79be80 <_ZN11__sanitizer14PageSizeCachedE>
  6c6ea4:	49 8b 3f             	mov    (%r15),%rdi
  6c6ea7:	48 85 ff             	test   %rdi,%rdi
  6c6eaa:	75 0b                	jne    6c6eb7 <_ZNK11__sanitizer11TwoLevelMapIhLy32768ELy4096ENS_21LocalAddressSpaceViewENS_20NoOpMapUnmapCallbackEE6CreateEm+0x37>
  6c6eac:	e8 3f a6 00 00       	callq  6d14f0 <_ZN11__sanitizer11GetPageSizeEv>
  6c6eb1:	48 89 c7             	mov    %rax,%rdi
  6c6eb4:	49 89 07             	mov    %rax,(%r15)
  6c6eb7:	48 8d 47 ff          	lea    -0x1(%rdi),%rax
  6c6ebb:	48 85 c7             	test   %rax,%rdi
  6c6ebe:	75 33                	jne    6c6ef3 <_ZNK11__sanitizer11TwoLevelMapIhLy32768ELy4096ENS_21LocalAddressSpaceViewENS_20NoOpMapUnmapCallbackEE6CreateEm+0x73>
  6c6ec0:	48 8d 87 ff 0f 00 00 	lea    0xfff(%rdi),%rax
  6c6ec7:	48 f7 df             	neg    %rdi
  6c6eca:	48 21 c7             	and    %rax,%rdi
  6c6ecd:	48 8d 35 38 6e b4 ff 	lea    -0x4b91c8(%rip),%rsi        # 20dd0c <_IO_stdin_used+0xaf1c>
  6c6ed4:	31 d2                	xor    %edx,%edx
  6c6ed6:	e8 e5 ae 00 00       	callq  6d1dc0 <_ZN11__sanitizer9MmapOrDieEmPKcb>
  6c6edb:	4a 89 44 f3 08       	mov    %rax,0x8(%rbx,%r14,8)
  6c6ee0:	c6 03 00             	movb   $0x0,(%rbx)
  6c6ee3:	5b                   	pop    %rbx
  6c6ee4:	41 5e                	pop    %r14
  6c6ee6:	41 5f                	pop    %r15
  6c6ee8:	c3                   	retq   
  6c6ee9:	48 89 df             	mov    %rbx,%rdi
  6c6eec:	e8 bf ad 00 00       	callq  6d1cb0 <_ZN11__sanitizer15StaticSpinMutex8LockSlowEv>
  6c6ef1:	eb a0                	jmp    6c6e93 <_ZNK11__sanitizer11TwoLevelMapIhLy32768ELy4096ENS_21LocalAddressSpaceViewENS_20NoOpMapUnmapCallbackEE6CreateEm+0x13>
  6c6ef3:	48 8d 3d 3c 43 b4 ff 	lea    -0x4bbcc4(%rip),%rdi        # 20b236 <_IO_stdin_used+0x8446>
  6c6efa:	e8 b1 3a 00 00       	callq  6ca9b0 <_ZN11__sanitizer8RawWriteEPKc>
  6c6eff:	e8 8c 26 01 00       	callq  6d9590 <_ZN11__sanitizer3DieEv>
  6c6f04:	cc                   	int3   
  6c6f05:	cc                   	int3   
  6c6f06:	cc                   	int3   
  6c6f07:	cc                   	int3   
  6c6f08:	cc                   	int3   
  6c6f09:	cc                   	int3   
  6c6f0a:	cc                   	int3   
  6c6f0b:	cc                   	int3   
  6c6f0c:	cc                   	int3   
  6c6f0d:	cc                   	int3   
  6c6f0e:	cc                   	int3   
  6c6f0f:	cc                   	int3   

00000000006c6f10 <_ZN11__sanitizer30SizeClassAllocator32LocalCacheINS_20SizeClassAllocator32INS_4AP32EEEE11CreateBatchEmPS3_PNS3_13TransferBatchE>:
  6c6f10:	41 57                	push   %r15
  6c6f12:	41 56                	push   %r14
  6c6f14:	53                   	push   %rbx
  6c6f15:	48 89 c8             	mov    %rcx,%rax
  6c6f18:	48 c1 e6 0a          	shl    $0xa,%rsi
  6c6f1c:	48 8b 4c 37 18       	mov    0x18(%rdi,%rsi,1),%rcx
  6c6f21:	48 85 c9             	test   %rcx,%rcx
  6c6f24:	74 3d                	je     6c6f63 <_ZN11__sanitizer30SizeClassAllocator32LocalCacheINS_20SizeClassAllocator32INS_4AP32EEEE11CreateBatchEmPS3_PNS3_13TransferBatchE+0x53>
  6c6f26:	48 83 f9 36          	cmp    $0x36,%rcx
  6c6f2a:	73 3d                	jae    6c6f69 <_ZN11__sanitizer30SizeClassAllocator32LocalCacheINS_20SizeClassAllocator32INS_4AP32EEEE11CreateBatchEmPS3_PNS3_13TransferBatchE+0x59>
  6c6f2c:	49 89 ff             	mov    %rdi,%r15
  6c6f2f:	48 89 cb             	mov    %rcx,%rbx
  6c6f32:	48 c1 e3 0a          	shl    $0xa,%rbx
  6c6f36:	4c 8d 34 1f          	lea    (%rdi,%rbx,1),%r14
  6c6f3a:	48 8b 04 1f          	mov    (%rdi,%rbx,1),%rax
  6c6f3e:	48 85 c0             	test   %rax,%rax
  6c6f41:	74 44                	je     6c6f87 <_ZN11__sanitizer30SizeClassAllocator32LocalCacheINS_20SizeClassAllocator32INS_4AP32EEEE11CreateBatchEmPS3_PNS3_13TransferBatchE+0x77>
  6c6f43:	48 8d 48 ff          	lea    -0x1(%rax),%rcx
  6c6f47:	49 89 0e             	mov    %rcx,(%r14)
  6c6f4a:	49 8b 4c c6 10       	mov    0x10(%r14,%rax,8),%rcx
  6c6f4f:	49 8b 44 c6 18       	mov    0x18(%r14,%rax,8),%rax
  6c6f54:	0f 18 01             	prefetchnta (%rcx)
  6c6f57:	49 8b 4c 1f 10       	mov    0x10(%r15,%rbx,1),%rcx
  6c6f5c:	49 01 8f 10 d8 00 00 	add    %rcx,0xd810(%r15)
  6c6f63:	5b                   	pop    %rbx
  6c6f64:	41 5e                	pop    %r14
  6c6f66:	41 5f                	pop    %r15
  6c6f68:	c3                   	retq   
  6c6f69:	48 8d 3d f1 00 b4 ff 	lea    -0x4bff0f(%rip),%rdi        # 207061 <_IO_stdin_used+0x4271>
  6c6f70:	48 8d 15 b1 7c b4 ff 	lea    -0x4b834f(%rip),%rdx        # 20ec28 <_IO_stdin_used+0xbe38>
  6c6f77:	41 b8 36 00 00 00    	mov    $0x36,%r8d
  6c6f7d:	be a1 00 00 00       	mov    $0xa1,%esi
  6c6f82:	e8 e9 26 01 00       	callq  6d9670 <_ZN11__sanitizer11CheckFailedEPKciS1_yy>
  6c6f87:	4c 89 ff             	mov    %r15,%rdi
  6c6f8a:	4c 89 f6             	mov    %r14,%rsi
  6c6f8d:	e8 0e ef ff ff       	callq  6c5ea0 <_ZN11__sanitizer30SizeClassAllocator32LocalCacheINS_20SizeClassAllocator32INS_4AP32EEEE6RefillEPNS4_8PerClassEPS3_m>
  6c6f92:	84 c0                	test   %al,%al
  6c6f94:	74 05                	je     6c6f9b <_ZN11__sanitizer30SizeClassAllocator32LocalCacheINS_20SizeClassAllocator32INS_4AP32EEEE11CreateBatchEmPS3_PNS3_13TransferBatchE+0x8b>
  6c6f96:	49 8b 06             	mov    (%r14),%rax
  6c6f99:	eb a8                	jmp    6c6f43 <_ZN11__sanitizer30SizeClassAllocator32LocalCacheINS_20SizeClassAllocator32INS_4AP32EEEE11CreateBatchEmPS3_PNS3_13TransferBatchE+0x33>
  6c6f9b:	31 c0                	xor    %eax,%eax
  6c6f9d:	5b                   	pop    %rbx
  6c6f9e:	41 5e                	pop    %r14
  6c6fa0:	41 5f                	pop    %r15
  6c6fa2:	c3                   	retq   
  6c6fa3:	cc                   	int3   
  6c6fa4:	cc                   	int3   
  6c6fa5:	cc                   	int3   
  6c6fa6:	cc                   	int3   
  6c6fa7:	cc                   	int3   
  6c6fa8:	cc                   	int3   
  6c6fa9:	cc                   	int3   
  6c6faa:	cc                   	int3   
  6c6fab:	cc                   	int3   
  6c6fac:	cc                   	int3   
  6c6fad:	cc                   	int3   
  6c6fae:	cc                   	int3   
  6c6faf:	cc                   	int3   

00000000006c6fb0 <_ZN11__sanitizer30SizeClassAllocator32LocalCacheINS_20SizeClassAllocator32INS_4AP32EEEE10DeallocateEPS3_mPv>:
  6c6fb0:	41 57                	push   %r15
  6c6fb2:	41 56                	push   %r14
  6c6fb4:	41 54                	push   %r12
  6c6fb6:	53                   	push   %rbx
  6c6fb7:	50                   	push   %rax
  6c6fb8:	48 85 d2             	test   %rdx,%rdx
  6c6fbb:	74 58                	je     6c7015 <_ZN11__sanitizer30SizeClassAllocator32LocalCacheINS_20SizeClassAllocator32INS_4AP32EEEE10DeallocateEPS3_mPv+0x65>
  6c6fbd:	49 89 d1             	mov    %rdx,%r9
  6c6fc0:	48 83 fa 36          	cmp    $0x36,%rdx
  6c6fc4:	73 6c                	jae    6c7032 <_ZN11__sanitizer30SizeClassAllocator32LocalCacheINS_20SizeClassAllocator32INS_4AP32EEEE10DeallocateEPS3_mPv+0x82>
  6c6fc6:	49 89 ce             	mov    %rcx,%r14
  6c6fc9:	49 89 f0             	mov    %rsi,%r8
  6c6fcc:	49 89 fc             	mov    %rdi,%r12
  6c6fcf:	4c 89 cb             	mov    %r9,%rbx
  6c6fd2:	48 c1 e3 0a          	shl    $0xa,%rbx
  6c6fd6:	4c 8d 3c 1f          	lea    (%rdi,%rbx,1),%r15
  6c6fda:	48 8b 4c 1f 08       	mov    0x8(%rdi,%rbx,1),%rcx
  6c6fdf:	48 85 c9             	test   %rcx,%rcx
  6c6fe2:	74 6f                	je     6c7053 <_ZN11__sanitizer30SizeClassAllocator32LocalCacheINS_20SizeClassAllocator32INS_4AP32EEEE10DeallocateEPS3_mPv+0xa3>
  6c6fe4:	49 8b 07             	mov    (%r15),%rax
  6c6fe7:	48 39 c8             	cmp    %rcx,%rax
  6c6fea:	0f 84 46 01 00 00    	je     6c7136 <_ZN11__sanitizer30SizeClassAllocator32LocalCacheINS_20SizeClassAllocator32INS_4AP32EEEE10DeallocateEPS3_mPv+0x186>
  6c6ff0:	48 8d 48 01          	lea    0x1(%rax),%rcx
  6c6ff4:	49 89 0f             	mov    %rcx,(%r15)
  6c6ff7:	4d 89 74 c7 20       	mov    %r14,0x20(%r15,%rax,8)
  6c6ffc:	49 8b 44 1c 10       	mov    0x10(%r12,%rbx,1),%rax
  6c7001:	49 29 84 24 10 d8 00 	sub    %rax,0xd810(%r12)
  6c7008:	00 
  6c7009:	48 83 c4 08          	add    $0x8,%rsp
  6c700d:	5b                   	pop    %rbx
  6c700e:	41 5c                	pop    %r12
  6c7010:	41 5e                	pop    %r14
  6c7012:	41 5f                	pop    %r15
  6c7014:	c3                   	retq   
  6c7015:	48 8d 3d 45 00 b4 ff 	lea    -0x4bffbb(%rip),%rdi        # 207061 <_IO_stdin_used+0x4271>
  6c701c:	48 8d 15 13 f1 b3 ff 	lea    -0x4c0eed(%rip),%rdx        # 206136 <_IO_stdin_used+0x3346>
  6c7023:	be af 00 00 00       	mov    $0xaf,%esi
  6c7028:	31 c9                	xor    %ecx,%ecx
  6c702a:	45 31 c0             	xor    %r8d,%r8d
  6c702d:	e8 3e 26 01 00       	callq  6d9670 <_ZN11__sanitizer11CheckFailedEPKciS1_yy>
  6c7032:	48 8d 3d 28 00 b4 ff 	lea    -0x4bffd8(%rip),%rdi        # 207061 <_IO_stdin_used+0x4271>
  6c7039:	48 8d 15 e8 7b b4 ff 	lea    -0x4b8418(%rip),%rdx        # 20ec28 <_IO_stdin_used+0xbe38>
  6c7040:	41 b8 36 00 00 00    	mov    $0x36,%r8d
  6c7046:	be b0 00 00 00       	mov    $0xb0,%esi
  6c704b:	4c 89 c9             	mov    %r9,%rcx
  6c704e:	e8 1d 26 01 00       	callq  6d9670 <_ZN11__sanitizer11CheckFailedEPKciS1_yy>
  6c7053:	4d 8d 14 1c          	lea    (%r12,%rbx,1),%r10
  6c7057:	49 83 c2 08          	add    $0x8,%r10
  6c705b:	49 8d bc 24 18 04 00 	lea    0x418(%r12),%rdi
  6c7062:	00 
  6c7063:	41 bb 10 00 00 00    	mov    $0x10,%r11d
  6c7069:	48 c7 c6 f1 ff ff ff 	mov    $0xfffffffffffffff1,%rsi
  6c7070:	eb 1c                	jmp    6c708e <_ZN11__sanitizer30SizeClassAllocator32LocalCacheINS_20SizeClassAllocator32INS_4AP32EEEE10DeallocateEPS3_mPv+0xde>
  6c7072:	48 89 07             	mov    %rax,(%rdi)
  6c7075:	49 83 c3 10          	add    $0x10,%r11
  6c7079:	48 83 c6 01          	add    $0x1,%rsi
  6c707d:	48 81 c7 00 04 00 00 	add    $0x400,%rdi
  6c7084:	48 83 fe 26          	cmp    $0x26,%rsi
  6c7088:	0f 84 99 00 00 00    	je     6c7127 <_ZN11__sanitizer30SizeClassAllocator32LocalCacheINS_20SizeClassAllocator32INS_4AP32EEEE10DeallocateEPS3_mPv+0x177>
  6c708e:	b9 00 02 00 00       	mov    $0x200,%ecx
  6c7093:	48 83 fe 25          	cmp    $0x25,%rsi
  6c7097:	74 30                	je     6c70c9 <_ZN11__sanitizer30SizeClassAllocator32LocalCacheINS_20SizeClassAllocator32INS_4AP32EEEE10DeallocateEPS3_mPv+0x119>
  6c7099:	48 8d 46 10          	lea    0x10(%rsi),%rax
  6c709d:	4c 89 d9             	mov    %r11,%rcx
  6c70a0:	48 83 f8 11          	cmp    $0x11,%rax
  6c70a4:	72 23                	jb     6c70c9 <_ZN11__sanitizer30SizeClassAllocator32LocalCacheINS_20SizeClassAllocator32INS_4AP32EEEE10DeallocateEPS3_mPv+0x119>
  6c70a6:	48 89 f1             	mov    %rsi,%rcx
  6c70a9:	48 c1 e9 02          	shr    $0x2,%rcx
  6c70ad:	ba 00 01 00 00       	mov    $0x100,%edx
  6c70b2:	48 d3 e2             	shl    %cl,%rdx
  6c70b5:	48 89 d1             	mov    %rdx,%rcx
  6c70b8:	48 c1 e9 02          	shr    $0x2,%rcx
  6c70bc:	83 e0 03             	and    $0x3,%eax
  6c70bf:	48 0f af c1          	imul   %rcx,%rax
  6c70c3:	48 01 d0             	add    %rdx,%rax
  6c70c6:	48 89 c1             	mov    %rax,%rcx
  6c70c9:	b8 00 40 00 00       	mov    $0x4000,%eax
  6c70ce:	31 d2                	xor    %edx,%edx
  6c70d0:	f7 f1                	div    %ecx
  6c70d2:	83 f8 40             	cmp    $0x40,%eax
  6c70d5:	73 39                	jae    6c7110 <_ZN11__sanitizer30SizeClassAllocator32LocalCacheINS_20SizeClassAllocator32INS_4AP32EEEE10DeallocateEPS3_mPv+0x160>
  6c70d7:	48 85 c0             	test   %rax,%rax
  6c70da:	74 3e                	je     6c711a <_ZN11__sanitizer30SizeClassAllocator32LocalCacheINS_20SizeClassAllocator32INS_4AP32EEEE10DeallocateEPS3_mPv+0x16a>
  6c70dc:	48 83 f8 3e          	cmp    $0x3e,%rax
  6c70e0:	72 05                	jb     6c70e7 <_ZN11__sanitizer30SizeClassAllocator32LocalCacheINS_20SizeClassAllocator32INS_4AP32EEEE10DeallocateEPS3_mPv+0x137>
  6c70e2:	b8 3e 00 00 00       	mov    $0x3e,%eax
  6c70e7:	48 8d 14 00          	lea    (%rax,%rax,1),%rdx
  6c70eb:	48 89 57 f0          	mov    %rdx,-0x10(%rdi)
  6c70ef:	48 89 4f f8          	mov    %rcx,-0x8(%rdi)
  6c70f3:	48 8d 14 c5 10 00 00 	lea    0x10(,%rax,8),%rdx
  6c70fa:	00 
  6c70fb:	b8 14 00 00 00       	mov    $0x14,%eax
  6c7100:	48 39 d1             	cmp    %rdx,%rcx
  6c7103:	0f 82 69 ff ff ff    	jb     6c7072 <_ZN11__sanitizer30SizeClassAllocator32LocalCacheINS_20SizeClassAllocator32INS_4AP32EEEE10DeallocateEPS3_mPv+0xc2>
  6c7109:	31 c0                	xor    %eax,%eax
  6c710b:	e9 62 ff ff ff       	jmpq   6c7072 <_ZN11__sanitizer30SizeClassAllocator32LocalCacheINS_20SizeClassAllocator32INS_4AP32EEEE10DeallocateEPS3_mPv+0xc2>
  6c7110:	b8 40 00 00 00       	mov    $0x40,%eax
  6c7115:	48 85 c0             	test   %rax,%rax
  6c7118:	75 c2                	jne    6c70dc <_ZN11__sanitizer30SizeClassAllocator32LocalCacheINS_20SizeClassAllocator32INS_4AP32EEEE10DeallocateEPS3_mPv+0x12c>
  6c711a:	b8 01 00 00 00       	mov    $0x1,%eax
  6c711f:	48 83 f8 3e          	cmp    $0x3e,%rax
  6c7123:	73 bd                	jae    6c70e2 <_ZN11__sanitizer30SizeClassAllocator32LocalCacheINS_20SizeClassAllocator32INS_4AP32EEEE10DeallocateEPS3_mPv+0x132>
  6c7125:	eb c0                	jmp    6c70e7 <_ZN11__sanitizer30SizeClassAllocator32LocalCacheINS_20SizeClassAllocator32INS_4AP32EEEE10DeallocateEPS3_mPv+0x137>
  6c7127:	49 8b 0a             	mov    (%r10),%rcx
  6c712a:	49 8b 07             	mov    (%r15),%rax
  6c712d:	48 39 c8             	cmp    %rcx,%rax
  6c7130:	0f 85 ba fe ff ff    	jne    6c6ff0 <_ZN11__sanitizer30SizeClassAllocator32LocalCacheINS_20SizeClassAllocator32INS_4AP32EEEE10DeallocateEPS3_mPv+0x40>
  6c7136:	4c 89 e7             	mov    %r12,%rdi
  6c7139:	4c 89 fe             	mov    %r15,%rsi
  6c713c:	4c 89 c2             	mov    %r8,%rdx
  6c713f:	4c 89 c9             	mov    %r9,%rcx
  6c7142:	e8 09 00 00 00       	callq  6c7150 <_ZN11__sanitizer30SizeClassAllocator32LocalCacheINS_20SizeClassAllocator32INS_4AP32EEEE5DrainEPNS4_8PerClassEPS3_m>
  6c7147:	49 8b 07             	mov    (%r15),%rax
  6c714a:	e9 a1 fe ff ff       	jmpq   6c6ff0 <_ZN11__sanitizer30SizeClassAllocator32LocalCacheINS_20SizeClassAllocator32INS_4AP32EEEE10DeallocateEPS3_mPv+0x40>
  6c714f:	cc                   	int3   

00000000006c7150 <_ZN11__sanitizer30SizeClassAllocator32LocalCacheINS_20SizeClassAllocator32INS_4AP32EEEE5DrainEPNS4_8PerClassEPS3_m>:
  6c7150:	55                   	push   %rbp
  6c7151:	41 57                	push   %r15
  6c7153:	41 56                	push   %r14
  6c7155:	41 55                	push   %r13
  6c7157:	41 54                	push   %r12
  6c7159:	53                   	push   %rbx
  6c715a:	48 83 ec 18          	sub    $0x18,%rsp
  6c715e:	49 89 f7             	mov    %rsi,%r15
  6c7161:	4c 8b 26             	mov    (%rsi),%r12
  6c7164:	48 8b 6e 08          	mov    0x8(%rsi),%rbp
  6c7168:	48 d1 ed             	shr    %rbp
  6c716b:	4c 39 e5             	cmp    %r12,%rbp
  6c716e:	49 0f 43 ec          	cmovae %r12,%rbp
  6c7172:	49 89 c9             	mov    %rcx,%r9
  6c7175:	49 89 d2             	mov    %rdx,%r10
  6c7178:	49 89 fd             	mov    %rdi,%r13
  6c717b:	48 89 c8             	mov    %rcx,%rax
  6c717e:	48 c1 e0 0a          	shl    $0xa,%rax
  6c7182:	48 8b 4c 07 18       	mov    0x18(%rdi,%rax,1),%rcx
  6c7187:	48 85 c9             	test   %rcx,%rcx
  6c718a:	74 4d                	je     6c71d9 <_ZN11__sanitizer30SizeClassAllocator32LocalCacheINS_20SizeClassAllocator32INS_4AP32EEEE5DrainEPNS4_8PerClassEPS3_m+0x89>
  6c718c:	48 83 f9 36          	cmp    $0x36,%rcx
  6c7190:	0f 83 74 02 00 00    	jae    6c740a <_ZN11__sanitizer30SizeClassAllocator32LocalCacheINS_20SizeClassAllocator32INS_4AP32EEEE5DrainEPNS4_8PerClassEPS3_m+0x2ba>
  6c7196:	49 89 ce             	mov    %rcx,%r14
  6c7199:	49 c1 e6 0a          	shl    $0xa,%r14
  6c719d:	4b 8d 1c 2e          	lea    (%r14,%r13,1),%rbx
  6c71a1:	4b 8b 44 35 00       	mov    0x0(%r13,%r14,1),%rax
  6c71a6:	48 85 c0             	test   %rax,%rax
  6c71a9:	0f 84 79 02 00 00    	je     6c7428 <_ZN11__sanitizer30SizeClassAllocator32LocalCacheINS_20SizeClassAllocator32INS_4AP32EEEE5DrainEPNS4_8PerClassEPS3_m+0x2d8>
  6c71af:	48 8d 48 ff          	lea    -0x1(%rax),%rcx
  6c71b3:	48 89 0b             	mov    %rcx,(%rbx)
  6c71b6:	48 8b 54 c3 10       	mov    0x10(%rbx,%rax,8),%rdx
  6c71bb:	48 8b 4c c3 18       	mov    0x18(%rbx,%rax,8),%rcx
  6c71c0:	0f 18 02             	prefetchnta (%rdx)
  6c71c3:	4b 8b 44 35 10       	mov    0x10(%r13,%r14,1),%rax
  6c71c8:	49 01 85 10 d8 00 00 	add    %rax,0xd810(%r13)
  6c71cf:	48 85 c9             	test   %rcx,%rcx
  6c71d2:	75 19                	jne    6c71ed <_ZN11__sanitizer30SizeClassAllocator32LocalCacheINS_20SizeClassAllocator32INS_4AP32EEEE5DrainEPNS4_8PerClassEPS3_m+0x9d>
  6c71d4:	e9 7d 02 00 00       	jmpq   6c7456 <_ZN11__sanitizer30SizeClassAllocator32LocalCacheINS_20SizeClassAllocator32INS_4AP32EEEE5DrainEPNS4_8PerClassEPS3_m+0x306>
  6c71d9:	4c 89 e0             	mov    %r12,%rax
  6c71dc:	48 29 e8             	sub    %rbp,%rax
  6c71df:	49 8b 4c c7 20       	mov    0x20(%r15,%rax,8),%rcx
  6c71e4:	48 85 c9             	test   %rcx,%rcx
  6c71e7:	0f 84 69 02 00 00    	je     6c7456 <_ZN11__sanitizer30SizeClassAllocator32LocalCacheINS_20SizeClassAllocator32INS_4AP32EEEE5DrainEPNS4_8PerClassEPS3_m+0x306>
  6c71ed:	48 89 69 08          	mov    %rbp,0x8(%rcx)
  6c71f1:	48 85 ed             	test   %rbp,%rbp
  6c71f4:	0f 84 ea 01 00 00    	je     6c73e4 <_ZN11__sanitizer30SizeClassAllocator32LocalCacheINS_20SizeClassAllocator32INS_4AP32EEEE5DrainEPNS4_8PerClassEPS3_m+0x294>
  6c71fa:	48 83 fd 04          	cmp    $0x4,%rbp
  6c71fe:	72 3c                	jb     6c723c <_ZN11__sanitizer30SizeClassAllocator32LocalCacheINS_20SizeClassAllocator32INS_4AP32EEEE5DrainEPNS4_8PerClassEPS3_m+0xec>
  6c7200:	48 8d 41 10          	lea    0x10(%rcx),%rax
  6c7204:	4c 8d 04 ed 00 00 00 	lea    0x0(,%rbp,8),%r8
  6c720b:	00 
  6c720c:	4b 8d 14 e7          	lea    (%r15,%r12,8),%rdx
  6c7210:	48 83 c2 20          	add    $0x20,%rdx
  6c7214:	48 39 c2             	cmp    %rax,%rdx
  6c7217:	0f 86 c8 00 00 00    	jbe    6c72e5 <_ZN11__sanitizer30SizeClassAllocator32LocalCacheINS_20SizeClassAllocator32INS_4AP32EEEE5DrainEPNS4_8PerClassEPS3_m+0x195>
  6c721d:	48 8d 04 e9          	lea    (%rcx,%rbp,8),%rax
  6c7221:	48 83 c0 10          	add    $0x10,%rax
  6c7225:	4a 8d 14 e5 20 00 00 	lea    0x20(,%r12,8),%rdx
  6c722c:	00 
  6c722d:	4c 29 c2             	sub    %r8,%rdx
  6c7230:	4c 01 fa             	add    %r15,%rdx
  6c7233:	48 39 c2             	cmp    %rax,%rdx
  6c7236:	0f 83 a9 00 00 00    	jae    6c72e5 <_ZN11__sanitizer30SizeClassAllocator32LocalCacheINS_20SizeClassAllocator32INS_4AP32EEEE5DrainEPNS4_8PerClassEPS3_m+0x195>
  6c723c:	31 c0                	xor    %eax,%eax
  6c723e:	48 89 c2             	mov    %rax,%rdx
  6c7241:	48 f7 d2             	not    %rdx
  6c7244:	48 01 ea             	add    %rbp,%rdx
  6c7247:	48 89 ee             	mov    %rbp,%rsi
  6c724a:	48 83 e6 03          	and    $0x3,%rsi
  6c724e:	74 33                	je     6c7283 <_ZN11__sanitizer30SizeClassAllocator32LocalCacheINS_20SizeClassAllocator32INS_4AP32EEEE5DrainEPNS4_8PerClassEPS3_m+0x133>
  6c7250:	4a 8d 3c e5 00 00 00 	lea    0x0(,%r12,8),%rdi
  6c7257:	00 
  6c7258:	48 8d 1c ed 00 00 00 	lea    0x0(,%rbp,8),%rbx
  6c725f:	00 
  6c7260:	48 29 df             	sub    %rbx,%rdi
  6c7263:	4c 01 ff             	add    %r15,%rdi
  6c7266:	48 83 c7 20          	add    $0x20,%rdi
  6c726a:	66 0f 1f 44 00 00    	nopw   0x0(%rax,%rax,1)
  6c7270:	48 8b 1c c7          	mov    (%rdi,%rax,8),%rbx
  6c7274:	48 89 5c c1 10       	mov    %rbx,0x10(%rcx,%rax,8)
  6c7279:	48 83 c0 01          	add    $0x1,%rax
  6c727d:	48 83 c6 ff          	add    $0xffffffffffffffff,%rsi
  6c7281:	75 ed                	jne    6c7270 <_ZN11__sanitizer30SizeClassAllocator32LocalCacheINS_20SizeClassAllocator32INS_4AP32EEEE5DrainEPNS4_8PerClassEPS3_m+0x120>
  6c7283:	48 83 fa 03          	cmp    $0x3,%rdx
  6c7287:	0f 82 57 01 00 00    	jb     6c73e4 <_ZN11__sanitizer30SizeClassAllocator32LocalCacheINS_20SizeClassAllocator32INS_4AP32EEEE5DrainEPNS4_8PerClassEPS3_m+0x294>
  6c728d:	49 c1 e4 03          	shl    $0x3,%r12
  6c7291:	48 8d 14 ed 00 00 00 	lea    0x0(,%rbp,8),%rdx
  6c7298:	00 
  6c7299:	49 29 d4             	sub    %rdx,%r12
  6c729c:	4b 8d 14 3c          	lea    (%r12,%r15,1),%rdx
  6c72a0:	48 83 c2 38          	add    $0x38,%rdx
  6c72a4:	66 2e 0f 1f 84 00 00 	nopw   %cs:0x0(%rax,%rax,1)
  6c72ab:	00 00 00 
  6c72ae:	66 90                	xchg   %ax,%ax
  6c72b0:	48 8b 74 c2 e8       	mov    -0x18(%rdx,%rax,8),%rsi
  6c72b5:	48 89 74 c1 10       	mov    %rsi,0x10(%rcx,%rax,8)
  6c72ba:	48 8b 74 c2 f0       	mov    -0x10(%rdx,%rax,8),%rsi
  6c72bf:	48 89 74 c1 18       	mov    %rsi,0x18(%rcx,%rax,8)
  6c72c4:	48 8b 74 c2 f8       	mov    -0x8(%rdx,%rax,8),%rsi
  6c72c9:	48 89 74 c1 20       	mov    %rsi,0x20(%rcx,%rax,8)
  6c72ce:	48 8b 34 c2          	mov    (%rdx,%rax,8),%rsi
  6c72d2:	48 89 74 c1 28       	mov    %rsi,0x28(%rcx,%rax,8)
  6c72d7:	48 83 c0 04          	add    $0x4,%rax
  6c72db:	48 39 c5             	cmp    %rax,%rbp
  6c72de:	75 d0                	jne    6c72b0 <_ZN11__sanitizer30SizeClassAllocator32LocalCacheINS_20SizeClassAllocator32INS_4AP32EEEE5DrainEPNS4_8PerClassEPS3_m+0x160>
  6c72e0:	e9 ff 00 00 00       	jmpq   6c73e4 <_ZN11__sanitizer30SizeClassAllocator32LocalCacheINS_20SizeClassAllocator32INS_4AP32EEEE5DrainEPNS4_8PerClassEPS3_m+0x294>
  6c72e5:	48 ba fc ff ff ff ff 	movabs $0x7ffffffffffffffc,%rdx
  6c72ec:	ff ff 7f 
  6c72ef:	48 89 e8             	mov    %rbp,%rax
  6c72f2:	48 21 d0             	and    %rdx,%rax
  6c72f5:	48 8d 58 fc          	lea    -0x4(%rax),%rbx
  6c72f9:	48 89 df             	mov    %rbx,%rdi
  6c72fc:	48 c1 ef 02          	shr    $0x2,%rdi
  6c7300:	48 83 c7 01          	add    $0x1,%rdi
  6c7304:	89 fe                	mov    %edi,%esi
  6c7306:	83 e6 03             	and    $0x3,%esi
  6c7309:	48 83 fb 0c          	cmp    $0xc,%rbx
  6c730d:	73 04                	jae    6c7313 <_ZN11__sanitizer30SizeClassAllocator32LocalCacheINS_20SizeClassAllocator32INS_4AP32EEEE5DrainEPNS4_8PerClassEPS3_m+0x1c3>
  6c730f:	31 db                	xor    %ebx,%ebx
  6c7311:	eb 79                	jmp    6c738c <_ZN11__sanitizer30SizeClassAllocator32LocalCacheINS_20SizeClassAllocator32INS_4AP32EEEE5DrainEPNS4_8PerClassEPS3_m+0x23c>
  6c7313:	48 21 d7             	and    %rdx,%rdi
  6c7316:	4a 8d 14 e5 00 00 00 	lea    0x0(,%r12,8),%rdx
  6c731d:	00 
  6c731e:	4c 29 c2             	sub    %r8,%rdx
  6c7321:	4c 01 fa             	add    %r15,%rdx
  6c7324:	48 81 c2 90 00 00 00 	add    $0x90,%rdx
  6c732b:	31 db                	xor    %ebx,%ebx
  6c732d:	0f 1f 00             	nopl   (%rax)
  6c7330:	0f 10 44 da 90       	movups -0x70(%rdx,%rbx,8),%xmm0
  6c7335:	0f 10 4c da a0       	movups -0x60(%rdx,%rbx,8),%xmm1
  6c733a:	0f 11 44 d9 10       	movups %xmm0,0x10(%rcx,%rbx,8)
  6c733f:	0f 11 4c d9 20       	movups %xmm1,0x20(%rcx,%rbx,8)
  6c7344:	0f 10 44 da b0       	movups -0x50(%rdx,%rbx,8),%xmm0
  6c7349:	0f 10 4c da c0       	movups -0x40(%rdx,%rbx,8),%xmm1
  6c734e:	0f 11 44 d9 30       	movups %xmm0,0x30(%rcx,%rbx,8)
  6c7353:	0f 11 4c d9 40       	movups %xmm1,0x40(%rcx,%rbx,8)
  6c7358:	0f 10 44 da d0       	movups -0x30(%rdx,%rbx,8),%xmm0
  6c735d:	0f 10 4c da e0       	movups -0x20(%rdx,%rbx,8),%xmm1
  6c7362:	0f 11 44 d9 50       	movups %xmm0,0x50(%rcx,%rbx,8)
  6c7367:	0f 11 4c d9 60       	movups %xmm1,0x60(%rcx,%rbx,8)
  6c736c:	0f 10 44 da f0       	movups -0x10(%rdx,%rbx,8),%xmm0
  6c7371:	0f 10 0c da          	movups (%rdx,%rbx,8),%xmm1
  6c7375:	0f 11 44 d9 70       	movups %xmm0,0x70(%rcx,%rbx,8)
  6c737a:	0f 11 8c d9 80 00 00 	movups %xmm1,0x80(%rcx,%rbx,8)
  6c7381:	00 
  6c7382:	48 83 c3 10          	add    $0x10,%rbx
  6c7386:	48 83 c7 fc          	add    $0xfffffffffffffffc,%rdi
  6c738a:	75 a4                	jne    6c7330 <_ZN11__sanitizer30SizeClassAllocator32LocalCacheINS_20SizeClassAllocator32INS_4AP32EEEE5DrainEPNS4_8PerClassEPS3_m+0x1e0>
  6c738c:	48 85 f6             	test   %rsi,%rsi
  6c738f:	74 4a                	je     6c73db <_ZN11__sanitizer30SizeClassAllocator32LocalCacheINS_20SizeClassAllocator32INS_4AP32EEEE5DrainEPNS4_8PerClassEPS3_m+0x28b>
  6c7391:	48 8d 14 d9          	lea    (%rcx,%rbx,8),%rdx
  6c7395:	48 83 c2 20          	add    $0x20,%rdx
  6c7399:	4a 8d 3c e5 00 00 00 	lea    0x0(,%r12,8),%rdi
  6c73a0:	00 
  6c73a1:	48 8d 3c df          	lea    (%rdi,%rbx,8),%rdi
  6c73a5:	4c 29 c7             	sub    %r8,%rdi
  6c73a8:	4c 01 ff             	add    %r15,%rdi
  6c73ab:	48 83 c7 30          	add    $0x30,%rdi
  6c73af:	48 c1 e6 05          	shl    $0x5,%rsi
  6c73b3:	31 db                	xor    %ebx,%ebx
  6c73b5:	66 2e 0f 1f 84 00 00 	nopw   %cs:0x0(%rax,%rax,1)
  6c73bc:	00 00 00 
  6c73bf:	90                   	nop
  6c73c0:	0f 10 44 1f f0       	movups -0x10(%rdi,%rbx,1),%xmm0
  6c73c5:	0f 10 0c 1f          	movups (%rdi,%rbx,1),%xmm1
  6c73c9:	0f 11 44 1a f0       	movups %xmm0,-0x10(%rdx,%rbx,1)
  6c73ce:	0f 11 0c 1a          	movups %xmm1,(%rdx,%rbx,1)
  6c73d2:	48 83 c3 20          	add    $0x20,%rbx
  6c73d6:	48 39 de             	cmp    %rbx,%rsi
  6c73d9:	75 e5                	jne    6c73c0 <_ZN11__sanitizer30SizeClassAllocator32LocalCacheINS_20SizeClassAllocator32INS_4AP32EEEE5DrainEPNS4_8PerClassEPS3_m+0x270>
  6c73db:	48 39 c5             	cmp    %rax,%rbp
  6c73de:	0f 85 5a fe ff ff    	jne    6c723e <_ZN11__sanitizer30SizeClassAllocator32LocalCacheINS_20SizeClassAllocator32INS_4AP32EEEE5DrainEPNS4_8PerClassEPS3_m+0xee>
  6c73e4:	49 29 2f             	sub    %rbp,(%r15)
  6c73e7:	49 81 c5 00 d8 00 00 	add    $0xd800,%r13
  6c73ee:	4c 89 d7             	mov    %r10,%rdi
  6c73f1:	4c 89 ee             	mov    %r13,%rsi
  6c73f4:	4c 89 ca             	mov    %r9,%rdx
  6c73f7:	48 83 c4 18          	add    $0x18,%rsp
  6c73fb:	5b                   	pop    %rbx
  6c73fc:	41 5c                	pop    %r12
  6c73fe:	41 5d                	pop    %r13
  6c7400:	41 5e                	pop    %r14
  6c7402:	41 5f                	pop    %r15
  6c7404:	5d                   	pop    %rbp
  6c7405:	e9 76 00 00 00       	jmpq   6c7480 <_ZN11__sanitizer20SizeClassAllocator32INS_4AP32EE15DeallocateBatchEPNS_14AllocatorStatsEmPNS2_13TransferBatchE>
  6c740a:	48 8d 3d 50 fc b3 ff 	lea    -0x4c03b0(%rip),%rdi        # 207061 <_IO_stdin_used+0x4271>
  6c7411:	48 8d 15 10 78 b4 ff 	lea    -0x4b87f0(%rip),%rdx        # 20ec28 <_IO_stdin_used+0xbe38>
  6c7418:	41 b8 36 00 00 00    	mov    $0x36,%r8d
  6c741e:	be a1 00 00 00       	mov    $0xa1,%esi
  6c7423:	e8 48 22 01 00       	callq  6d9670 <_ZN11__sanitizer11CheckFailedEPKciS1_yy>
  6c7428:	4c 89 ef             	mov    %r13,%rdi
  6c742b:	48 89 de             	mov    %rbx,%rsi
  6c742e:	4c 89 d2             	mov    %r10,%rdx
  6c7431:	4c 89 4c 24 10       	mov    %r9,0x10(%rsp)
  6c7436:	4c 89 54 24 08       	mov    %r10,0x8(%rsp)
  6c743b:	e8 60 ea ff ff       	callq  6c5ea0 <_ZN11__sanitizer30SizeClassAllocator32LocalCacheINS_20SizeClassAllocator32INS_4AP32EEEE6RefillEPNS4_8PerClassEPS3_m>
  6c7440:	4c 8b 54 24 08       	mov    0x8(%rsp),%r10
  6c7445:	4c 8b 4c 24 10       	mov    0x10(%rsp),%r9
  6c744a:	84 c0                	test   %al,%al
  6c744c:	74 08                	je     6c7456 <_ZN11__sanitizer30SizeClassAllocator32LocalCacheINS_20SizeClassAllocator32INS_4AP32EEEE5DrainEPNS4_8PerClassEPS3_m+0x306>
  6c744e:	48 8b 03             	mov    (%rbx),%rax
  6c7451:	e9 59 fd ff ff       	jmpq   6c71af <_ZN11__sanitizer30SizeClassAllocator32LocalCacheINS_20SizeClassAllocator32INS_4AP32EEEE5DrainEPNS4_8PerClassEPS3_m+0x5f>
  6c7456:	48 8d 05 6b 5b 03 00 	lea    0x35b6b(%rip),%rax        # 6fcfc8 <_ZN11__sanitizer17SanitizerToolNameE>
  6c745d:	48 8b 30             	mov    (%rax),%rsi
  6c7460:	48 8d 3d 3d ce b3 ff 	lea    -0x4c31c3(%rip),%rdi        # 2042a4 <_IO_stdin_used+0x14b4>
  6c7467:	31 c0                	xor    %eax,%eax
  6c7469:	e8 d2 c2 00 00       	callq  6d3740 <_ZN11__sanitizer6ReportEPKcz>
  6c746e:	e8 1d 21 01 00       	callq  6d9590 <_ZN11__sanitizer3DieEv>
  6c7473:	cc                   	int3   
  6c7474:	cc                   	int3   
  6c7475:	cc                   	int3   
  6c7476:	cc                   	int3   
  6c7477:	cc                   	int3   
  6c7478:	cc                   	int3   
  6c7479:	cc                   	int3   
  6c747a:	cc                   	int3   
  6c747b:	cc                   	int3   
  6c747c:	cc                   	int3   
  6c747d:	cc                   	int3   
  6c747e:	cc                   	int3   
  6c747f:	cc                   	int3   

00000000006c7480 <_ZN11__sanitizer20SizeClassAllocator32INS_4AP32EE15DeallocateBatchEPNS_14AllocatorStatsEmPNS2_13TransferBatchE>:
  6c7480:	41 57                	push   %r15
  6c7482:	41 56                	push   %r14
  6c7484:	41 54                	push   %r12
  6c7486:	53                   	push   %rbx
  6c7487:	50                   	push   %rax
  6c7488:	48 83 79 08 00       	cmpq   $0x0,0x8(%rcx)
  6c748d:	74 55                	je     6c74e4 <_ZN11__sanitizer20SizeClassAllocator32INS_4AP32EE15DeallocateBatchEPNS_14AllocatorStatsEmPNS2_13TransferBatchE+0x64>
  6c748f:	49 89 cf             	mov    %rcx,%r15
  6c7492:	48 89 d3             	mov    %rdx,%rbx
  6c7495:	49 89 fc             	mov    %rdi,%r12
  6c7498:	48 c1 e3 06          	shl    $0x6,%rbx
  6c749c:	4c 8d 34 1f          	lea    (%rdi,%rbx,1),%r14
  6c74a0:	49 81 c6 40 00 04 00 	add    $0x40040,%r14
  6c74a7:	b0 01                	mov    $0x1,%al
  6c74a9:	86 84 1f 40 00 04 00 	xchg   %al,0x40040(%rdi,%rbx,1)
  6c74b0:	84 c0                	test   %al,%al
  6c74b2:	75 4d                	jne    6c7501 <_ZN11__sanitizer20SizeClassAllocator32INS_4AP32EE15DeallocateBatchEPNS_14AllocatorStatsEmPNS2_13TransferBatchE+0x81>
  6c74b4:	49 8d 04 1c          	lea    (%r12,%rbx,1),%rax
  6c74b8:	48 05 48 00 04 00    	add    $0x40048,%rax
  6c74be:	49 8b 8c 1c 48 00 04 	mov    0x40048(%r12,%rbx,1),%rcx
  6c74c5:	00 
  6c74c6:	48 85 c9             	test   %rcx,%rcx
  6c74c9:	74 55                	je     6c7520 <_ZN11__sanitizer20SizeClassAllocator32INS_4AP32EE15DeallocateBatchEPNS_14AllocatorStatsEmPNS2_13TransferBatchE+0xa0>
  6c74cb:	49 8b 94 1c 50 00 04 	mov    0x40050(%r12,%rbx,1),%rdx
  6c74d2:	00 
  6c74d3:	49 89 17             	mov    %rdx,(%r15)
  6c74d6:	4d 89 bc 1c 50 00 04 	mov    %r15,0x40050(%r12,%rbx,1)
  6c74dd:	00 
  6c74de:	48 83 c1 01          	add    $0x1,%rcx
  6c74e2:	eb 58                	jmp    6c753c <_ZN11__sanitizer20SizeClassAllocator32INS_4AP32EE15DeallocateBatchEPNS_14AllocatorStatsEmPNS2_13TransferBatchE+0xbc>
  6c74e4:	48 8d 3d 2f 5f b4 ff 	lea    -0x4ba0d1(%rip),%rdi        # 20d41a <_IO_stdin_used+0xa62a>
  6c74eb:	48 8d 15 03 68 b4 ff 	lea    -0x4b97fd(%rip),%rdx        # 20dcf5 <_IO_stdin_used+0xaf05>
  6c74f2:	be ba 00 00 00       	mov    $0xba,%esi
  6c74f7:	31 c9                	xor    %ecx,%ecx
  6c74f9:	45 31 c0             	xor    %r8d,%r8d
  6c74fc:	e8 6f 21 01 00       	callq  6d9670 <_ZN11__sanitizer11CheckFailedEPKciS1_yy>
  6c7501:	4c 89 f7             	mov    %r14,%rdi
  6c7504:	e8 a7 a7 00 00       	callq  6d1cb0 <_ZN11__sanitizer15StaticSpinMutex8LockSlowEv>
  6c7509:	49 8d 04 1c          	lea    (%r12,%rbx,1),%rax
  6c750d:	48 05 48 00 04 00    	add    $0x40048,%rax
  6c7513:	49 8b 8c 1c 48 00 04 	mov    0x40048(%r12,%rbx,1),%rcx
  6c751a:	00 
  6c751b:	48 85 c9             	test   %rcx,%rcx
  6c751e:	75 ab                	jne    6c74cb <_ZN11__sanitizer20SizeClassAllocator32INS_4AP32EE15DeallocateBatchEPNS_14AllocatorStatsEmPNS2_13TransferBatchE+0x4b>
  6c7520:	49 c7 07 00 00 00 00 	movq   $0x0,(%r15)
  6c7527:	4d 89 bc 1c 58 00 04 	mov    %r15,0x40058(%r12,%rbx,1)
  6c752e:	00 
  6c752f:	4d 89 bc 1c 50 00 04 	mov    %r15,0x40050(%r12,%rbx,1)
  6c7536:	00 
  6c7537:	b9 01 00 00 00       	mov    $0x1,%ecx
  6c753c:	48 89 08             	mov    %rcx,(%rax)
  6c753f:	41 c6 06 00          	movb   $0x0,(%r14)
  6c7543:	48 83 c4 08          	add    $0x8,%rsp
  6c7547:	5b                   	pop    %rbx
  6c7548:	41 5c                	pop    %r12
  6c754a:	41 5e                	pop    %r14
  6c754c:	41 5f                	pop    %r15
  6c754e:	c3                   	retq   
  6c754f:	cc                   	int3   

00000000006c7550 <_ZN11__sanitizer17CombinedAllocatorINS_20SizeClassAllocator32INS_4AP32EEENS_32LargeMmapAllocatorPtrArrayStaticEE10ReallocateEPNS_30SizeClassAllocator32LocalCacheIS3_EEPvmm>:
  6c7550:	55                   	push   %rbp
  6c7551:	41 57                	push   %r15
  6c7553:	41 56                	push   %r14
  6c7555:	41 55                	push   %r13
  6c7557:	41 54                	push   %r12
  6c7559:	53                   	push   %rbx
  6c755a:	50                   	push   %rax
  6c755b:	4c 89 c3             	mov    %r8,%rbx
  6c755e:	49 89 cc             	mov    %rcx,%r12
  6c7561:	49 89 f6             	mov    %rsi,%r14
  6c7564:	49 89 ff             	mov    %rdi,%r15
  6c7567:	48 85 d2             	test   %rdx,%rdx
  6c756a:	0f 84 ad 00 00 00    	je     6c761d <_ZN11__sanitizer17CombinedAllocatorINS_20SizeClassAllocator32INS_4AP32EEENS_32LargeMmapAllocatorPtrArrayStaticEE10ReallocateEPNS_30SizeClassAllocator32LocalCacheIS3_EEPvmm+0xcd>
  6c7570:	48 89 d5             	mov    %rdx,%rbp
  6c7573:	4d 85 e4             	test   %r12,%r12
  6c7576:	0f 84 c0 00 00 00    	je     6c763c <_ZN11__sanitizer17CombinedAllocatorINS_20SizeClassAllocator32INS_4AP32EEENS_32LargeMmapAllocatorPtrArrayStaticEE10ReallocateEPNS_30SizeClassAllocator32LocalCacheIS3_EEPvmm+0xec>
  6c757c:	48 89 e8             	mov    %rbp,%rax
  6c757f:	48 c1 e8 2f          	shr    $0x2f,%rax
  6c7583:	75 34                	jne    6c75b9 <_ZN11__sanitizer17CombinedAllocatorINS_20SizeClassAllocator32INS_4AP32EEENS_32LargeMmapAllocatorPtrArrayStaticEE10ReallocateEPNS_30SizeClassAllocator32LocalCacheIS3_EEPvmm+0x69>
  6c7585:	48 89 ee             	mov    %rbp,%rsi
  6c7588:	48 c1 ee 20          	shr    $0x20,%rsi
  6c758c:	49 8b 44 f7 08       	mov    0x8(%r15,%rsi,8),%rax
  6c7591:	48 85 c0             	test   %rax,%rax
  6c7594:	74 23                	je     6c75b9 <_ZN11__sanitizer17CombinedAllocatorINS_20SizeClassAllocator32INS_4AP32EEENS_32LargeMmapAllocatorPtrArrayStaticEE10ReallocateEPNS_30SizeClassAllocator32LocalCacheIS3_EEPvmm+0x69>
  6c7596:	49 89 ed             	mov    %rbp,%r13
  6c7599:	49 c1 ed 14          	shr    $0x14,%r13
  6c759d:	49 8b 44 f7 08       	mov    0x8(%r15,%rsi,8),%rax
  6c75a2:	48 85 c0             	test   %rax,%rax
  6c75a5:	0f 84 d0 00 00 00    	je     6c767b <_ZN11__sanitizer17CombinedAllocatorINS_20SizeClassAllocator32INS_4AP32EEENS_32LargeMmapAllocatorPtrArrayStaticEE10ReallocateEPNS_30SizeClassAllocator32LocalCacheIS3_EEPvmm+0x12b>
  6c75ab:	41 81 e5 ff 0f 00 00 	and    $0xfff,%r13d
  6c75b2:	42 80 3c 28 00       	cmpb   $0x0,(%rax,%r13,1)
  6c75b7:	75 18                	jne    6c75d1 <_ZN11__sanitizer17CombinedAllocatorINS_20SizeClassAllocator32INS_4AP32EEENS_32LargeMmapAllocatorPtrArrayStaticEE10ReallocateEPNS_30SizeClassAllocator32LocalCacheIS3_EEPvmm+0x81>
  6c75b9:	49 8d bf c0 0d 04 00 	lea    0x40dc0(%r15),%rdi
  6c75c0:	48 89 ee             	mov    %rbp,%rsi
  6c75c3:	e8 98 03 00 00       	callq  6c7960 <_ZNK11__sanitizer18LargeMmapAllocatorINS_20NoOpMapUnmapCallbackENS_32LargeMmapAllocatorPtrArrayStaticENS_21LocalAddressSpaceViewEE13GetBlockBeginEPKv>
  6c75c8:	48 85 c0             	test   %rax,%rax
  6c75cb:	0f 84 8d 00 00 00    	je     6c765e <_ZN11__sanitizer17CombinedAllocatorINS_20SizeClassAllocator32INS_4AP32EEENS_32LargeMmapAllocatorPtrArrayStaticEE10ReallocateEPNS_30SizeClassAllocator32LocalCacheIS3_EEPvmm+0x10e>
  6c75d1:	4c 89 ff             	mov    %r15,%rdi
  6c75d4:	48 89 ee             	mov    %rbp,%rsi
  6c75d7:	e8 a4 01 00 00       	callq  6c7780 <_ZN11__sanitizer17CombinedAllocatorINS_20SizeClassAllocator32INS_4AP32EEENS_32LargeMmapAllocatorPtrArrayStaticEE24GetActuallyAllocatedSizeEPv>
  6c75dc:	49 89 c5             	mov    %rax,%r13
  6c75df:	4c 89 ff             	mov    %r15,%rdi
  6c75e2:	4c 89 f6             	mov    %r14,%rsi
  6c75e5:	4c 89 e2             	mov    %r12,%rdx
  6c75e8:	48 89 d9             	mov    %rbx,%rcx
  6c75eb:	e8 00 e4 ff ff       	callq  6c59f0 <_ZN11__sanitizer17CombinedAllocatorINS_20SizeClassAllocator32INS_4AP32EEENS_32LargeMmapAllocatorPtrArrayStaticEE8AllocateEPNS_30SizeClassAllocator32LocalCacheIS3_EEmm>
  6c75f0:	48 89 c3             	mov    %rax,%rbx
  6c75f3:	48 85 c0             	test   %rax,%rax
  6c75f6:	74 15                	je     6c760d <_ZN11__sanitizer17CombinedAllocatorINS_20SizeClassAllocator32INS_4AP32EEENS_32LargeMmapAllocatorPtrArrayStaticEE10ReallocateEPNS_30SizeClassAllocator32LocalCacheIS3_EEPvmm+0xbd>
  6c75f8:	4d 39 e5             	cmp    %r12,%r13
  6c75fb:	4d 0f 47 ec          	cmova  %r12,%r13
  6c75ff:	48 89 df             	mov    %rbx,%rdi
  6c7602:	48 89 ee             	mov    %rbp,%rsi
  6c7605:	4c 89 ea             	mov    %r13,%rdx
  6c7608:	e8 b3 64 00 00       	callq  6cdac0 <_ZN11__sanitizer15internal_memcpyEPvPKvm>
  6c760d:	4c 89 ff             	mov    %r15,%rdi
  6c7610:	4c 89 f6             	mov    %r14,%rsi
  6c7613:	48 89 ea             	mov    %rbp,%rdx
  6c7616:	e8 85 00 00 00       	callq  6c76a0 <_ZN11__sanitizer17CombinedAllocatorINS_20SizeClassAllocator32INS_4AP32EEENS_32LargeMmapAllocatorPtrArrayStaticEE10DeallocateEPNS_30SizeClassAllocator32LocalCacheIS3_EEPv>
  6c761b:	eb 2f                	jmp    6c764c <_ZN11__sanitizer17CombinedAllocatorINS_20SizeClassAllocator32INS_4AP32EEENS_32LargeMmapAllocatorPtrArrayStaticEE10ReallocateEPNS_30SizeClassAllocator32LocalCacheIS3_EEPvmm+0xfc>
  6c761d:	4c 89 ff             	mov    %r15,%rdi
  6c7620:	4c 89 f6             	mov    %r14,%rsi
  6c7623:	4c 89 e2             	mov    %r12,%rdx
  6c7626:	48 89 d9             	mov    %rbx,%rcx
  6c7629:	48 83 c4 08          	add    $0x8,%rsp
  6c762d:	5b                   	pop    %rbx
  6c762e:	41 5c                	pop    %r12
  6c7630:	41 5d                	pop    %r13
  6c7632:	41 5e                	pop    %r14
  6c7634:	41 5f                	pop    %r15
  6c7636:	5d                   	pop    %rbp
  6c7637:	e9 b4 e3 ff ff       	jmpq   6c59f0 <_ZN11__sanitizer17CombinedAllocatorINS_20SizeClassAllocator32INS_4AP32EEENS_32LargeMmapAllocatorPtrArrayStaticEE8AllocateEPNS_30SizeClassAllocator32LocalCacheIS3_EEmm>
  6c763c:	4c 89 ff             	mov    %r15,%rdi
  6c763f:	4c 89 f6             	mov    %r14,%rsi
  6c7642:	48 89 ea             	mov    %rbp,%rdx
  6c7645:	e8 56 00 00 00       	callq  6c76a0 <_ZN11__sanitizer17CombinedAllocatorINS_20SizeClassAllocator32INS_4AP32EEENS_32LargeMmapAllocatorPtrArrayStaticEE10DeallocateEPNS_30SizeClassAllocator32LocalCacheIS3_EEPv>
  6c764a:	31 db                	xor    %ebx,%ebx
  6c764c:	48 89 d8             	mov    %rbx,%rax
  6c764f:	48 83 c4 08          	add    $0x8,%rsp
  6c7653:	5b                   	pop    %rbx
  6c7654:	41 5c                	pop    %r12
  6c7656:	41 5d                	pop    %r13
  6c7658:	41 5e                	pop    %r14
  6c765a:	41 5f                	pop    %r15
  6c765c:	5d                   	pop    %rbp
  6c765d:	c3                   	retq   
  6c765e:	48 8d 3d d0 9f b4 ff 	lea    -0x4b6030(%rip),%rdi        # 211635 <_IO_stdin_used+0xe845>
  6c7665:	48 8d 15 9c 24 b4 ff 	lea    -0x4bdb64(%rip),%rdx        # 209b08 <_IO_stdin_used+0x6d18>
  6c766c:	be 69 00 00 00       	mov    $0x69,%esi
  6c7671:	31 c9                	xor    %ecx,%ecx
  6c7673:	45 31 c0             	xor    %r8d,%r8d
  6c7676:	e8 f5 1f 01 00       	callq  6d9670 <_ZN11__sanitizer11CheckFailedEPKciS1_yy>
  6c767b:	4c 89 ff             	mov    %r15,%rdi
  6c767e:	e8 fd f7 ff ff       	callq  6c6e80 <_ZNK11__sanitizer11TwoLevelMapIhLy32768ELy4096ENS_21LocalAddressSpaceViewENS_20NoOpMapUnmapCallbackEE6CreateEm>
  6c7683:	41 81 e5 ff 0f 00 00 	and    $0xfff,%r13d
  6c768a:	42 80 3c 28 00       	cmpb   $0x0,(%rax,%r13,1)
  6c768f:	0f 85 3c ff ff ff    	jne    6c75d1 <_ZN11__sanitizer17CombinedAllocatorINS_20SizeClassAllocator32INS_4AP32EEENS_32LargeMmapAllocatorPtrArrayStaticEE10ReallocateEPNS_30SizeClassAllocator32LocalCacheIS3_EEPvmm+0x81>
  6c7695:	e9 1f ff ff ff       	jmpq   6c75b9 <_ZN11__sanitizer17CombinedAllocatorINS_20SizeClassAllocator32INS_4AP32EEENS_32LargeMmapAllocatorPtrArrayStaticEE10ReallocateEPNS_30SizeClassAllocator32LocalCacheIS3_EEPvmm+0x69>
  6c769a:	cc                   	int3   
  6c769b:	cc                   	int3   
  6c769c:	cc                   	int3   
  6c769d:	cc                   	int3   
  6c769e:	cc                   	int3   
  6c769f:	cc                   	int3   

00000000006c76a0 <_ZN11__sanitizer17CombinedAllocatorINS_20SizeClassAllocator32INS_4AP32EEENS_32LargeMmapAllocatorPtrArrayStaticEE10DeallocateEPNS_30SizeClassAllocator32LocalCacheIS3_EEPv>:
  6c76a0:	41 57                	push   %r15
  6c76a2:	41 56                	push   %r14
  6c76a4:	41 55                	push   %r13
  6c76a6:	41 54                	push   %r12
  6c76a8:	53                   	push   %rbx
  6c76a9:	48 85 d2             	test   %rdx,%rdx
  6c76ac:	74 61                	je     6c770f <_ZN11__sanitizer17CombinedAllocatorINS_20SizeClassAllocator32INS_4AP32EEENS_32LargeMmapAllocatorPtrArrayStaticEE10DeallocateEPNS_30SizeClassAllocator32LocalCacheIS3_EEPv+0x6f>
  6c76ae:	49 89 d6             	mov    %rdx,%r14
  6c76b1:	48 89 fb             	mov    %rdi,%rbx
  6c76b4:	48 89 d0             	mov    %rdx,%rax
  6c76b7:	48 c1 e8 2f          	shr    $0x2f,%rax
  6c76bb:	0f 85 8a 00 00 00    	jne    6c774b <_ZN11__sanitizer17CombinedAllocatorINS_20SizeClassAllocator32INS_4AP32EEENS_32LargeMmapAllocatorPtrArrayStaticEE10DeallocateEPNS_30SizeClassAllocator32LocalCacheIS3_EEPv+0xab>
  6c76c1:	4d 89 f4             	mov    %r14,%r12
  6c76c4:	49 c1 ec 20          	shr    $0x20,%r12
  6c76c8:	4a 8b 44 e3 08       	mov    0x8(%rbx,%r12,8),%rax
  6c76cd:	48 85 c0             	test   %rax,%rax
  6c76d0:	74 79                	je     6c774b <_ZN11__sanitizer17CombinedAllocatorINS_20SizeClassAllocator32INS_4AP32EEENS_32LargeMmapAllocatorPtrArrayStaticEE10DeallocateEPNS_30SizeClassAllocator32LocalCacheIS3_EEPv+0xab>
  6c76d2:	49 89 f7             	mov    %rsi,%r15
  6c76d5:	4d 89 f5             	mov    %r14,%r13
  6c76d8:	49 c1 ed 14          	shr    $0x14,%r13
  6c76dc:	4a 8b 44 e3 08       	mov    0x8(%rbx,%r12,8),%rax
  6c76e1:	48 85 c0             	test   %rax,%rax
  6c76e4:	74 4c                	je     6c7732 <_ZN11__sanitizer17CombinedAllocatorINS_20SizeClassAllocator32INS_4AP32EEENS_32LargeMmapAllocatorPtrArrayStaticEE10DeallocateEPNS_30SizeClassAllocator32LocalCacheIS3_EEPv+0x92>
  6c76e6:	41 81 e5 ff 0f 00 00 	and    $0xfff,%r13d
  6c76ed:	42 80 3c 28 00       	cmpb   $0x0,(%rax,%r13,1)
  6c76f2:	74 57                	je     6c774b <_ZN11__sanitizer17CombinedAllocatorINS_20SizeClassAllocator32INS_4AP32EEENS_32LargeMmapAllocatorPtrArrayStaticEE10DeallocateEPNS_30SizeClassAllocator32LocalCacheIS3_EEPv+0xab>
  6c76f4:	4a 8b 44 e3 08       	mov    0x8(%rbx,%r12,8),%rax
  6c76f9:	48 85 c0             	test   %rax,%rax
  6c76fc:	74 1b                	je     6c7719 <_ZN11__sanitizer17CombinedAllocatorINS_20SizeClassAllocator32INS_4AP32EEENS_32LargeMmapAllocatorPtrArrayStaticEE10DeallocateEPNS_30SizeClassAllocator32LocalCacheIS3_EEPv+0x79>
  6c76fe:	4a 8b 44 e3 08       	mov    0x8(%rbx,%r12,8),%rax
  6c7703:	48 85 c0             	test   %rax,%rax
  6c7706:	74 65                	je     6c776d <_ZN11__sanitizer17CombinedAllocatorINS_20SizeClassAllocator32INS_4AP32EEENS_32LargeMmapAllocatorPtrArrayStaticEE10DeallocateEPNS_30SizeClassAllocator32LocalCacheIS3_EEPv+0xcd>
  6c7708:	42 0f b6 14 28       	movzbl (%rax,%r13,1),%edx
  6c770d:	eb 0c                	jmp    6c771b <_ZN11__sanitizer17CombinedAllocatorINS_20SizeClassAllocator32INS_4AP32EEENS_32LargeMmapAllocatorPtrArrayStaticEE10DeallocateEPNS_30SizeClassAllocator32LocalCacheIS3_EEPv+0x7b>
  6c770f:	5b                   	pop    %rbx
  6c7710:	41 5c                	pop    %r12
  6c7712:	41 5d                	pop    %r13
  6c7714:	41 5e                	pop    %r14
  6c7716:	41 5f                	pop    %r15
  6c7718:	c3                   	retq   
  6c7719:	31 d2                	xor    %edx,%edx
  6c771b:	4c 89 ff             	mov    %r15,%rdi
  6c771e:	48 89 de             	mov    %rbx,%rsi
  6c7721:	4c 89 f1             	mov    %r14,%rcx
  6c7724:	5b                   	pop    %rbx
  6c7725:	41 5c                	pop    %r12
  6c7727:	41 5d                	pop    %r13
  6c7729:	41 5e                	pop    %r14
  6c772b:	41 5f                	pop    %r15
  6c772d:	e9 7e f8 ff ff       	jmpq   6c6fb0 <_ZN11__sanitizer30SizeClassAllocator32LocalCacheINS_20SizeClassAllocator32INS_4AP32EEEE10DeallocateEPS3_mPv>
  6c7732:	48 89 df             	mov    %rbx,%rdi
  6c7735:	4c 89 e6             	mov    %r12,%rsi
  6c7738:	e8 43 f7 ff ff       	callq  6c6e80 <_ZNK11__sanitizer11TwoLevelMapIhLy32768ELy4096ENS_21LocalAddressSpaceViewENS_20NoOpMapUnmapCallbackEE6CreateEm>
  6c773d:	41 81 e5 ff 0f 00 00 	and    $0xfff,%r13d
  6c7744:	42 80 3c 28 00       	cmpb   $0x0,(%rax,%r13,1)
  6c7749:	75 a9                	jne    6c76f4 <_ZN11__sanitizer17CombinedAllocatorINS_20SizeClassAllocator32INS_4AP32EEENS_32LargeMmapAllocatorPtrArrayStaticEE10DeallocateEPNS_30SizeClassAllocator32LocalCacheIS3_EEPv+0x54>
  6c774b:	48 8d bb c0 0d 04 00 	lea    0x40dc0(%rbx),%rdi
  6c7752:	48 81 c3 08 10 08 00 	add    $0x81008,%rbx
  6c7759:	48 89 de             	mov    %rbx,%rsi
  6c775c:	4c 89 f2             	mov    %r14,%rdx
  6c775f:	5b                   	pop    %rbx
  6c7760:	41 5c                	pop    %r12
  6c7762:	41 5d                	pop    %r13
  6c7764:	41 5e                	pop    %r14
  6c7766:	41 5f                	pop    %r15
  6c7768:	e9 d3 00 00 00       	jmpq   6c7840 <_ZN11__sanitizer18LargeMmapAllocatorINS_20NoOpMapUnmapCallbackENS_32LargeMmapAllocatorPtrArrayStaticENS_21LocalAddressSpaceViewEE10DeallocateEPNS_14AllocatorStatsEPv>
  6c776d:	48 89 df             	mov    %rbx,%rdi
  6c7770:	4c 89 e6             	mov    %r12,%rsi
  6c7773:	e8 08 f7 ff ff       	callq  6c6e80 <_ZNK11__sanitizer11TwoLevelMapIhLy32768ELy4096ENS_21LocalAddressSpaceViewENS_20NoOpMapUnmapCallbackEE6CreateEm>
  6c7778:	eb 8e                	jmp    6c7708 <_ZN11__sanitizer17CombinedAllocatorINS_20SizeClassAllocator32INS_4AP32EEENS_32LargeMmapAllocatorPtrArrayStaticEE10DeallocateEPNS_30SizeClassAllocator32LocalCacheIS3_EEPv+0x68>
  6c777a:	cc                   	int3   
  6c777b:	cc                   	int3   
  6c777c:	cc                   	int3   
  6c777d:	cc                   	int3   
  6c777e:	cc                   	int3   
  6c777f:	cc                   	int3   

00000000006c7780 <_ZN11__sanitizer17CombinedAllocatorINS_20SizeClassAllocator32INS_4AP32EEENS_32LargeMmapAllocatorPtrArrayStaticEE24GetActuallyAllocatedSizeEPv>:
  6c7780:	41 57                	push   %r15
  6c7782:	41 56                	push   %r14
  6c7784:	53                   	push   %rbx
  6c7785:	48 89 f3             	mov    %rsi,%rbx
  6c7788:	49 89 fe             	mov    %rdi,%r14
  6c778b:	48 89 f0             	mov    %rsi,%rax
  6c778e:	48 c1 e8 2f          	shr    $0x2f,%rax
  6c7792:	75 56                	jne    6c77ea <_ZN11__sanitizer17CombinedAllocatorINS_20SizeClassAllocator32INS_4AP32EEENS_32LargeMmapAllocatorPtrArrayStaticEE24GetActuallyAllocatedSizeEPv+0x6a>
  6c7794:	48 89 de             	mov    %rbx,%rsi
  6c7797:	48 c1 ee 20          	shr    $0x20,%rsi
  6c779b:	49 8b 44 f6 08       	mov    0x8(%r14,%rsi,8),%rax
  6c77a0:	48 85 c0             	test   %rax,%rax
  6c77a3:	74 45                	je     6c77ea <_ZN11__sanitizer17CombinedAllocatorINS_20SizeClassAllocator32INS_4AP32EEENS_32LargeMmapAllocatorPtrArrayStaticEE24GetActuallyAllocatedSizeEPv+0x6a>
  6c77a5:	49 89 df             	mov    %rbx,%r15
  6c77a8:	49 c1 ef 14          	shr    $0x14,%r15
  6c77ac:	49 8b 44 f6 08       	mov    0x8(%r14,%rsi,8),%rax
  6c77b1:	48 85 c0             	test   %rax,%rax
  6c77b4:	74 1e                	je     6c77d4 <_ZN11__sanitizer17CombinedAllocatorINS_20SizeClassAllocator32INS_4AP32EEENS_32LargeMmapAllocatorPtrArrayStaticEE24GetActuallyAllocatedSizeEPv+0x54>
  6c77b6:	41 81 e7 ff 0f 00 00 	and    $0xfff,%r15d
  6c77bd:	42 80 3c 38 00       	cmpb   $0x0,(%rax,%r15,1)
  6c77c2:	74 26                	je     6c77ea <_ZN11__sanitizer17CombinedAllocatorINS_20SizeClassAllocator32INS_4AP32EEENS_32LargeMmapAllocatorPtrArrayStaticEE24GetActuallyAllocatedSizeEPv+0x6a>
  6c77c4:	4c 89 f7             	mov    %r14,%rdi
  6c77c7:	48 89 de             	mov    %rbx,%rsi
  6c77ca:	5b                   	pop    %rbx
  6c77cb:	41 5e                	pop    %r14
  6c77cd:	41 5f                	pop    %r15
  6c77cf:	e9 3c 03 00 00       	jmpq   6c7b10 <_ZN11__sanitizer20SizeClassAllocator32INS_4AP32EE24GetActuallyAllocatedSizeEPv>
  6c77d4:	4c 89 f7             	mov    %r14,%rdi
  6c77d7:	e8 a4 f6 ff ff       	callq  6c6e80 <_ZNK11__sanitizer11TwoLevelMapIhLy32768ELy4096ENS_21LocalAddressSpaceViewENS_20NoOpMapUnmapCallbackEE6CreateEm>
  6c77dc:	41 81 e7 ff 0f 00 00 	and    $0xfff,%r15d
  6c77e3:	42 80 3c 38 00       	cmpb   $0x0,(%rax,%r15,1)
  6c77e8:	75 da                	jne    6c77c4 <_ZN11__sanitizer17CombinedAllocatorINS_20SizeClassAllocator32INS_4AP32EEENS_32LargeMmapAllocatorPtrArrayStaticEE24GetActuallyAllocatedSizeEPv+0x44>
  6c77ea:	49 8b 86 c0 0d 04 00 	mov    0x40dc0(%r14),%rax
  6c77f1:	48 8d 48 ff          	lea    -0x1(%rax),%rcx
  6c77f5:	48 85 d9             	test   %rbx,%rcx
  6c77f8:	75 18                	jne    6c7812 <_ZN11__sanitizer17CombinedAllocatorINS_20SizeClassAllocator32INS_4AP32EEENS_32LargeMmapAllocatorPtrArrayStaticEE24GetActuallyAllocatedSizeEPv+0x92>
  6c77fa:	48 85 c8             	test   %rcx,%rax
  6c77fd:	75 30                	jne    6c782f <_ZN11__sanitizer17CombinedAllocatorINS_20SizeClassAllocator32INS_4AP32EEENS_32LargeMmapAllocatorPtrArrayStaticEE24GetActuallyAllocatedSizeEPv+0xaf>
  6c77ff:	48 29 c3             	sub    %rax,%rbx
  6c7802:	48 03 4b 10          	add    0x10(%rbx),%rcx
  6c7806:	48 f7 d8             	neg    %rax
  6c7809:	48 21 c8             	and    %rcx,%rax
  6c780c:	5b                   	pop    %rbx
  6c780d:	41 5e                	pop    %r14
  6c780f:	41 5f                	pop    %r15
  6c7811:	c3                   	retq   
  6c7812:	48 8d 3d 65 39 b4 ff 	lea    -0x4bc69b(%rip),%rdi        # 20b17e <_IO_stdin_used+0x838e>
  6c7819:	48 8d 15 f8 64 b4 ff 	lea    -0x4b9b08(%rip),%rdx        # 20dd18 <_IO_stdin_used+0xaf28>
  6c7820:	be 29 01 00 00       	mov    $0x129,%esi
  6c7825:	31 c9                	xor    %ecx,%ecx
  6c7827:	45 31 c0             	xor    %r8d,%r8d
  6c782a:	e8 41 1e 01 00       	callq  6d9670 <_ZN11__sanitizer11CheckFailedEPKciS1_yy>
  6c782f:	48 8d 3d 00 3a b4 ff 	lea    -0x4bc600(%rip),%rdi        # 20b236 <_IO_stdin_used+0x8446>
  6c7836:	e8 75 31 00 00       	callq  6ca9b0 <_ZN11__sanitizer8RawWriteEPKc>
  6c783b:	e8 50 1d 01 00       	callq  6d9590 <_ZN11__sanitizer3DieEv>

00000000006c7840 <_ZN11__sanitizer18LargeMmapAllocatorINS_20NoOpMapUnmapCallbackENS_32LargeMmapAllocatorPtrArrayStaticENS_21LocalAddressSpaceViewEE10DeallocateEPNS_14AllocatorStatsEPv>:
  6c7840:	41 57                	push   %r15
  6c7842:	41 56                	push   %r14
  6c7844:	53                   	push   %rbx
  6c7845:	48 8b 07             	mov    (%rdi),%rax
  6c7848:	48 8d 48 ff          	lea    -0x1(%rax),%rcx
  6c784c:	48 85 d1             	test   %rdx,%rcx
  6c784f:	0f 85 9b 00 00 00    	jne    6c78f0 <_ZN11__sanitizer18LargeMmapAllocatorINS_20NoOpMapUnmapCallbackENS_32LargeMmapAllocatorPtrArrayStaticENS_21LocalAddressSpaceViewEE10DeallocateEPNS_14AllocatorStatsEPv+0xb0>
  6c7855:	49 89 d6             	mov    %rdx,%r14
  6c7858:	49 89 f7             	mov    %rsi,%r15
  6c785b:	48 89 fb             	mov    %rdi,%rbx
  6c785e:	49 29 c6             	sub    %rax,%r14
  6c7861:	b0 01                	mov    $0x1,%al
  6c7863:	86 87 40 02 04 00    	xchg   %al,0x40240(%rdi)
  6c7869:	84 c0                	test   %al,%al
  6c786b:	0f 85 9c 00 00 00    	jne    6c790d <_ZN11__sanitizer18LargeMmapAllocatorINS_20NoOpMapUnmapCallbackENS_32LargeMmapAllocatorPtrArrayStaticENS_21LocalAddressSpaceViewEE10DeallocateEPNS_14AllocatorStatsEPv+0xcd>
  6c7871:	49 8b 4e 18          	mov    0x18(%r14),%rcx
  6c7875:	48 8b 53 08          	mov    0x8(%rbx),%rdx
  6c7879:	48 8b 04 ca          	mov    (%rdx,%rcx,8),%rax
  6c787d:	4c 39 f0             	cmp    %r14,%rax
  6c7880:	0f 85 98 00 00 00    	jne    6c791e <_ZN11__sanitizer18LargeMmapAllocatorINS_20NoOpMapUnmapCallbackENS_32LargeMmapAllocatorPtrArrayStaticENS_21LocalAddressSpaceViewEE10DeallocateEPNS_14AllocatorStatsEPv+0xde>
  6c7886:	4c 8b 83 10 00 04 00 	mov    0x40010(%rbx),%r8
  6c788d:	4c 39 c1             	cmp    %r8,%rcx
  6c7890:	0f 83 a6 00 00 00    	jae    6c793c <_ZN11__sanitizer18LargeMmapAllocatorINS_20NoOpMapUnmapCallbackENS_32LargeMmapAllocatorPtrArrayStaticENS_21LocalAddressSpaceViewEE10DeallocateEPNS_14AllocatorStatsEPv+0xfc>
  6c7896:	49 8d 40 ff          	lea    -0x1(%r8),%rax
  6c789a:	48 89 83 10 00 04 00 	mov    %rax,0x40010(%rbx)
  6c78a1:	4a 8b 44 c2 f8       	mov    -0x8(%rdx,%r8,8),%rax
  6c78a6:	48 89 04 ca          	mov    %rax,(%rdx,%rcx,8)
  6c78aa:	48 8b 43 08          	mov    0x8(%rbx),%rax
  6c78ae:	48 8b 04 c8          	mov    (%rax,%rcx,8),%rax
  6c78b2:	48 89 48 18          	mov    %rcx,0x18(%rax)
  6c78b6:	c6 83 18 00 04 00 00 	movb   $0x0,0x40018(%rbx)
  6c78bd:	48 83 83 28 00 04 00 	addq   $0x1,0x40028(%rbx)
  6c78c4:	01 
  6c78c5:	49 8b 46 08          	mov    0x8(%r14),%rax
  6c78c9:	48 29 83 30 00 04 00 	sub    %rax,0x40030(%rbx)
  6c78d0:	49 29 47 10          	sub    %rax,0x10(%r15)
  6c78d4:	49 29 47 18          	sub    %rax,0x18(%r15)
  6c78d8:	c6 83 40 02 04 00 00 	movb   $0x0,0x40240(%rbx)
  6c78df:	49 8b 3e             	mov    (%r14),%rdi
  6c78e2:	49 8b 76 08          	mov    0x8(%r14),%rsi
  6c78e6:	5b                   	pop    %rbx
  6c78e7:	41 5e                	pop    %r14
  6c78e9:	41 5f                	pop    %r15
  6c78eb:	e9 10 a6 00 00       	jmpq   6d1f00 <_ZN11__sanitizer10UnmapOrDieEPvm>
  6c78f0:	48 8d 3d 87 38 b4 ff 	lea    -0x4bc779(%rip),%rdi        # 20b17e <_IO_stdin_used+0x838e>
  6c78f7:	48 8d 15 1a 64 b4 ff 	lea    -0x4b9be6(%rip),%rdx        # 20dd18 <_IO_stdin_used+0xaf28>
  6c78fe:	be 29 01 00 00       	mov    $0x129,%esi
  6c7903:	31 c9                	xor    %ecx,%ecx
  6c7905:	45 31 c0             	xor    %r8d,%r8d
  6c7908:	e8 63 1d 01 00       	callq  6d9670 <_ZN11__sanitizer11CheckFailedEPKciS1_yy>
  6c790d:	48 8d bb 40 02 04 00 	lea    0x40240(%rbx),%rdi
  6c7914:	e8 97 a3 00 00       	callq  6d1cb0 <_ZN11__sanitizer15StaticSpinMutex8LockSlowEv>
  6c7919:	e9 53 ff ff ff       	jmpq   6c7871 <_ZN11__sanitizer18LargeMmapAllocatorINS_20NoOpMapUnmapCallbackENS_32LargeMmapAllocatorPtrArrayStaticENS_21LocalAddressSpaceViewEE10DeallocateEPNS_14AllocatorStatsEPv+0x31>
  6c791e:	48 8d 3d 59 38 b4 ff 	lea    -0x4bc7a7(%rip),%rdi        # 20b17e <_IO_stdin_used+0x838e>
  6c7925:	48 8d 15 b9 1d b4 ff 	lea    -0x4be247(%rip),%rdx        # 2096e5 <_IO_stdin_used+0x68f5>
  6c792c:	be 8b 00 00 00       	mov    $0x8b,%esi
  6c7931:	48 89 c1             	mov    %rax,%rcx
  6c7934:	4d 89 f0             	mov    %r14,%r8
  6c7937:	e8 34 1d 01 00       	callq  6d9670 <_ZN11__sanitizer11CheckFailedEPKciS1_yy>
  6c793c:	48 8d 3d 3b 38 b4 ff 	lea    -0x4bc7c5(%rip),%rdi        # 20b17e <_IO_stdin_used+0x838e>
  6c7943:	48 8d 15 44 32 b4 ff 	lea    -0x4bcdbc(%rip),%rdx        # 20ab8e <_IO_stdin_used+0x7d9e>
  6c794a:	be 8c 00 00 00       	mov    $0x8c,%esi
  6c794f:	e8 1c 1d 01 00       	callq  6d9670 <_ZN11__sanitizer11CheckFailedEPKciS1_yy>
  6c7954:	cc                   	int3   
  6c7955:	cc                   	int3   
  6c7956:	cc                   	int3   
  6c7957:	cc                   	int3   
  6c7958:	cc                   	int3   
  6c7959:	cc                   	int3   
  6c795a:	cc                   	int3   
  6c795b:	cc                   	int3   
  6c795c:	cc                   	int3   
  6c795d:	cc                   	int3   
  6c795e:	cc                   	int3   
  6c795f:	cc                   	int3   

00000000006c7960 <_ZNK11__sanitizer18LargeMmapAllocatorINS_20NoOpMapUnmapCallbackENS_32LargeMmapAllocatorPtrArrayStaticENS_21LocalAddressSpaceViewEE13GetBlockBeginEPKv>:
  6c7960:	41 57                	push   %r15
  6c7962:	41 56                	push   %r14
  6c7964:	41 54                	push   %r12
  6c7966:	53                   	push   %rbx
  6c7967:	50                   	push   %rax
  6c7968:	49 89 f4             	mov    %rsi,%r12
  6c796b:	49 89 ff             	mov    %rdi,%r15
  6c796e:	4c 8d b7 40 02 04 00 	lea    0x40240(%rdi),%r14
  6c7975:	b0 01                	mov    $0x1,%al
  6c7977:	86 87 40 02 04 00    	xchg   %al,0x40240(%rdi)
  6c797d:	84 c0                	test   %al,%al
  6c797f:	0f 85 ef 00 00 00    	jne    6c7a74 <_ZNK11__sanitizer18LargeMmapAllocatorINS_20NoOpMapUnmapCallbackENS_32LargeMmapAllocatorPtrArrayStaticENS_21LocalAddressSpaceViewEE13GetBlockBeginEPKv+0x114>
  6c7985:	4d 8b 87 10 00 04 00 	mov    0x40010(%r15),%r8
  6c798c:	4d 85 c0             	test   %r8,%r8
  6c798f:	0f 84 f7 00 00 00    	je     6c7a8c <_ZNK11__sanitizer18LargeMmapAllocatorINS_20NoOpMapUnmapCallbackENS_32LargeMmapAllocatorPtrArrayStaticENS_21LocalAddressSpaceViewEE13GetBlockBeginEPKv+0x12c>
  6c7995:	4d 8b 57 08          	mov    0x8(%r15),%r10
  6c7999:	49 83 f8 01          	cmp    $0x1,%r8
  6c799d:	75 74                	jne    6c7a13 <_ZNK11__sanitizer18LargeMmapAllocatorINS_20NoOpMapUnmapCallbackENS_32LargeMmapAllocatorPtrArrayStaticENS_21LocalAddressSpaceViewEE13GetBlockBeginEPKv+0xb3>
  6c799f:	31 c9                	xor    %ecx,%ecx
  6c79a1:	31 f6                	xor    %esi,%esi
  6c79a3:	41 f6 c0 01          	test   $0x1,%r8b
  6c79a7:	74 21                	je     6c79ca <_ZNK11__sanitizer18LargeMmapAllocatorINS_20NoOpMapUnmapCallbackENS_32LargeMmapAllocatorPtrArrayStaticENS_21LocalAddressSpaceViewEE13GetBlockBeginEPKv+0x6a>
  6c79a9:	49 8b 04 f2          	mov    (%r10,%rsi,8),%rax
  6c79ad:	4c 89 e2             	mov    %r12,%rdx
  6c79b0:	48 29 c2             	sub    %rax,%rdx
  6c79b3:	4c 89 e6             	mov    %r12,%rsi
  6c79b6:	48 29 ce             	sub    %rcx,%rsi
  6c79b9:	48 39 f2             	cmp    %rsi,%rdx
  6c79bc:	48 89 ca             	mov    %rcx,%rdx
  6c79bf:	48 0f 42 d0          	cmovb  %rax,%rdx
  6c79c3:	49 39 c4             	cmp    %rax,%r12
  6c79c6:	48 0f 43 ca          	cmovae %rdx,%rcx
  6c79ca:	48 85 c9             	test   %rcx,%rcx
  6c79cd:	0f 84 b9 00 00 00    	je     6c7a8c <_ZNK11__sanitizer18LargeMmapAllocatorINS_20NoOpMapUnmapCallbackENS_32LargeMmapAllocatorPtrArrayStaticENS_21LocalAddressSpaceViewEE13GetBlockBeginEPKv+0x12c>
  6c79d3:	4c 8b 01             	mov    (%rcx),%r8
  6c79d6:	4c 39 c1             	cmp    %r8,%rcx
  6c79d9:	0f 82 bf 00 00 00    	jb     6c7a9e <_ZNK11__sanitizer18LargeMmapAllocatorINS_20NoOpMapUnmapCallbackENS_32LargeMmapAllocatorPtrArrayStaticENS_21LocalAddressSpaceViewEE13GetBlockBeginEPKv+0x13e>
  6c79df:	4c 03 41 08          	add    0x8(%rcx),%r8
  6c79e3:	4c 39 c1             	cmp    %r8,%rcx
  6c79e6:	0f 83 ca 00 00 00    	jae    6c7ab6 <_ZNK11__sanitizer18LargeMmapAllocatorINS_20NoOpMapUnmapCallbackENS_32LargeMmapAllocatorPtrArrayStaticENS_21LocalAddressSpaceViewEE13GetBlockBeginEPKv+0x156>
  6c79ec:	4c 39 e1             	cmp    %r12,%rcx
  6c79ef:	0f 87 d9 00 00 00    	ja     6c7ace <_ZNK11__sanitizer18LargeMmapAllocatorINS_20NoOpMapUnmapCallbackENS_32LargeMmapAllocatorPtrArrayStaticENS_21LocalAddressSpaceViewEE13GetBlockBeginEPKv+0x16e>
  6c79f5:	4d 39 e0             	cmp    %r12,%r8
  6c79f8:	0f 86 8e 00 00 00    	jbe    6c7a8c <_ZNK11__sanitizer18LargeMmapAllocatorINS_20NoOpMapUnmapCallbackENS_32LargeMmapAllocatorPtrArrayStaticENS_21LocalAddressSpaceViewEE13GetBlockBeginEPKv+0x12c>
  6c79fe:	49 8b 07             	mov    (%r15),%rax
  6c7a01:	48 8d 50 ff          	lea    -0x1(%rax),%rdx
  6c7a05:	48 85 ca             	test   %rcx,%rdx
  6c7a08:	0f 85 db 00 00 00    	jne    6c7ae9 <_ZNK11__sanitizer18LargeMmapAllocatorINS_20NoOpMapUnmapCallbackENS_32LargeMmapAllocatorPtrArrayStaticENS_21LocalAddressSpaceViewEE13GetBlockBeginEPKv+0x189>
  6c7a0e:	48 01 c8             	add    %rcx,%rax
  6c7a11:	eb 7b                	jmp    6c7a8e <_ZNK11__sanitizer18LargeMmapAllocatorINS_20NoOpMapUnmapCallbackENS_32LargeMmapAllocatorPtrArrayStaticENS_21LocalAddressSpaceViewEE13GetBlockBeginEPKv+0x12e>
  6c7a13:	4d 89 c1             	mov    %r8,%r9
  6c7a16:	49 83 e1 fe          	and    $0xfffffffffffffffe,%r9
  6c7a1a:	31 c9                	xor    %ecx,%ecx
  6c7a1c:	31 f6                	xor    %esi,%esi
  6c7a1e:	eb 14                	jmp    6c7a34 <_ZNK11__sanitizer18LargeMmapAllocatorINS_20NoOpMapUnmapCallbackENS_32LargeMmapAllocatorPtrArrayStaticENS_21LocalAddressSpaceViewEE13GetBlockBeginEPKv+0xd4>
  6c7a20:	49 39 fc             	cmp    %rdi,%r12
  6c7a23:	48 0f 42 ca          	cmovb  %rdx,%rcx
  6c7a27:	48 83 c6 02          	add    $0x2,%rsi
  6c7a2b:	49 39 f1             	cmp    %rsi,%r9
  6c7a2e:	0f 84 6f ff ff ff    	je     6c79a3 <_ZNK11__sanitizer18LargeMmapAllocatorINS_20NoOpMapUnmapCallbackENS_32LargeMmapAllocatorPtrArrayStaticENS_21LocalAddressSpaceViewEE13GetBlockBeginEPKv+0x43>
  6c7a34:	49 8b 3c f2          	mov    (%r10,%rsi,8),%rdi
  6c7a38:	4c 89 e3             	mov    %r12,%rbx
  6c7a3b:	48 29 fb             	sub    %rdi,%rbx
  6c7a3e:	4c 89 e0             	mov    %r12,%rax
  6c7a41:	48 29 c8             	sub    %rcx,%rax
  6c7a44:	48 89 fa             	mov    %rdi,%rdx
  6c7a47:	48 39 c3             	cmp    %rax,%rbx
  6c7a4a:	72 03                	jb     6c7a4f <_ZNK11__sanitizer18LargeMmapAllocatorINS_20NoOpMapUnmapCallbackENS_32LargeMmapAllocatorPtrArrayStaticENS_21LocalAddressSpaceViewEE13GetBlockBeginEPKv+0xef>
  6c7a4c:	48 89 ca             	mov    %rcx,%rdx
  6c7a4f:	49 39 fc             	cmp    %rdi,%r12
  6c7a52:	48 0f 42 d1          	cmovb  %rcx,%rdx
  6c7a56:	49 8b 7c f2 08       	mov    0x8(%r10,%rsi,8),%rdi
  6c7a5b:	4c 89 e0             	mov    %r12,%rax
  6c7a5e:	48 29 f8             	sub    %rdi,%rax
  6c7a61:	4c 89 e3             	mov    %r12,%rbx
  6c7a64:	48 29 d3             	sub    %rdx,%rbx
  6c7a67:	48 89 f9             	mov    %rdi,%rcx
  6c7a6a:	48 39 d8             	cmp    %rbx,%rax
  6c7a6d:	72 b1                	jb     6c7a20 <_ZNK11__sanitizer18LargeMmapAllocatorINS_20NoOpMapUnmapCallbackENS_32LargeMmapAllocatorPtrArrayStaticENS_21LocalAddressSpaceViewEE13GetBlockBeginEPKv+0xc0>
  6c7a6f:	48 89 d1             	mov    %rdx,%rcx
  6c7a72:	eb ac                	jmp    6c7a20 <_ZNK11__sanitizer18LargeMmapAllocatorINS_20NoOpMapUnmapCallbackENS_32LargeMmapAllocatorPtrArrayStaticENS_21LocalAddressSpaceViewEE13GetBlockBeginEPKv+0xc0>
  6c7a74:	4c 89 f7             	mov    %r14,%rdi
  6c7a77:	e8 34 a2 00 00       	callq  6d1cb0 <_ZN11__sanitizer15StaticSpinMutex8LockSlowEv>
  6c7a7c:	4d 8b 87 10 00 04 00 	mov    0x40010(%r15),%r8
  6c7a83:	4d 85 c0             	test   %r8,%r8
  6c7a86:	0f 85 09 ff ff ff    	jne    6c7995 <_ZNK11__sanitizer18LargeMmapAllocatorINS_20NoOpMapUnmapCallbackENS_32LargeMmapAllocatorPtrArrayStaticENS_21LocalAddressSpaceViewEE13GetBlockBeginEPKv+0x35>
  6c7a8c:	31 c0                	xor    %eax,%eax
  6c7a8e:	41 c6 06 00          	movb   $0x0,(%r14)
  6c7a92:	48 83 c4 08          	add    $0x8,%rsp
  6c7a96:	5b                   	pop    %rbx
  6c7a97:	41 5c                	pop    %r12
  6c7a99:	41 5e                	pop    %r14
  6c7a9b:	41 5f                	pop    %r15
  6c7a9d:	c3                   	retq   
  6c7a9e:	48 8d 3d d9 36 b4 ff 	lea    -0x4bc927(%rip),%rdi        # 20b17e <_IO_stdin_used+0x838e>
  6c7aa5:	48 8d 15 fa 30 b4 ff 	lea    -0x4bcf06(%rip),%rdx        # 20aba6 <_IO_stdin_used+0x7db6>
  6c7aac:	be c7 00 00 00       	mov    $0xc7,%esi
  6c7ab1:	e8 ba 1b 01 00       	callq  6d9670 <_ZN11__sanitizer11CheckFailedEPKciS1_yy>
  6c7ab6:	48 8d 3d c1 36 b4 ff 	lea    -0x4bc93f(%rip),%rdi        # 20b17e <_IO_stdin_used+0x838e>
  6c7abd:	48 8d 15 41 37 b4 ff 	lea    -0x4bc8bf(%rip),%rdx        # 20b205 <_IO_stdin_used+0x8415>
  6c7ac4:	be c8 00 00 00       	mov    $0xc8,%esi
  6c7ac9:	e8 a2 1b 01 00       	callq  6d9670 <_ZN11__sanitizer11CheckFailedEPKciS1_yy>
  6c7ace:	48 8d 3d a9 36 b4 ff 	lea    -0x4bc957(%rip),%rdi        # 20b17e <_IO_stdin_used+0x838e>
  6c7ad5:	48 8d 15 ff 69 b4 ff 	lea    -0x4b9601(%rip),%rdx        # 20e4db <_IO_stdin_used+0xb6eb>
  6c7adc:	be c9 00 00 00       	mov    $0xc9,%esi
  6c7ae1:	4d 89 e0             	mov    %r12,%r8
  6c7ae4:	e8 87 1b 01 00       	callq  6d9670 <_ZN11__sanitizer11CheckFailedEPKciS1_yy>
  6c7ae9:	48 8d 3d 8e 36 b4 ff 	lea    -0x4bc972(%rip),%rdi        # 20b17e <_IO_stdin_used+0x838e>
  6c7af0:	48 8d 15 55 b3 b3 ff 	lea    -0x4c4cab(%rip),%rdx        # 202e4c <_IO_stdin_used+0x5c>
  6c7af7:	be 31 01 00 00       	mov    $0x131,%esi
  6c7afc:	31 c9                	xor    %ecx,%ecx
  6c7afe:	45 31 c0             	xor    %r8d,%r8d
  6c7b01:	e8 6a 1b 01 00       	callq  6d9670 <_ZN11__sanitizer11CheckFailedEPKciS1_yy>
  6c7b06:	cc                   	int3   
  6c7b07:	cc                   	int3   
  6c7b08:	cc                   	int3   
  6c7b09:	cc                   	int3   
  6c7b0a:	cc                   	int3   
  6c7b0b:	cc                   	int3   
  6c7b0c:	cc                   	int3   
  6c7b0d:	cc                   	int3   
  6c7b0e:	cc                   	int3   
  6c7b0f:	cc                   	int3   

00000000006c7b10 <_ZN11__sanitizer20SizeClassAllocator32INS_4AP32EE24GetActuallyAllocatedSizeEPv>:
  6c7b10:	41 57                	push   %r15
  6c7b12:	41 56                	push   %r14
  6c7b14:	53                   	push   %rbx
  6c7b15:	48 89 f0             	mov    %rsi,%rax
  6c7b18:	48 c1 e8 2f          	shr    $0x2f,%rax
  6c7b1c:	75 79                	jne    6c7b97 <_ZN11__sanitizer20SizeClassAllocator32INS_4AP32EE24GetActuallyAllocatedSizeEPv+0x87>
  6c7b1e:	48 89 f3             	mov    %rsi,%rbx
  6c7b21:	49 89 fe             	mov    %rdi,%r14
  6c7b24:	49 89 f7             	mov    %rsi,%r15
  6c7b27:	49 c1 ef 20          	shr    $0x20,%r15
  6c7b2b:	4a 8b 44 ff 08       	mov    0x8(%rdi,%r15,8),%rax
  6c7b30:	48 85 c0             	test   %rax,%rax
  6c7b33:	74 62                	je     6c7b97 <_ZN11__sanitizer20SizeClassAllocator32INS_4AP32EE24GetActuallyAllocatedSizeEPv+0x87>
  6c7b35:	48 c1 eb 14          	shr    $0x14,%rbx
  6c7b39:	4b 8b 44 fe 08       	mov    0x8(%r14,%r15,8),%rax
  6c7b3e:	48 85 c0             	test   %rax,%rax
  6c7b41:	74 3d                	je     6c7b80 <_ZN11__sanitizer20SizeClassAllocator32INS_4AP32EE24GetActuallyAllocatedSizeEPv+0x70>
  6c7b43:	81 e3 ff 0f 00 00    	and    $0xfff,%ebx
  6c7b49:	80 3c 18 00          	cmpb   $0x0,(%rax,%rbx,1)
  6c7b4d:	74 48                	je     6c7b97 <_ZN11__sanitizer20SizeClassAllocator32INS_4AP32EE24GetActuallyAllocatedSizeEPv+0x87>
  6c7b4f:	4b 8b 44 fe 08       	mov    0x8(%r14,%r15,8),%rax
  6c7b54:	48 85 c0             	test   %rax,%rax
  6c7b57:	74 1f                	je     6c7b78 <_ZN11__sanitizer20SizeClassAllocator32INS_4AP32EE24GetActuallyAllocatedSizeEPv+0x68>
  6c7b59:	4b 8b 44 fe 08       	mov    0x8(%r14,%r15,8),%rax
  6c7b5e:	48 85 c0             	test   %rax,%rax
  6c7b61:	74 51                	je     6c7bb4 <_ZN11__sanitizer20SizeClassAllocator32INS_4AP32EE24GetActuallyAllocatedSizeEPv+0xa4>
  6c7b63:	0f b6 14 18          	movzbl (%rax,%rbx,1),%edx
  6c7b67:	b8 00 02 00 00       	mov    $0x200,%eax
  6c7b6c:	48 83 fa 35          	cmp    $0x35,%rdx
  6c7b70:	75 5c                	jne    6c7bce <_ZN11__sanitizer20SizeClassAllocator32INS_4AP32EE24GetActuallyAllocatedSizeEPv+0xbe>
  6c7b72:	5b                   	pop    %rbx
  6c7b73:	41 5e                	pop    %r14
  6c7b75:	41 5f                	pop    %r15
  6c7b77:	c3                   	retq   
  6c7b78:	31 d2                	xor    %edx,%edx
  6c7b7a:	48 c1 e2 04          	shl    $0x4,%rdx
  6c7b7e:	eb 78                	jmp    6c7bf8 <_ZN11__sanitizer20SizeClassAllocator32INS_4AP32EE24GetActuallyAllocatedSizeEPv+0xe8>
  6c7b80:	4c 89 f7             	mov    %r14,%rdi
  6c7b83:	4c 89 fe             	mov    %r15,%rsi
  6c7b86:	e8 f5 f2 ff ff       	callq  6c6e80 <_ZNK11__sanitizer11TwoLevelMapIhLy32768ELy4096ENS_21LocalAddressSpaceViewENS_20NoOpMapUnmapCallbackEE6CreateEm>
  6c7b8b:	81 e3 ff 0f 00 00    	and    $0xfff,%ebx
  6c7b91:	80 3c 18 00          	cmpb   $0x0,(%rax,%rbx,1)
  6c7b95:	75 b8                	jne    6c7b4f <_ZN11__sanitizer20SizeClassAllocator32INS_4AP32EE24GetActuallyAllocatedSizeEPv+0x3f>
  6c7b97:	48 8d 3d 7c 58 b4 ff 	lea    -0x4ba784(%rip),%rdi        # 20d41a <_IO_stdin_used+0xa62a>
  6c7b9e:	48 8d 15 63 1f b4 ff 	lea    -0x4be09d(%rip),%rdx        # 209b08 <_IO_stdin_used+0x6d18>
  6c7ba5:	be da 00 00 00       	mov    $0xda,%esi
  6c7baa:	31 c9                	xor    %ecx,%ecx
  6c7bac:	45 31 c0             	xor    %r8d,%r8d
  6c7baf:	e8 bc 1a 01 00       	callq  6d9670 <_ZN11__sanitizer11CheckFailedEPKciS1_yy>
  6c7bb4:	4c 89 f7             	mov    %r14,%rdi
  6c7bb7:	4c 89 fe             	mov    %r15,%rsi
  6c7bba:	e8 c1 f2 ff ff       	callq  6c6e80 <_ZNK11__sanitizer11TwoLevelMapIhLy32768ELy4096ENS_21LocalAddressSpaceViewENS_20NoOpMapUnmapCallbackEE6CreateEm>
  6c7bbf:	0f b6 14 18          	movzbl (%rax,%rbx,1),%edx
  6c7bc3:	b8 00 02 00 00       	mov    $0x200,%eax
  6c7bc8:	48 83 fa 35          	cmp    $0x35,%rdx
  6c7bcc:	74 a4                	je     6c7b72 <_ZN11__sanitizer20SizeClassAllocator32INS_4AP32EE24GetActuallyAllocatedSizeEPv+0x62>
  6c7bce:	80 fa 10             	cmp    $0x10,%dl
  6c7bd1:	77 06                	ja     6c7bd9 <_ZN11__sanitizer20SizeClassAllocator32INS_4AP32EE24GetActuallyAllocatedSizeEPv+0xc9>
  6c7bd3:	48 c1 e2 04          	shl    $0x4,%rdx
  6c7bd7:	eb 1f                	jmp    6c7bf8 <_ZN11__sanitizer20SizeClassAllocator32INS_4AP32EE24GetActuallyAllocatedSizeEPv+0xe8>
  6c7bd9:	8d 4a f0             	lea    -0x10(%rdx),%ecx
  6c7bdc:	c1 e9 02             	shr    $0x2,%ecx
  6c7bdf:	b8 00 01 00 00       	mov    $0x100,%eax
  6c7be4:	48 d3 e0             	shl    %cl,%rax
  6c7be7:	48 89 c1             	mov    %rax,%rcx
  6c7bea:	48 c1 e9 02          	shr    $0x2,%rcx
  6c7bee:	83 e2 03             	and    $0x3,%edx
  6c7bf1:	48 0f af d1          	imul   %rcx,%rdx
  6c7bf5:	48 01 c2             	add    %rax,%rdx
  6c7bf8:	48 89 d0             	mov    %rdx,%rax
  6c7bfb:	5b                   	pop    %rbx
  6c7bfc:	41 5e                	pop    %r14
  6c7bfe:	41 5f                	pop    %r15
  6c7c00:	c3                   	retq   
  6c7c01:	cc                   	int3   
  6c7c02:	cc                   	int3   
  6c7c03:	cc                   	int3   
  6c7c04:	cc                   	int3   
  6c7c05:	cc                   	int3   
  6c7c06:	cc                   	int3   
  6c7c07:	cc                   	int3   
  6c7c08:	cc                   	int3   
  6c7c09:	cc                   	int3   
  6c7c0a:	cc                   	int3   
  6c7c0b:	cc                   	int3   
  6c7c0c:	cc                   	int3   
  6c7c0d:	cc                   	int3   
  6c7c0e:	cc                   	int3   
  6c7c0f:	cc                   	int3   

00000000006c7c10 <_ZN11__sanitizer23ReportMmapFailureAndDieEmPKcS1_ib>:
  6c7c10:	50                   	push   %rax
  6c7c11:	45 85 c0             	test   %r8d,%r8d
  6c7c14:	75 56                	jne    6c7c6c <_ZN11__sanitizer23ReportMmapFailureAndDieEmPKcS1_ib+0x5c>
  6c7c16:	f6 05 83 42 0d 00 01 	testb  $0x1,0xd4283(%rip)        # 79bea0 <_ZZN11__sanitizer23ReportMmapFailureAndDieEmPKcS1_ibE15recursion_count>
  6c7c1d:	75 4d                	jne    6c7c6c <_ZN11__sanitizer23ReportMmapFailureAndDieEmPKcS1_ib+0x5c>
  6c7c1f:	49 89 f1             	mov    %rsi,%r9
  6c7c22:	48 89 f8             	mov    %rdi,%rax
  6c7c25:	c6 05 74 42 0d 00 01 	movb   $0x1,0xd4274(%rip)        # 79bea0 <_ZZN11__sanitizer23ReportMmapFailureAndDieEmPKcS1_ibE15recursion_count>
  6c7c2c:	48 8b 35 95 53 03 00 	mov    0x35395(%rip),%rsi        # 6fcfc8 <_ZN11__sanitizer17SanitizerToolNameE>
  6c7c33:	89 0c 24             	mov    %ecx,(%rsp)
  6c7c36:	48 8d 3d 0b dc b3 ff 	lea    -0x4c23f5(%rip),%rdi        # 205848 <_IO_stdin_used+0x2a58>
  6c7c3d:	48 89 c1             	mov    %rax,%rcx
  6c7c40:	49 89 c0             	mov    %rax,%r8
  6c7c43:	31 c0                	xor    %eax,%eax
  6c7c45:	e8 f6 ba 00 00       	callq  6d3740 <_ZN11__sanitizer6ReportEPKcz>
  6c7c4a:	e8 11 ad 00 00       	callq  6d2960 <_ZN11__sanitizer14DumpProcessMapEv>
  6c7c4f:	48 8d 3d f8 35 b4 ff 	lea    -0x4bca08(%rip),%rdi        # 20b24e <_IO_stdin_used+0x845e>
  6c7c56:	48 8d 15 7b 13 b4 ff 	lea    -0x4bec85(%rip),%rdx        # 208fd8 <_IO_stdin_used+0x61e8>
  6c7c5d:	be 35 00 00 00       	mov    $0x35,%esi
  6c7c62:	31 c9                	xor    %ecx,%ecx
  6c7c64:	45 31 c0             	xor    %r8d,%r8d
  6c7c67:	e8 04 1a 01 00       	callq  6d9670 <_ZN11__sanitizer11CheckFailedEPKciS1_yy>
  6c7c6c:	48 8d 3d 02 0a b4 ff 	lea    -0x4bf5fe(%rip),%rdi        # 208675 <_IO_stdin_used+0x5885>
  6c7c73:	e8 38 2d 00 00       	callq  6ca9b0 <_ZN11__sanitizer8RawWriteEPKc>
  6c7c78:	e8 13 19 01 00       	callq  6d9590 <_ZN11__sanitizer3DieEv>
  6c7c7d:	cc                   	int3   
  6c7c7e:	cc                   	int3   
  6c7c7f:	cc                   	int3   

00000000006c7c80 <_ZN11__sanitizer15StripPathPrefixEPKcS1_>:
  6c7c80:	41 57                	push   %r15
  6c7c82:	41 56                	push   %r14
  6c7c84:	53                   	push   %rbx
  6c7c85:	48 85 ff             	test   %rdi,%rdi
  6c7c88:	74 40                	je     6c7cca <_ZN11__sanitizer15StripPathPrefixEPKcS1_+0x4a>
  6c7c8a:	49 89 f6             	mov    %rsi,%r14
  6c7c8d:	48 89 fb             	mov    %rdi,%rbx
  6c7c90:	48 85 f6             	test   %rsi,%rsi
  6c7c93:	74 37                	je     6c7ccc <_ZN11__sanitizer15StripPathPrefixEPKcS1_+0x4c>
  6c7c95:	48 89 df             	mov    %rbx,%rdi
  6c7c98:	4c 89 f6             	mov    %r14,%rsi
  6c7c9b:	e8 00 78 00 00       	callq  6cf4a0 <_ZN11__sanitizer15internal_strstrEPKcS1_>
  6c7ca0:	48 85 c0             	test   %rax,%rax
  6c7ca3:	74 11                	je     6c7cb6 <_ZN11__sanitizer15StripPathPrefixEPKcS1_+0x36>
  6c7ca5:	49 89 c7             	mov    %rax,%r15
  6c7ca8:	4c 89 f7             	mov    %r14,%rdi
  6c7cab:	e8 50 66 00 00       	callq  6ce300 <_ZN11__sanitizer15internal_strlenEPKc>
  6c7cb0:	49 01 c7             	add    %rax,%r15
  6c7cb3:	4c 89 fb             	mov    %r15,%rbx
  6c7cb6:	80 3b 2e             	cmpb   $0x2e,(%rbx)
  6c7cb9:	75 11                	jne    6c7ccc <_ZN11__sanitizer15StripPathPrefixEPKcS1_+0x4c>
  6c7cbb:	31 c0                	xor    %eax,%eax
  6c7cbd:	80 7b 01 2f          	cmpb   $0x2f,0x1(%rbx)
  6c7cc1:	0f 94 c0             	sete   %al
  6c7cc4:	48 8d 1c 43          	lea    (%rbx,%rax,2),%rbx
  6c7cc8:	eb 02                	jmp    6c7ccc <_ZN11__sanitizer15StripPathPrefixEPKcS1_+0x4c>
  6c7cca:	31 db                	xor    %ebx,%ebx
  6c7ccc:	48 89 d8             	mov    %rbx,%rax
  6c7ccf:	5b                   	pop    %rbx
  6c7cd0:	41 5e                	pop    %r14
  6c7cd2:	41 5f                	pop    %r15
  6c7cd4:	c3                   	retq   
  6c7cd5:	cc                   	int3   
  6c7cd6:	cc                   	int3   
  6c7cd7:	cc                   	int3   
  6c7cd8:	cc                   	int3   
  6c7cd9:	cc                   	int3   
  6c7cda:	cc                   	int3   
  6c7cdb:	cc                   	int3   
  6c7cdc:	cc                   	int3   
  6c7cdd:	cc                   	int3   
  6c7cde:	cc                   	int3   
  6c7cdf:	cc                   	int3   

00000000006c7ce0 <_ZN11__sanitizer15StripModuleNameEPKc>:
  6c7ce0:	48 85 ff             	test   %rdi,%rdi
  6c7ce3:	74 1e                	je     6c7d03 <_ZN11__sanitizer15StripModuleNameEPKc+0x23>
  6c7ce5:	53                   	push   %rbx
  6c7ce6:	48 89 fb             	mov    %rdi,%rbx
  6c7ce9:	be 2f 00 00 00       	mov    $0x2f,%esi
  6c7cee:	e8 fd 66 00 00       	callq  6ce3f0 <_ZN11__sanitizer16internal_strrchrEPKci>
  6c7cf3:	48 89 c1             	mov    %rax,%rcx
  6c7cf6:	48 83 c0 01          	add    $0x1,%rax
  6c7cfa:	48 85 c9             	test   %rcx,%rcx
  6c7cfd:	48 0f 44 c3          	cmove  %rbx,%rax
  6c7d01:	5b                   	pop    %rbx
  6c7d02:	c3                   	retq   
  6c7d03:	31 c0                	xor    %eax,%eax
  6c7d05:	c3                   	retq   
  6c7d06:	cc                   	int3   
  6c7d07:	cc                   	int3   
  6c7d08:	cc                   	int3   
  6c7d09:	cc                   	int3   
  6c7d0a:	cc                   	int3   
  6c7d0b:	cc                   	int3   
  6c7d0c:	cc                   	int3   
  6c7d0d:	cc                   	int3   
  6c7d0e:	cc                   	int3   
  6c7d0f:	cc                   	int3   

00000000006c7d10 <_ZN11__sanitizer18ReportErrorSummaryEPKcS1_>:
  6c7d10:	41 56                	push   %r14
  6c7d12:	53                   	push   %rbx
  6c7d13:	48 83 ec 18          	sub    $0x18,%rsp
  6c7d17:	48 8d 05 ea 61 0d 00 	lea    0xd61ea(%rip),%rax        # 79df08 <_ZN11__sanitizer21common_flags_dont_useE>
  6c7d1e:	80 78 4c 00          	cmpb   $0x0,0x4c(%rax)
  6c7d22:	0f 84 a9 00 00 00    	je     6c7dd1 <_ZN11__sanitizer18ReportErrorSummaryEPKcS1_+0xc1>
  6c7d28:	48 89 f3             	mov    %rsi,%rbx
  6c7d2b:	49 89 fe             	mov    %rdi,%r14
  6c7d2e:	0f 57 c0             	xorps  %xmm0,%xmm0
  6c7d31:	0f 11 44 24 08       	movups %xmm0,0x8(%rsp)
  6c7d36:	48 c7 04 24 00 00 00 	movq   $0x0,(%rsp)
  6c7d3d:	00 
  6c7d3e:	48 89 e7             	mov    %rsp,%rdi
  6c7d41:	be 01 00 00 00       	mov    $0x1,%esi
  6c7d46:	e8 65 0a 00 00       	callq  6c87b0 <_ZN11__sanitizer24InternalMmapVectorNoCtorIcE7ReallocEm>
  6c7d4b:	48 83 7c 24 10 00    	cmpq   $0x0,0x10(%rsp)
  6c7d51:	75 34                	jne    6c7d87 <_ZN11__sanitizer18ReportErrorSummaryEPKcS1_+0x77>
  6c7d53:	48 83 7c 24 08 00    	cmpq   $0x0,0x8(%rsp)
  6c7d59:	74 04                	je     6c7d5f <_ZN11__sanitizer18ReportErrorSummaryEPKcS1_+0x4f>
  6c7d5b:	31 c0                	xor    %eax,%eax
  6c7d5d:	eb 12                	jmp    6c7d71 <_ZN11__sanitizer18ReportErrorSummaryEPKcS1_+0x61>
  6c7d5f:	48 89 e7             	mov    %rsp,%rdi
  6c7d62:	be 01 00 00 00       	mov    $0x1,%esi
  6c7d67:	e8 44 0a 00 00       	callq  6c87b0 <_ZN11__sanitizer24InternalMmapVectorNoCtorIcE7ReallocEm>
  6c7d6c:	48 8b 44 24 10       	mov    0x10(%rsp),%rax
  6c7d71:	48 8b 3c 24          	mov    (%rsp),%rdi
  6c7d75:	48 01 c7             	add    %rax,%rdi
  6c7d78:	ba 01 00 00 00       	mov    $0x1,%edx
  6c7d7d:	48 29 c2             	sub    %rax,%rdx
  6c7d80:	31 f6                	xor    %esi,%esi
  6c7d82:	e8 29 62 00 00       	callq  6cdfb0 <_ZN11__sanitizer15internal_memsetEPvim>
  6c7d87:	48 c7 44 24 10 01 00 	movq   $0x1,0x10(%rsp)
  6c7d8e:	00 00 
  6c7d90:	48 8b 04 24          	mov    (%rsp),%rax
  6c7d94:	c6 00 00             	movb   $0x0,(%rax)
  6c7d97:	48 85 db             	test   %rbx,%rbx
  6c7d9a:	75 07                	jne    6c7da3 <_ZN11__sanitizer18ReportErrorSummaryEPKcS1_+0x93>
  6c7d9c:	48 8b 1d 25 52 03 00 	mov    0x35225(%rip),%rbx        # 6fcfc8 <_ZN11__sanitizer17SanitizerToolNameE>
  6c7da3:	48 8d 35 da 75 b4 ff 	lea    -0x4b8a26(%rip),%rsi        # 20f384 <_IO_stdin_used+0xc594>
  6c7daa:	48 89 e7             	mov    %rsp,%rdi
  6c7dad:	48 89 da             	mov    %rbx,%rdx
  6c7db0:	4c 89 f1             	mov    %r14,%rcx
  6c7db3:	31 c0                	xor    %eax,%eax
  6c7db5:	e8 b6 ba 00 00       	callq  6d3870 <_ZN11__sanitizer20InternalScopedString6appendEPKcz>
  6c7dba:	48 8b 3c 24          	mov    (%rsp),%rdi
  6c7dbe:	e8 1d 00 00 00       	callq  6c7de0 <__sanitizer_report_error_summary>
  6c7dc3:	48 8b 3c 24          	mov    (%rsp),%rdi
  6c7dc7:	48 8b 74 24 08       	mov    0x8(%rsp),%rsi
  6c7dcc:	e8 2f a1 00 00       	callq  6d1f00 <_ZN11__sanitizer10UnmapOrDieEPvm>
  6c7dd1:	48 83 c4 18          	add    $0x18,%rsp
  6c7dd5:	5b                   	pop    %rbx
  6c7dd6:	41 5e                	pop    %r14
  6c7dd8:	c3                   	retq   
  6c7dd9:	cc                   	int3   
  6c7dda:	cc                   	int3   
  6c7ddb:	cc                   	int3   
  6c7ddc:	cc                   	int3   
  6c7ddd:	cc                   	int3   
  6c7dde:	cc                   	int3   
  6c7ddf:	cc                   	int3   

00000000006c7de0 <__sanitizer_report_error_summary>:
  6c7de0:	48 89 fe             	mov    %rdi,%rsi
  6c7de3:	48 8d 3d 44 99 b4 ff 	lea    -0x4b66bc(%rip),%rdi        # 21172e <_IO_stdin_used+0xe93e>
  6c7dea:	31 c0                	xor    %eax,%eax
  6c7dec:	e9 8f b8 00 00       	jmpq   6d3680 <_ZN11__sanitizer6PrintfEPKcz>
  6c7df1:	cc                   	int3   
  6c7df2:	cc                   	int3   
  6c7df3:	cc                   	int3   
  6c7df4:	cc                   	int3   
  6c7df5:	cc                   	int3   
  6c7df6:	cc                   	int3   
  6c7df7:	cc                   	int3   
  6c7df8:	cc                   	int3   
  6c7df9:	cc                   	int3   
  6c7dfa:	cc                   	int3   
  6c7dfb:	cc                   	int3   
  6c7dfc:	cc                   	int3   
  6c7dfd:	cc                   	int3   
  6c7dfe:	cc                   	int3   
  6c7dff:	cc                   	int3   

00000000006c7e00 <_ZN11__sanitizer35RemoveANSIEscapeSequencesFromStringEPc>:
  6c7e00:	53                   	push   %rbx
  6c7e01:	48 85 ff             	test   %rdi,%rdi
  6c7e04:	74 68                	je     6c7e6e <_ZN11__sanitizer35RemoveANSIEscapeSequencesFromStringEPc+0x6e>
  6c7e06:	48 89 f8             	mov    %rdi,%rax
  6c7e09:	8a 0f                	mov    (%rdi),%cl
  6c7e0b:	84 c9                	test   %cl,%cl
  6c7e0d:	74 59                	je     6c7e68 <_ZN11__sanitizer35RemoveANSIEscapeSequencesFromStringEPc+0x68>
  6c7e0f:	48 89 c3             	mov    %rax,%rbx
  6c7e12:	66 2e 0f 1f 84 00 00 	nopw   %cs:0x0(%rax,%rax,1)
  6c7e19:	00 00 00 
  6c7e1c:	0f 1f 40 00          	nopl   0x0(%rax)
  6c7e20:	48 39 d8             	cmp    %rbx,%rax
  6c7e23:	72 4b                	jb     6c7e70 <_ZN11__sanitizer35RemoveANSIEscapeSequencesFromStringEPc+0x70>
  6c7e25:	80 f9 1b             	cmp    $0x1b,%cl
  6c7e28:	75 25                	jne    6c7e4f <_ZN11__sanitizer35RemoveANSIEscapeSequencesFromStringEPc+0x4f>
  6c7e2a:	80 78 01 5b          	cmpb   $0x5b,0x1(%rax)
  6c7e2e:	75 1f                	jne    6c7e4f <_ZN11__sanitizer35RemoveANSIEscapeSequencesFromStringEPc+0x4f>
  6c7e30:	48 89 c7             	mov    %rax,%rdi
  6c7e33:	be 6d 00 00 00       	mov    $0x6d,%esi
  6c7e38:	e8 63 65 00 00       	callq  6ce3a0 <_ZN11__sanitizer18internal_strchrnulEPKci>
  6c7e3d:	80 38 00             	cmpb   $0x0,(%rax)
  6c7e40:	74 29                	je     6c7e6b <_ZN11__sanitizer35RemoveANSIEscapeSequencesFromStringEPc+0x6b>
  6c7e42:	48 83 c0 01          	add    $0x1,%rax
  6c7e46:	0f b6 08             	movzbl (%rax),%ecx
  6c7e49:	84 c9                	test   %cl,%cl
  6c7e4b:	75 d3                	jne    6c7e20 <_ZN11__sanitizer35RemoveANSIEscapeSequencesFromStringEPc+0x20>
  6c7e4d:	eb 1c                	jmp    6c7e6b <_ZN11__sanitizer35RemoveANSIEscapeSequencesFromStringEPc+0x6b>
  6c7e4f:	48 39 d8             	cmp    %rbx,%rax
  6c7e52:	74 02                	je     6c7e56 <_ZN11__sanitizer35RemoveANSIEscapeSequencesFromStringEPc+0x56>
  6c7e54:	88 0b                	mov    %cl,(%rbx)
  6c7e56:	48 83 c3 01          	add    $0x1,%rbx
  6c7e5a:	0f b6 48 01          	movzbl 0x1(%rax),%ecx
  6c7e5e:	48 83 c0 01          	add    $0x1,%rax
  6c7e62:	84 c9                	test   %cl,%cl
  6c7e64:	75 ba                	jne    6c7e20 <_ZN11__sanitizer35RemoveANSIEscapeSequencesFromStringEPc+0x20>
  6c7e66:	eb 03                	jmp    6c7e6b <_ZN11__sanitizer35RemoveANSIEscapeSequencesFromStringEPc+0x6b>
  6c7e68:	48 89 c3             	mov    %rax,%rbx
  6c7e6b:	c6 03 00             	movb   $0x0,(%rbx)
  6c7e6e:	5b                   	pop    %rbx
  6c7e6f:	c3                   	retq   
  6c7e70:	48 8d 3d d7 33 b4 ff 	lea    -0x4bcc29(%rip),%rdi        # 20b24e <_IO_stdin_used+0x845e>
  6c7e77:	48 8d 15 f8 af b3 ff 	lea    -0x4c5008(%rip),%rdx        # 202e76 <_IO_stdin_used+0x86>
  6c7e7e:	be 68 00 00 00       	mov    $0x68,%esi
  6c7e83:	48 89 c1             	mov    %rax,%rcx
  6c7e86:	49 89 d8             	mov    %rbx,%r8
  6c7e89:	e8 e2 17 01 00       	callq  6d9670 <_ZN11__sanitizer11CheckFailedEPKciS1_yy>
  6c7e8e:	cc                   	int3   
  6c7e8f:	cc                   	int3   

00000000006c7e90 <_ZN11__sanitizer12LoadedModule3setEPKcm>:
  6c7e90:	41 57                	push   %r15
  6c7e92:	41 56                	push   %r14
  6c7e94:	53                   	push   %rbx
  6c7e95:	49 89 d6             	mov    %rdx,%r14
  6c7e98:	49 89 f7             	mov    %rsi,%r15
  6c7e9b:	48 89 fb             	mov    %rdi,%rbx
  6c7e9e:	48 8b 3f             	mov    (%rdi),%rdi
  6c7ea1:	31 f6                	xor    %esi,%esi
  6c7ea3:	e8 38 d8 ff ff       	callq  6c56e0 <_ZN11__sanitizer12InternalFreeEPvPNS_30SizeClassAllocator32LocalCacheINS_20SizeClassAllocator32INS_4AP32EEEEE>
  6c7ea8:	0f 57 c0             	xorps  %xmm0,%xmm0
  6c7eab:	0f 11 43 08          	movups %xmm0,0x8(%rbx)
  6c7eaf:	48 c7 03 00 00 00 00 	movq   $0x0,(%rbx)
  6c7eb6:	c7 43 18 00 00 00 00 	movl   $0x0,0x18(%rbx)
  6c7ebd:	48 8d 7b 28          	lea    0x28(%rbx),%rdi
  6c7ec1:	ba 20 00 00 00       	mov    $0x20,%edx
  6c7ec6:	31 f6                	xor    %esi,%esi
  6c7ec8:	e8 e3 60 00 00       	callq  6cdfb0 <_ZN11__sanitizer15internal_memsetEPvim>
  6c7ecd:	c6 43 48 00          	movb   $0x0,0x48(%rbx)
  6c7ed1:	eb 1c                	jmp    6c7eef <_ZN11__sanitizer12LoadedModule3setEPKcm+0x5f>
  6c7ed3:	66 2e 0f 1f 84 00 00 	nopw   %cs:0x0(%rax,%rax,1)
  6c7eda:	00 00 00 
  6c7edd:	0f 1f 00             	nopl   (%rax)
  6c7ee0:	48 83 c0 ff          	add    $0xffffffffffffffff,%rax
  6c7ee4:	48 89 43 50          	mov    %rax,0x50(%rbx)
  6c7ee8:	31 f6                	xor    %esi,%esi
  6c7eea:	e8 f1 d7 ff ff       	callq  6c56e0 <_ZN11__sanitizer12InternalFreeEPvPNS_30SizeClassAllocator32LocalCacheINS_20SizeClassAllocator32INS_4AP32EEEEE>
  6c7eef:	48 8b 43 50          	mov    0x50(%rbx),%rax
  6c7ef3:	48 85 c0             	test   %rax,%rax
  6c7ef6:	74 1a                	je     6c7f12 <_ZN11__sanitizer12LoadedModule3setEPKcm+0x82>
  6c7ef8:	48 8b 7b 58          	mov    0x58(%rbx),%rdi
  6c7efc:	48 8b 0f             	mov    (%rdi),%rcx
  6c7eff:	48 89 4b 58          	mov    %rcx,0x58(%rbx)
  6c7f03:	48 85 c9             	test   %rcx,%rcx
  6c7f06:	75 d8                	jne    6c7ee0 <_ZN11__sanitizer12LoadedModule3setEPKcm+0x50>
  6c7f08:	48 c7 43 60 00 00 00 	movq   $0x0,0x60(%rbx)
  6c7f0f:	00 
  6c7f10:	eb ce                	jmp    6c7ee0 <_ZN11__sanitizer12LoadedModule3setEPKcm+0x50>
  6c7f12:	4c 89 ff             	mov    %r15,%rdi
  6c7f15:	e8 e6 61 00 00       	callq  6ce100 <_ZN11__sanitizer15internal_strdupEPKc>
  6c7f1a:	48 89 03             	mov    %rax,(%rbx)
  6c7f1d:	4c 89 73 08          	mov    %r14,0x8(%rbx)
  6c7f21:	5b                   	pop    %rbx
  6c7f22:	41 5e                	pop    %r14
  6c7f24:	41 5f                	pop    %r15
  6c7f26:	c3                   	retq   
  6c7f27:	cc                   	int3   
  6c7f28:	cc                   	int3   
  6c7f29:	cc                   	int3   
  6c7f2a:	cc                   	int3   
  6c7f2b:	cc                   	int3   
  6c7f2c:	cc                   	int3   
  6c7f2d:	cc                   	int3   
  6c7f2e:	cc                   	int3   
  6c7f2f:	cc                   	int3   

00000000006c7f30 <_ZN11__sanitizer12LoadedModule5clearEv>:
  6c7f30:	53                   	push   %rbx
  6c7f31:	48 89 fb             	mov    %rdi,%rbx
  6c7f34:	48 8b 3f             	mov    (%rdi),%rdi
  6c7f37:	31 f6                	xor    %esi,%esi
  6c7f39:	e8 a2 d7 ff ff       	callq  6c56e0 <_ZN11__sanitizer12InternalFreeEPvPNS_30SizeClassAllocator32LocalCacheINS_20SizeClassAllocator32INS_4AP32EEEEE>
  6c7f3e:	0f 57 c0             	xorps  %xmm0,%xmm0
  6c7f41:	0f 11 43 08          	movups %xmm0,0x8(%rbx)
  6c7f45:	48 c7 03 00 00 00 00 	movq   $0x0,(%rbx)
  6c7f4c:	c7 43 18 00 00 00 00 	movl   $0x0,0x18(%rbx)
  6c7f53:	48 8d 7b 28          	lea    0x28(%rbx),%rdi
  6c7f57:	ba 20 00 00 00       	mov    $0x20,%edx
  6c7f5c:	31 f6                	xor    %esi,%esi
  6c7f5e:	e8 4d 60 00 00       	callq  6cdfb0 <_ZN11__sanitizer15internal_memsetEPvim>
  6c7f63:	c6 43 48 00          	movb   $0x0,0x48(%rbx)
  6c7f67:	eb 16                	jmp    6c7f7f <_ZN11__sanitizer12LoadedModule5clearEv+0x4f>
  6c7f69:	0f 1f 80 00 00 00 00 	nopl   0x0(%rax)
  6c7f70:	48 83 c0 ff          	add    $0xffffffffffffffff,%rax
  6c7f74:	48 89 43 50          	mov    %rax,0x50(%rbx)
  6c7f78:	31 f6                	xor    %esi,%esi
  6c7f7a:	e8 61 d7 ff ff       	callq  6c56e0 <_ZN11__sanitizer12InternalFreeEPvPNS_30SizeClassAllocator32LocalCacheINS_20SizeClassAllocator32INS_4AP32EEEEE>
  6c7f7f:	48 8b 43 50          	mov    0x50(%rbx),%rax
  6c7f83:	48 85 c0             	test   %rax,%rax
  6c7f86:	74 1a                	je     6c7fa2 <_ZN11__sanitizer12LoadedModule5clearEv+0x72>
  6c7f88:	48 8b 7b 58          	mov    0x58(%rbx),%rdi
  6c7f8c:	48 8b 0f             	mov    (%rdi),%rcx
  6c7f8f:	48 89 4b 58          	mov    %rcx,0x58(%rbx)
  6c7f93:	48 85 c9             	test   %rcx,%rcx
  6c7f96:	75 d8                	jne    6c7f70 <_ZN11__sanitizer12LoadedModule5clearEv+0x40>
  6c7f98:	48 c7 43 60 00 00 00 	movq   $0x0,0x60(%rbx)
  6c7f9f:	00 
  6c7fa0:	eb ce                	jmp    6c7f70 <_ZN11__sanitizer12LoadedModule5clearEv+0x40>
  6c7fa2:	5b                   	pop    %rbx
  6c7fa3:	c3                   	retq   
  6c7fa4:	cc                   	int3   
  6c7fa5:	cc                   	int3   
  6c7fa6:	cc                   	int3   
  6c7fa7:	cc                   	int3   
  6c7fa8:	cc                   	int3   
  6c7fa9:	cc                   	int3   
  6c7faa:	cc                   	int3   
  6c7fab:	cc                   	int3   
  6c7fac:	cc                   	int3   
  6c7fad:	cc                   	int3   
  6c7fae:	cc                   	int3   
  6c7faf:	cc                   	int3   

00000000006c7fb0 <_ZN11__sanitizer12LoadedModule3setEPKcmNS_10ModuleArchEPhb>:
  6c7fb0:	55                   	push   %rbp
  6c7fb1:	41 57                	push   %r15
  6c7fb3:	41 56                	push   %r14
  6c7fb5:	41 55                	push   %r13
  6c7fb7:	41 54                	push   %r12
  6c7fb9:	53                   	push   %rbx
  6c7fba:	50                   	push   %rax
  6c7fbb:	44 89 4c 24 04       	mov    %r9d,0x4(%rsp)
  6c7fc0:	4d 89 c7             	mov    %r8,%r15
  6c7fc3:	41 89 cc             	mov    %ecx,%r12d
  6c7fc6:	49 89 d5             	mov    %rdx,%r13
  6c7fc9:	48 89 f3             	mov    %rsi,%rbx
  6c7fcc:	48 89 fd             	mov    %rdi,%rbp
  6c7fcf:	48 8b 3f             	mov    (%rdi),%rdi
  6c7fd2:	31 f6                	xor    %esi,%esi
  6c7fd4:	e8 07 d7 ff ff       	callq  6c56e0 <_ZN11__sanitizer12InternalFreeEPvPNS_30SizeClassAllocator32LocalCacheINS_20SizeClassAllocator32INS_4AP32EEEEE>
  6c7fd9:	0f 57 c0             	xorps  %xmm0,%xmm0
  6c7fdc:	0f 11 45 08          	movups %xmm0,0x8(%rbp)
  6c7fe0:	48 c7 45 00 00 00 00 	movq   $0x0,0x0(%rbp)
  6c7fe7:	00 
  6c7fe8:	c7 45 18 00 00 00 00 	movl   $0x0,0x18(%rbp)
  6c7fef:	4c 8d 75 28          	lea    0x28(%rbp),%r14
  6c7ff3:	ba 20 00 00 00       	mov    $0x20,%edx
  6c7ff8:	4c 89 f7             	mov    %r14,%rdi
