
test_g:     file format elf64-x86-64


Disassembly of section .text:

00000000006af3a0 <_start>:
  6af3a0:	f3 0f 1e fa          	endbr64 
  6af3a4:	31 ed                	xor    %ebp,%ebp
  6af3a6:	49 89 d1             	mov    %rdx,%r9
  6af3a9:	5e                   	pop    %rsi
  6af3aa:	48 89 e2             	mov    %rsp,%rdx
  6af3ad:	48 83 e4 f0          	and    $0xfffffffffffffff0,%rsp
  6af3b1:	50                   	push   %rax
  6af3b2:	54                   	push   %rsp
  6af3b3:	4c 8d 05 46 01 00 00 	lea    0x146(%rip),%r8        # 6af500 <__libc_csu_fini>
  6af3ba:	48 8d 0d cf 00 00 00 	lea    0xcf(%rip),%rcx        # 6af490 <__libc_csu_init>
  6af3c1:	48 8d 3d 88 ba 00 00 	lea    0xba88(%rip),%rdi        # 6bae50 <main>
  6af3c8:	ff 15 82 d8 00 00    	callq  *0xd882(%rip)        # 6bcc50 <__libc_start_main@GLIBC_2.2.5>
  6af3ce:	f4                   	hlt    
  6af3cf:	90                   	nop

00000000006af3d0 <_dl_relocate_static_pie>:
  6af3d0:	f3 0f 1e fa          	endbr64 
  6af3d4:	c3                   	retq   
  6af3d5:	cc                   	int3   
  6af3d6:	cc                   	int3   
  6af3d7:	cc                   	int3   
  6af3d8:	cc                   	int3   
  6af3d9:	cc                   	int3   
  6af3da:	cc                   	int3   
  6af3db:	cc                   	int3   
  6af3dc:	cc                   	int3   
  6af3dd:	cc                   	int3   
  6af3de:	cc                   	int3   
  6af3df:	cc                   	int3   

00000000006af3e0 <deregister_tm_clones>:
  6af3e0:	b8 b8 b2 6c 00       	mov    $0x6cb2b8,%eax
  6af3e5:	48 3d b8 b2 6c 00    	cmp    $0x6cb2b8,%rax
  6af3eb:	74 13                	je     6af400 <deregister_tm_clones+0x20>
  6af3ed:	b8 00 00 00 00       	mov    $0x0,%eax
  6af3f2:	48 85 c0             	test   %rax,%rax
  6af3f5:	74 09                	je     6af400 <deregister_tm_clones+0x20>
  6af3f7:	bf b8 b2 6c 00       	mov    $0x6cb2b8,%edi
  6af3fc:	ff e0                	jmpq   *%rax
  6af3fe:	66 90                	xchg   %ax,%ax
  6af400:	c3                   	retq   
  6af401:	66 66 2e 0f 1f 84 00 	data16 nopw %cs:0x0(%rax,%rax,1)
  6af408:	00 00 00 00 
  6af40c:	0f 1f 40 00          	nopl   0x0(%rax)

00000000006af410 <register_tm_clones>:
  6af410:	be b8 b2 6c 00       	mov    $0x6cb2b8,%esi
  6af415:	48 81 ee b8 b2 6c 00 	sub    $0x6cb2b8,%rsi
  6af41c:	48 89 f0             	mov    %rsi,%rax
  6af41f:	48 c1 ee 3f          	shr    $0x3f,%rsi
  6af423:	48 c1 f8 03          	sar    $0x3,%rax
  6af427:	48 01 c6             	add    %rax,%rsi
  6af42a:	48 d1 fe             	sar    %rsi
  6af42d:	74 11                	je     6af440 <register_tm_clones+0x30>
  6af42f:	b8 00 00 00 00       	mov    $0x0,%eax
  6af434:	48 85 c0             	test   %rax,%rax
  6af437:	74 07                	je     6af440 <register_tm_clones+0x30>
  6af439:	bf b8 b2 6c 00       	mov    $0x6cb2b8,%edi
  6af43e:	ff e0                	jmpq   *%rax
  6af440:	c3                   	retq   
  6af441:	66 66 2e 0f 1f 84 00 	data16 nopw %cs:0x0(%rax,%rax,1)
  6af448:	00 00 00 00 
  6af44c:	0f 1f 40 00          	nopl   0x0(%rax)

00000000006af450 <__do_global_dtors_aux>:
  6af450:	f3 0f 1e fa          	endbr64 
  6af454:	80 3d 25 bf 01 00 00 	cmpb   $0x0,0x1bf25(%rip)        # 6cb380 <completed.8061>
  6af45b:	75 13                	jne    6af470 <__do_global_dtors_aux+0x20>
  6af45d:	55                   	push   %rbp
  6af45e:	48 89 e5             	mov    %rsp,%rbp
  6af461:	e8 7a ff ff ff       	callq  6af3e0 <deregister_tm_clones>
  6af466:	c6 05 13 bf 01 00 01 	movb   $0x1,0x1bf13(%rip)        # 6cb380 <completed.8061>
  6af46d:	5d                   	pop    %rbp
  6af46e:	c3                   	retq   
  6af46f:	90                   	nop
  6af470:	c3                   	retq   
  6af471:	66 66 2e 0f 1f 84 00 	data16 nopw %cs:0x0(%rax,%rax,1)
  6af478:	00 00 00 00 
  6af47c:	0f 1f 40 00          	nopl   0x0(%rax)

00000000006af480 <frame_dummy>:
  6af480:	f3 0f 1e fa          	endbr64 
  6af484:	eb 8a                	jmp    6af410 <register_tm_clones>
  6af486:	cc                   	int3   
  6af487:	cc                   	int3   
  6af488:	cc                   	int3   
  6af489:	cc                   	int3   
  6af48a:	cc                   	int3   
  6af48b:	cc                   	int3   
  6af48c:	cc                   	int3   
  6af48d:	cc                   	int3   
  6af48e:	cc                   	int3   
  6af48f:	cc                   	int3   

00000000006af490 <__libc_csu_init>:
  6af490:	f3 0f 1e fa          	endbr64 
  6af494:	41 57                	push   %r15
  6af496:	4c 8d 3d 2b d6 00 00 	lea    0xd62b(%rip),%r15        # 6bcac8 <__frame_dummy_init_array_entry>
  6af49d:	41 56                	push   %r14
  6af49f:	49 89 d6             	mov    %rdx,%r14
  6af4a2:	41 55                	push   %r13
  6af4a4:	49 89 f5             	mov    %rsi,%r13
  6af4a7:	41 54                	push   %r12
  6af4a9:	41 89 fc             	mov    %edi,%r12d
  6af4ac:	55                   	push   %rbp
  6af4ad:	48 8d 2d 1c d6 00 00 	lea    0xd61c(%rip),%rbp        # 6bcad0 <_DYNAMIC>
  6af4b4:	53                   	push   %rbx
  6af4b5:	4c 29 fd             	sub    %r15,%rbp
  6af4b8:	48 83 ec 08          	sub    $0x8,%rsp
  6af4bc:	e8 87 c4 00 00       	callq  6bb948 <_init>
  6af4c1:	48 c1 fd 03          	sar    $0x3,%rbp
  6af4c5:	74 1f                	je     6af4e6 <__libc_csu_init+0x56>
  6af4c7:	31 db                	xor    %ebx,%ebx
  6af4c9:	0f 1f 80 00 00 00 00 	nopl   0x0(%rax)
  6af4d0:	4c 89 f2             	mov    %r14,%rdx
  6af4d3:	4c 89 ee             	mov    %r13,%rsi
  6af4d6:	44 89 e7             	mov    %r12d,%edi
  6af4d9:	41 ff 14 df          	callq  *(%r15,%rbx,8)
  6af4dd:	48 83 c3 01          	add    $0x1,%rbx
  6af4e1:	48 39 dd             	cmp    %rbx,%rbp
  6af4e4:	75 ea                	jne    6af4d0 <__libc_csu_init+0x40>
  6af4e6:	48 83 c4 08          	add    $0x8,%rsp
  6af4ea:	5b                   	pop    %rbx
  6af4eb:	5d                   	pop    %rbp
  6af4ec:	41 5c                	pop    %r12
  6af4ee:	41 5d                	pop    %r13
  6af4f0:	41 5e                	pop    %r14
  6af4f2:	41 5f                	pop    %r15
  6af4f4:	c3                   	retq   
  6af4f5:	66 66 2e 0f 1f 84 00 	data16 nopw %cs:0x0(%rax,%rax,1)
  6af4fc:	00 00 00 00 

00000000006af500 <__libc_csu_fini>:
  6af500:	f3 0f 1e fa          	endbr64 
  6af504:	c3                   	retq   
  6af505:	cc                   	int3   
  6af506:	cc                   	int3   
  6af507:	cc                   	int3   
  6af508:	cc                   	int3   
  6af509:	cc                   	int3   
  6af50a:	cc                   	int3   
  6af50b:	cc                   	int3   
  6af50c:	cc                   	int3   
  6af50d:	cc                   	int3   
  6af50e:	cc                   	int3   
  6af50f:	cc                   	int3   

00000000006af510 <http_parser_execute>:
  6af510:	55                   	push   %rbp
  6af511:	48 89 e5             	mov    %rsp,%rbp
  6af514:	48 81 ec f0 00 00 00 	sub    $0xf0,%rsp
  6af51b:	48 89 7d f0          	mov    %rdi,-0x10(%rbp)
  6af51f:	48 89 75 c8          	mov    %rsi,-0x38(%rbp)
  6af523:	48 89 55 c0          	mov    %rdx,-0x40(%rbp)
  6af527:	48 89 4d 88          	mov    %rcx,-0x78(%rbp)
  6af52b:	48 8b 45 c0          	mov    -0x40(%rbp),%rax
  6af52f:	48 89 45 d8          	mov    %rax,-0x28(%rbp)
  6af533:	48 c7 45 80 00 00 00 	movq   $0x0,-0x80(%rbp)
  6af53a:	00 
  6af53b:	48 c7 45 a8 00 00 00 	movq   $0x0,-0x58(%rbp)
  6af542:	00 
  6af543:	48 c7 45 90 00 00 00 	movq   $0x0,-0x70(%rbp)
  6af54a:	00 
  6af54b:	48 c7 45 a0 00 00 00 	movq   $0x0,-0x60(%rbp)
  6af552:	00 
  6af553:	48 c7 45 98 00 00 00 	movq   $0x0,-0x68(%rbp)
  6af55a:	00 
  6af55b:	48 8b 45 f0          	mov    -0x10(%rbp),%rax
  6af55f:	8b 00                	mov    (%rax),%eax
  6af561:	c1 e8 0a             	shr    $0xa,%eax
  6af564:	83 e0 7f             	and    $0x7f,%eax
  6af567:	89 45 ec             	mov    %eax,-0x14(%rbp)
  6af56a:	48 8b 45 f0          	mov    -0x10(%rbp),%rax
  6af56e:	8b 00                	mov    (%rax),%eax
  6af570:	c1 e8 1f             	shr    $0x1f,%eax
  6af573:	89 85 7c ff ff ff    	mov    %eax,-0x84(%rbp)
  6af579:	48 8b 45 f0          	mov    -0x10(%rbp),%rax
  6af57d:	8b 00                	mov    (%rax),%eax
  6af57f:	c1 e8 1e             	shr    $0x1e,%eax
  6af582:	83 e0 01             	and    $0x1,%eax
  6af585:	89 85 60 ff ff ff    	mov    %eax,-0xa0(%rbp)
  6af58b:	48 8b 45 f0          	mov    -0x10(%rbp),%rax
  6af58f:	8b 40 04             	mov    0x4(%rax),%eax
  6af592:	89 45 e4             	mov    %eax,-0x1c(%rbp)
  6af595:	48 8b 45 f0          	mov    -0x10(%rbp),%rax
  6af599:	8b 40 14             	mov    0x14(%rax),%eax
  6af59c:	c1 e8 18             	shr    $0x18,%eax
  6af59f:	83 e0 7f             	and    $0x7f,%eax
  6af5a2:	83 f8 00             	cmp    $0x0,%eax
  6af5a5:	74 0d                	je     6af5b4 <http_parser_execute+0xa4>
  6af5a7:	48 c7 45 b0 00 00 00 	movq   $0x0,-0x50(%rbp)
  6af5ae:	00 
  6af5af:	e9 46 5c 00 00       	jmpq   6b51fa <http_parser_execute+0x5cea>
  6af5b4:	48 83 7d 88 00       	cmpq   $0x0,-0x78(%rbp)
  6af5b9:	0f 85 b7 01 00 00    	jne    6af776 <http_parser_execute+0x266>
  6af5bf:	8b 45 ec             	mov    -0x14(%rbp),%eax
  6af5c2:	89 c1                	mov    %eax,%ecx
  6af5c4:	83 c1 ff             	add    $0xffffffff,%ecx
  6af5c7:	83 e9 02             	sub    $0x2,%ecx
  6af5ca:	0f 82 6a 01 00 00    	jb     6af73a <http_parser_execute+0x22a>
  6af5d0:	eb 00                	jmp    6af5d2 <http_parser_execute+0xc2>
  6af5d2:	89 c1                	mov    %eax,%ecx
  6af5d4:	83 e9 04             	sub    $0x4,%ecx
  6af5d7:	0f 84 5d 01 00 00    	je     6af73a <http_parser_execute+0x22a>
  6af5dd:	eb 00                	jmp    6af5df <http_parser_execute+0xcf>
  6af5df:	89 c1                	mov    %eax,%ecx
  6af5e1:	83 e9 12             	sub    $0x12,%ecx
  6af5e4:	0f 84 50 01 00 00    	je     6af73a <http_parser_execute+0x22a>
  6af5ea:	eb 00                	jmp    6af5ec <http_parser_execute+0xdc>
  6af5ec:	83 e8 3f             	sub    $0x3f,%eax
  6af5ef:	0f 85 52 01 00 00    	jne    6af747 <http_parser_execute+0x237>
  6af5f5:	eb 00                	jmp    6af5f7 <http_parser_execute+0xe7>
  6af5f7:	eb 00                	jmp    6af5f9 <http_parser_execute+0xe9>
  6af5f9:	48 8b 45 f0          	mov    -0x10(%rbp),%rax
  6af5fd:	8b 40 14             	mov    0x14(%rax),%eax
  6af600:	c1 e8 18             	shr    $0x18,%eax
  6af603:	83 e0 7f             	and    $0x7f,%eax
  6af606:	83 f8 00             	cmp    $0x0,%eax
  6af609:	75 02                	jne    6af60d <http_parser_execute+0xfd>
  6af60b:	eb 28                	jmp    6af635 <http_parser_execute+0x125>
  6af60d:	48 bf 00 2e 20 00 00 	movabs $0x202e00,%rdi
  6af614:	00 00 00 
  6af617:	48 be f5 2b 20 00 00 	movabs $0x202bf5,%rsi
  6af61e:	00 00 00 
  6af621:	48 b9 37 6e 20 00 00 	movabs $0x206e37,%rcx
  6af628:	00 00 00 
  6af62b:	ba 9f 02 00 00       	mov    $0x29f,%edx
  6af630:	e8 5b c3 00 00       	callq  6bb990 <__assert_fail@plt>
  6af635:	48 8b 45 c8          	mov    -0x38(%rbp),%rax
  6af639:	48 83 78 38 00       	cmpq   $0x0,0x38(%rax)
  6af63e:	0f 95 c0             	setne  %al
  6af641:	34 ff                	xor    $0xff,%al
  6af643:	34 ff                	xor    $0xff,%al
  6af645:	24 01                	and    $0x1,%al
  6af647:	0f b6 c0             	movzbl %al,%eax
  6af64a:	48 98                	cltq   
  6af64c:	48 83 f8 00          	cmp    $0x0,%rax
  6af650:	0f 84 d5 00 00 00    	je     6af72b <http_parser_execute+0x21b>
  6af656:	8b 45 ec             	mov    -0x14(%rbp),%eax
  6af659:	48 8b 4d f0          	mov    -0x10(%rbp),%rcx
  6af65d:	8b 11                	mov    (%rcx),%edx
  6af65f:	83 e0 7f             	and    $0x7f,%eax
  6af662:	c1 e0 0a             	shl    $0xa,%eax
  6af665:	81 e2 ff 03 fe ff    	and    $0xfffe03ff,%edx
  6af66b:	09 c2                	or     %eax,%edx
  6af66d:	89 11                	mov    %edx,(%rcx)
  6af66f:	48 8b 45 c8          	mov    -0x38(%rbp),%rax
  6af673:	48 8b 40 38          	mov    0x38(%rax),%rax
  6af677:	48 b9 c0 b8 6b 00 00 	movabs $0x6bb8c0,%rcx
  6af67e:	00 00 00 
  6af681:	48 89 c2             	mov    %rax,%rdx
  6af684:	48 29 ca             	sub    %rcx,%rdx
  6af687:	48 89 d1             	mov    %rdx,%rcx
  6af68a:	48 c1 e9 03          	shr    $0x3,%rcx
  6af68e:	48 c1 e2 3d          	shl    $0x3d,%rdx
  6af692:	48 09 d1             	or     %rdx,%rcx
  6af695:	48 83 f9 10          	cmp    $0x10,%rcx
  6af699:	76 05                	jbe    6af6a0 <http_parser_execute+0x190>
  6af69b:	67 0f b9 40 02       	ud1    0x2(%eax),%eax
  6af6a0:	48 8b 7d f0          	mov    -0x10(%rbp),%rdi
  6af6a4:	ff d0                	callq  *%rax
  6af6a6:	31 c9                	xor    %ecx,%ecx
  6af6a8:	39 c1                	cmp    %eax,%ecx
  6af6aa:	0f 95 c0             	setne  %al
  6af6ad:	34 ff                	xor    $0xff,%al
  6af6af:	34 ff                	xor    $0xff,%al
  6af6b1:	24 01                	and    $0x1,%al
  6af6b3:	0f b6 c0             	movzbl %al,%eax
  6af6b6:	48 98                	cltq   
  6af6b8:	48 83 f8 00          	cmp    $0x0,%rax
  6af6bc:	74 24                	je     6af6e2 <http_parser_execute+0x1d2>
  6af6be:	eb 00                	jmp    6af6c0 <http_parser_execute+0x1b0>
  6af6c0:	8b 45 e4             	mov    -0x1c(%rbp),%eax
  6af6c3:	48 8b 4d f0          	mov    -0x10(%rbp),%rcx
  6af6c7:	89 41 04             	mov    %eax,0x4(%rcx)
  6af6ca:	48 8b 45 f0          	mov    -0x10(%rbp),%rax
  6af6ce:	8b 48 14             	mov    0x14(%rax),%ecx
  6af6d1:	81 e1 ff ff ff 80    	and    $0x80ffffff,%ecx
  6af6d7:	81 c9 00 00 00 07    	or     $0x7000000,%ecx
  6af6dd:	89 48 14             	mov    %ecx,0x14(%rax)
  6af6e0:	eb 00                	jmp    6af6e2 <http_parser_execute+0x1d2>
  6af6e2:	48 8b 45 f0          	mov    -0x10(%rbp),%rax
  6af6e6:	8b 00                	mov    (%rax),%eax
  6af6e8:	c1 e8 0a             	shr    $0xa,%eax
  6af6eb:	83 e0 7f             	and    $0x7f,%eax
  6af6ee:	89 45 ec             	mov    %eax,-0x14(%rbp)
  6af6f1:	48 8b 45 f0          	mov    -0x10(%rbp),%rax
  6af6f5:	8b 40 14             	mov    0x14(%rax),%eax
  6af6f8:	c1 e8 18             	shr    $0x18,%eax
  6af6fb:	83 e0 7f             	and    $0x7f,%eax
  6af6fe:	83 f8 00             	cmp    $0x0,%eax
  6af701:	0f 95 c0             	setne  %al
  6af704:	34 ff                	xor    $0xff,%al
  6af706:	34 ff                	xor    $0xff,%al
  6af708:	24 01                	and    $0x1,%al
  6af70a:	0f b6 c0             	movzbl %al,%eax
  6af70d:	48 98                	cltq   
  6af70f:	48 83 f8 00          	cmp    $0x0,%rax
  6af713:	74 14                	je     6af729 <http_parser_execute+0x219>
  6af715:	48 8b 45 d8          	mov    -0x28(%rbp),%rax
  6af719:	48 8b 4d c0          	mov    -0x40(%rbp),%rcx
  6af71d:	48 29 c8             	sub    %rcx,%rax
  6af720:	48 89 45 b0          	mov    %rax,-0x50(%rbp)
  6af724:	e9 d1 5a 00 00       	jmpq   6b51fa <http_parser_execute+0x5cea>
  6af729:	eb 00                	jmp    6af72b <http_parser_execute+0x21b>
  6af72b:	eb 00                	jmp    6af72d <http_parser_execute+0x21d>
  6af72d:	48 c7 45 b0 00 00 00 	movq   $0x0,-0x50(%rbp)
  6af734:	00 
  6af735:	e9 c0 5a 00 00       	jmpq   6b51fa <http_parser_execute+0x5cea>
  6af73a:	48 c7 45 b0 00 00 00 	movq   $0x0,-0x50(%rbp)
  6af741:	00 
  6af742:	e9 b3 5a 00 00       	jmpq   6b51fa <http_parser_execute+0x5cea>
  6af747:	eb 00                	jmp    6af749 <http_parser_execute+0x239>
  6af749:	8b 45 e4             	mov    -0x1c(%rbp),%eax
  6af74c:	48 8b 4d f0          	mov    -0x10(%rbp),%rcx
  6af750:	89 41 04             	mov    %eax,0x4(%rcx)
  6af753:	48 8b 45 f0          	mov    -0x10(%rbp),%rax
  6af757:	8b 48 14             	mov    0x14(%rax),%ecx
  6af75a:	81 e1 ff ff ff 80    	and    $0x80ffffff,%ecx
  6af760:	81 c9 00 00 00 0b    	or     $0xb000000,%ecx
  6af766:	89 48 14             	mov    %ecx,0x14(%rax)
  6af769:	48 c7 45 b0 01 00 00 	movq   $0x1,-0x50(%rbp)
  6af770:	00 
  6af771:	e9 84 5a 00 00       	jmpq   6b51fa <http_parser_execute+0x5cea>
  6af776:	83 7d ec 2d          	cmpl   $0x2d,-0x14(%rbp)
  6af77a:	75 08                	jne    6af784 <http_parser_execute+0x274>
  6af77c:	48 8b 45 c0          	mov    -0x40(%rbp),%rax
  6af780:	48 89 45 80          	mov    %rax,-0x80(%rbp)
  6af784:	83 7d ec 32          	cmpl   $0x32,-0x14(%rbp)
  6af788:	75 08                	jne    6af792 <http_parser_execute+0x282>
  6af78a:	48 8b 45 c0          	mov    -0x40(%rbp),%rax
  6af78e:	48 89 45 a8          	mov    %rax,-0x58(%rbp)
  6af792:	8b 45 ec             	mov    -0x14(%rbp),%eax
  6af795:	89 c1                	mov    %eax,%ecx
  6af797:	83 e9 10             	sub    $0x10,%ecx
  6af79a:	74 16                	je     6af7b2 <http_parser_execute+0x2a2>
  6af79c:	eb 00                	jmp    6af79e <http_parser_execute+0x28e>
  6af79e:	83 c0 eb             	add    $0xffffffeb,%eax
  6af7a1:	83 e8 0a             	sub    $0xa,%eax
  6af7a4:	77 16                	ja     6af7bc <http_parser_execute+0x2ac>
  6af7a6:	eb 00                	jmp    6af7a8 <http_parser_execute+0x298>
  6af7a8:	48 8b 45 c0          	mov    -0x40(%rbp),%rax
  6af7ac:	48 89 45 90          	mov    %rax,-0x70(%rbp)
  6af7b0:	eb 0c                	jmp    6af7be <http_parser_execute+0x2ae>
  6af7b2:	48 8b 45 c0          	mov    -0x40(%rbp),%rax
  6af7b6:	48 89 45 98          	mov    %rax,-0x68(%rbp)
  6af7ba:	eb 02                	jmp    6af7be <http_parser_execute+0x2ae>
  6af7bc:	eb 00                	jmp    6af7be <http_parser_execute+0x2ae>
  6af7be:	48 8b 45 c0          	mov    -0x40(%rbp),%rax
  6af7c2:	48 89 45 d8          	mov    %rax,-0x28(%rbp)
  6af7c6:	48 8b 45 d8          	mov    -0x28(%rbp),%rax
  6af7ca:	48 8b 4d c0          	mov    -0x40(%rbp),%rcx
  6af7ce:	48 03 4d 88          	add    -0x78(%rbp),%rcx
  6af7d2:	48 39 c8             	cmp    %rcx,%rax
  6af7d5:	0f 84 3d 52 00 00    	je     6b4a18 <http_parser_execute+0x5508>
  6af7db:	48 8b 45 d8          	mov    -0x28(%rbp),%rax
  6af7df:	8a 00                	mov    (%rax),%al
  6af7e1:	88 45 ff             	mov    %al,-0x1(%rbp)
  6af7e4:	83 7d ec 3a          	cmpl   $0x3a,-0x14(%rbp)
  6af7e8:	77 54                	ja     6af83e <http_parser_execute+0x32e>
  6af7ea:	eb 00                	jmp    6af7ec <http_parser_execute+0x2dc>
  6af7ec:	8b 45 e4             	mov    -0x1c(%rbp),%eax
  6af7ef:	83 c0 01             	add    $0x1,%eax
  6af7f2:	89 45 e4             	mov    %eax,-0x1c(%rbp)
  6af7f5:	8b 45 e4             	mov    -0x1c(%rbp),%eax
  6af7f8:	3b 04 25 70 dc 6b 00 	cmp    0x6bdc70,%eax
  6af7ff:	0f 97 c0             	seta   %al
  6af802:	34 ff                	xor    $0xff,%al
  6af804:	34 ff                	xor    $0xff,%al
  6af806:	24 01                	and    $0x1,%al
  6af808:	0f b6 c0             	movzbl %al,%eax
  6af80b:	48 98                	cltq   
  6af80d:	48 83 f8 00          	cmp    $0x0,%rax
  6af811:	74 27                	je     6af83a <http_parser_execute+0x32a>
  6af813:	eb 00                	jmp    6af815 <http_parser_execute+0x305>
  6af815:	8b 45 e4             	mov    -0x1c(%rbp),%eax
  6af818:	48 8b 4d f0          	mov    -0x10(%rbp),%rcx
  6af81c:	89 41 04             	mov    %eax,0x4(%rcx)
  6af81f:	48 8b 45 f0          	mov    -0x10(%rbp),%rax
  6af823:	8b 48 14             	mov    0x14(%rax),%ecx
  6af826:	81 e1 ff ff ff 80    	and    $0x80ffffff,%ecx
  6af82c:	81 c9 00 00 00 0c    	or     $0xc000000,%ecx
  6af832:	89 48 14             	mov    %ecx,0x14(%rax)
  6af835:	e9 56 59 00 00       	jmpq   6b5190 <http_parser_execute+0x5c80>
  6af83a:	eb 00                	jmp    6af83c <http_parser_execute+0x32c>
  6af83c:	eb 00                	jmp    6af83e <http_parser_execute+0x32e>
  6af83e:	eb 00                	jmp    6af840 <http_parser_execute+0x330>
  6af840:	8b 45 ec             	mov    -0x14(%rbp),%eax
  6af843:	83 c0 ff             	add    $0xffffffff,%eax
  6af846:	89 c1                	mov    %eax,%ecx
  6af848:	83 e9 3f             	sub    $0x3f,%ecx
  6af84b:	0f 87 8c 51 00 00    	ja     6b49dd <http_parser_execute+0x54cd>
  6af851:	48 8b 04 c5 28 09 20 	mov    0x200928(,%rax,8),%rax
  6af858:	00 
  6af859:	ff e0                	jmpq   *%rax
  6af85b:	0f be 4d ff          	movsbl -0x1(%rbp),%ecx
  6af85f:	b0 01                	mov    $0x1,%al
  6af861:	83 f9 0d             	cmp    $0xd,%ecx
  6af864:	74 0a                	je     6af870 <http_parser_execute+0x360>
  6af866:	0f be 45 ff          	movsbl -0x1(%rbp),%eax
  6af86a:	83 f8 0a             	cmp    $0xa,%eax
  6af86d:	0f 94 c0             	sete   %al
  6af870:	34 ff                	xor    $0xff,%al
  6af872:	34 ff                	xor    $0xff,%al
  6af874:	24 01                	and    $0x1,%al
  6af876:	0f b6 c0             	movzbl %al,%eax
  6af879:	48 98                	cltq   
  6af87b:	48 83 f8 00          	cmp    $0x0,%rax
  6af87f:	74 05                	je     6af886 <http_parser_execute+0x376>
  6af881:	e9 7f 51 00 00       	jmpq   6b4a05 <http_parser_execute+0x54f5>
  6af886:	eb 00                	jmp    6af888 <http_parser_execute+0x378>
  6af888:	8b 45 e4             	mov    -0x1c(%rbp),%eax
  6af88b:	48 8b 4d f0          	mov    -0x10(%rbp),%rcx
  6af88f:	89 41 04             	mov    %eax,0x4(%rcx)
  6af892:	48 8b 45 f0          	mov    -0x10(%rbp),%rax
  6af896:	8b 48 14             	mov    0x14(%rax),%ecx
  6af899:	81 e1 ff ff ff 80    	and    $0x80ffffff,%ecx
  6af89f:	81 c9 00 00 00 0d    	or     $0xd000000,%ecx
  6af8a5:	89 48 14             	mov    %ecx,0x14(%rax)
  6af8a8:	e9 e3 58 00 00       	jmpq   6b5190 <http_parser_execute+0x5c80>
  6af8ad:	0f be 45 ff          	movsbl -0x1(%rbp),%eax
  6af8b1:	83 f8 0d             	cmp    $0xd,%eax
  6af8b4:	74 09                	je     6af8bf <http_parser_execute+0x3af>
  6af8b6:	0f be 45 ff          	movsbl -0x1(%rbp),%eax
  6af8ba:	83 f8 0a             	cmp    $0xa,%eax
  6af8bd:	75 05                	jne    6af8c4 <http_parser_execute+0x3b4>
  6af8bf:	e9 41 51 00 00       	jmpq   6b4a05 <http_parser_execute+0x54f5>
  6af8c4:	48 8b 45 f0          	mov    -0x10(%rbp),%rax
  6af8c8:	8b 08                	mov    (%rax),%ecx
  6af8ca:	81 e1 03 fc ff ff    	and    $0xfffffc03,%ecx
  6af8d0:	83 c9 00             	or     $0x0,%ecx
  6af8d3:	89 08                	mov    %ecx,(%rax)
  6af8d5:	48 8b 45 f0          	mov    -0x10(%rbp),%rax
  6af8d9:	8b 08                	mov    (%rax),%ecx
  6af8db:	81 e1 ff ff ff df    	and    $0xdfffffff,%ecx
  6af8e1:	83 c9 00             	or     $0x0,%ecx
  6af8e4:	89 08                	mov    %ecx,(%rax)
  6af8e6:	48 8b 45 f0          	mov    -0x10(%rbp),%rax
  6af8ea:	48 c7 40 08 ff ff ff 	movq   $0xffffffffffffffff,0x8(%rax)
  6af8f1:	ff 
  6af8f2:	0f be 45 ff          	movsbl -0x1(%rbp),%eax
  6af8f6:	83 f8 48             	cmp    $0x48,%eax
  6af8f9:	0f 85 3f 01 00 00    	jne    6afa3e <http_parser_execute+0x52e>
  6af8ff:	c7 45 ec 03 00 00 00 	movl   $0x3,-0x14(%rbp)
  6af906:	48 8b 45 f0          	mov    -0x10(%rbp),%rax
  6af90a:	8b 40 14             	mov    0x14(%rax),%eax
  6af90d:	c1 e8 18             	shr    $0x18,%eax
  6af910:	83 e0 7f             	and    $0x7f,%eax
  6af913:	83 f8 00             	cmp    $0x0,%eax
  6af916:	75 02                	jne    6af91a <http_parser_execute+0x40a>
  6af918:	eb 28                	jmp    6af942 <http_parser_execute+0x432>
  6af91a:	48 bf 00 2e 20 00 00 	movabs $0x202e00,%rdi
  6af921:	00 00 00 
  6af924:	48 be f5 2b 20 00 00 	movabs $0x202bf5,%rsi
  6af92b:	00 00 00 
  6af92e:	48 b9 37 6e 20 00 00 	movabs $0x206e37,%rcx
  6af935:	00 00 00 
  6af938:	ba e6 02 00 00       	mov    $0x2e6,%edx
  6af93d:	e8 4e c0 00 00       	callq  6bb990 <__assert_fail@plt>
  6af942:	48 8b 45 c8          	mov    -0x38(%rbp),%rax
  6af946:	48 83 38 00          	cmpq   $0x0,(%rax)
  6af94a:	0f 95 c0             	setne  %al
  6af94d:	34 ff                	xor    $0xff,%al
  6af94f:	34 ff                	xor    $0xff,%al
  6af951:	24 01                	and    $0x1,%al
  6af953:	0f b6 c0             	movzbl %al,%eax
  6af956:	48 98                	cltq   
  6af958:	48 83 f8 00          	cmp    $0x0,%rax
  6af95c:	0f 84 d8 00 00 00    	je     6afa3a <http_parser_execute+0x52a>
  6af962:	8b 45 ec             	mov    -0x14(%rbp),%eax
  6af965:	48 8b 4d f0          	mov    -0x10(%rbp),%rcx
  6af969:	8b 11                	mov    (%rcx),%edx
  6af96b:	83 e0 7f             	and    $0x7f,%eax
  6af96e:	c1 e0 0a             	shl    $0xa,%eax
  6af971:	81 e2 ff 03 fe ff    	and    $0xfffe03ff,%edx
  6af977:	09 c2                	or     %eax,%edx
  6af979:	89 11                	mov    %edx,(%rcx)
  6af97b:	48 8b 45 c8          	mov    -0x38(%rbp),%rax
  6af97f:	48 8b 08             	mov    (%rax),%rcx
  6af982:	48 b8 c0 b8 6b 00 00 	movabs $0x6bb8c0,%rax
  6af989:	00 00 00 
  6af98c:	48 89 ca             	mov    %rcx,%rdx
  6af98f:	48 29 c2             	sub    %rax,%rdx
  6af992:	48 89 d0             	mov    %rdx,%rax
  6af995:	48 c1 e8 03          	shr    $0x3,%rax
  6af999:	48 c1 e2 3d          	shl    $0x3d,%rdx
  6af99d:	48 09 d0             	or     %rdx,%rax
  6af9a0:	48 83 f8 10          	cmp    $0x10,%rax
  6af9a4:	76 05                	jbe    6af9ab <http_parser_execute+0x49b>
  6af9a6:	67 0f b9 40 02       	ud1    0x2(%eax),%eax
  6af9ab:	48 8b 7d f0          	mov    -0x10(%rbp),%rdi
  6af9af:	ff d1                	callq  *%rcx
  6af9b1:	31 c9                	xor    %ecx,%ecx
  6af9b3:	39 c1                	cmp    %eax,%ecx
  6af9b5:	0f 95 c0             	setne  %al
  6af9b8:	34 ff                	xor    $0xff,%al
  6af9ba:	34 ff                	xor    $0xff,%al
  6af9bc:	24 01                	and    $0x1,%al
  6af9be:	0f b6 c0             	movzbl %al,%eax
  6af9c1:	48 98                	cltq   
  6af9c3:	48 83 f8 00          	cmp    $0x0,%rax
  6af9c7:	74 24                	je     6af9ed <http_parser_execute+0x4dd>
  6af9c9:	eb 00                	jmp    6af9cb <http_parser_execute+0x4bb>
  6af9cb:	8b 45 e4             	mov    -0x1c(%rbp),%eax
  6af9ce:	48 8b 4d f0          	mov    -0x10(%rbp),%rcx
  6af9d2:	89 41 04             	mov    %eax,0x4(%rcx)
  6af9d5:	48 8b 45 f0          	mov    -0x10(%rbp),%rax
  6af9d9:	8b 48 14             	mov    0x14(%rax),%ecx
  6af9dc:	81 e1 ff ff ff 80    	and    $0x80ffffff,%ecx
  6af9e2:	81 c9 00 00 00 01    	or     $0x1000000,%ecx
  6af9e8:	89 48 14             	mov    %ecx,0x14(%rax)
  6af9eb:	eb 00                	jmp    6af9ed <http_parser_execute+0x4dd>
  6af9ed:	48 8b 45 f0          	mov    -0x10(%rbp),%rax
  6af9f1:	8b 00                	mov    (%rax),%eax
  6af9f3:	c1 e8 0a             	shr    $0xa,%eax
  6af9f6:	83 e0 7f             	and    $0x7f,%eax
  6af9f9:	89 45 ec             	mov    %eax,-0x14(%rbp)
  6af9fc:	48 8b 45 f0          	mov    -0x10(%rbp),%rax
  6afa00:	8b 40 14             	mov    0x14(%rax),%eax
  6afa03:	c1 e8 18             	shr    $0x18,%eax
  6afa06:	83 e0 7f             	and    $0x7f,%eax
  6afa09:	83 f8 00             	cmp    $0x0,%eax
  6afa0c:	0f 95 c0             	setne  %al
  6afa0f:	34 ff                	xor    $0xff,%al
  6afa11:	34 ff                	xor    $0xff,%al
  6afa13:	24 01                	and    $0x1,%al
  6afa15:	0f b6 c0             	movzbl %al,%eax
  6afa18:	48 98                	cltq   
  6afa1a:	48 83 f8 00          	cmp    $0x0,%rax
  6afa1e:	74 18                	je     6afa38 <http_parser_execute+0x528>
  6afa20:	48 8b 45 d8          	mov    -0x28(%rbp),%rax
  6afa24:	48 8b 4d c0          	mov    -0x40(%rbp),%rcx
  6afa28:	48 29 c8             	sub    %rcx,%rax
  6afa2b:	48 83 c0 01          	add    $0x1,%rax
  6afa2f:	48 89 45 b0          	mov    %rax,-0x50(%rbp)
  6afa33:	e9 c2 57 00 00       	jmpq   6b51fa <http_parser_execute+0x5cea>
  6afa38:	eb 00                	jmp    6afa3a <http_parser_execute+0x52a>
  6afa3a:	eb 00                	jmp    6afa3c <http_parser_execute+0x52c>
  6afa3c:	eb 1a                	jmp    6afa58 <http_parser_execute+0x548>
  6afa3e:	48 8b 45 f0          	mov    -0x10(%rbp),%rax
  6afa42:	8b 08                	mov    (%rax),%ecx
  6afa44:	83 e1 fc             	and    $0xfffffffc,%ecx
  6afa47:	83 c9 00             	or     $0x0,%ecx
  6afa4a:	89 08                	mov    %ecx,(%rax)
  6afa4c:	c7 45 ec 12 00 00 00 	movl   $0x12,-0x14(%rbp)
  6afa53:	e9 e8 fd ff ff       	jmpq   6af840 <http_parser_execute+0x330>
  6afa58:	e9 a8 4f 00 00       	jmpq   6b4a05 <http_parser_execute+0x54f5>
  6afa5d:	0f be 45 ff          	movsbl -0x1(%rbp),%eax
  6afa61:	83 f8 54             	cmp    $0x54,%eax
  6afa64:	75 1a                	jne    6afa80 <http_parser_execute+0x570>
  6afa66:	48 8b 45 f0          	mov    -0x10(%rbp),%rax
  6afa6a:	8b 08                	mov    (%rax),%ecx
  6afa6c:	83 e1 fc             	and    $0xfffffffc,%ecx
  6afa6f:	83 c9 01             	or     $0x1,%ecx
  6afa72:	89 08                	mov    %ecx,(%rax)
  6afa74:	c7 45 ec 06 00 00 00 	movl   $0x6,-0x14(%rbp)
  6afa7b:	e9 81 00 00 00       	jmpq   6afb01 <http_parser_execute+0x5f1>
  6afa80:	0f be 45 ff          	movsbl -0x1(%rbp),%eax
  6afa84:	83 f8 45             	cmp    $0x45,%eax
  6afa87:	0f 95 c0             	setne  %al
  6afa8a:	34 ff                	xor    $0xff,%al
  6afa8c:	34 ff                	xor    $0xff,%al
  6afa8e:	24 01                	and    $0x1,%al
  6afa90:	0f b6 c0             	movzbl %al,%eax
  6afa93:	48 98                	cltq   
  6afa95:	48 83 f8 00          	cmp    $0x0,%rax
  6afa99:	74 27                	je     6afac2 <http_parser_execute+0x5b2>
  6afa9b:	eb 00                	jmp    6afa9d <http_parser_execute+0x58d>
  6afa9d:	8b 45 e4             	mov    -0x1c(%rbp),%eax
  6afaa0:	48 8b 4d f0          	mov    -0x10(%rbp),%rcx
  6afaa4:	89 41 04             	mov    %eax,0x4(%rcx)
  6afaa7:	48 8b 45 f0          	mov    -0x10(%rbp),%rax
  6afaab:	8b 48 14             	mov    0x14(%rax),%ecx
  6afaae:	81 e1 ff ff ff 80    	and    $0x80ffffff,%ecx
  6afab4:	81 c9 00 00 00 1c    	or     $0x1c000000,%ecx
  6afaba:	89 48 14             	mov    %ecx,0x14(%rax)
  6afabd:	e9 ce 56 00 00       	jmpq   6b5190 <http_parser_execute+0x5c80>
  6afac2:	48 8b 45 f0          	mov    -0x10(%rbp),%rax
  6afac6:	8b 08                	mov    (%rax),%ecx
  6afac8:	83 e1 fc             	and    $0xfffffffc,%ecx
  6afacb:	83 c9 00             	or     $0x0,%ecx
  6aface:	89 08                	mov    %ecx,(%rax)
  6afad0:	48 8b 45 f0          	mov    -0x10(%rbp),%rax
  6afad4:	8b 48 14             	mov    0x14(%rax),%ecx
  6afad7:	81 e1 ff ff 00 ff    	and    $0xff00ffff,%ecx
  6afadd:	81 c9 00 00 02 00    	or     $0x20000,%ecx
  6afae3:	89 48 14             	mov    %ecx,0x14(%rax)
  6afae6:	48 8b 45 f0          	mov    -0x10(%rbp),%rax
  6afaea:	8b 08                	mov    (%rax),%ecx
  6afaec:	81 e1 ff ff ff e0    	and    $0xe0ffffff,%ecx
  6afaf2:	81 c9 00 00 00 02    	or     $0x2000000,%ecx
  6afaf8:	89 08                	mov    %ecx,(%rax)
  6afafa:	c7 45 ec 13 00 00 00 	movl   $0x13,-0x14(%rbp)
  6afb01:	e9 ff 4e 00 00       	jmpq   6b4a05 <http_parser_execute+0x54f5>
  6afb06:	0f be 45 ff          	movsbl -0x1(%rbp),%eax
  6afb0a:	83 f8 0d             	cmp    $0xd,%eax
  6afb0d:	74 09                	je     6afb18 <http_parser_execute+0x608>
  6afb0f:	0f be 45 ff          	movsbl -0x1(%rbp),%eax
  6afb13:	83 f8 0a             	cmp    $0xa,%eax
  6afb16:	75 05                	jne    6afb1d <http_parser_execute+0x60d>
  6afb18:	e9 e8 4e 00 00       	jmpq   6b4a05 <http_parser_execute+0x54f5>
  6afb1d:	48 8b 45 f0          	mov    -0x10(%rbp),%rax
  6afb21:	8b 08                	mov    (%rax),%ecx
  6afb23:	81 e1 03 fc ff ff    	and    $0xfffffc03,%ecx
  6afb29:	83 c9 00             	or     $0x0,%ecx
  6afb2c:	89 08                	mov    %ecx,(%rax)
  6afb2e:	48 8b 45 f0          	mov    -0x10(%rbp),%rax
  6afb32:	8b 08                	mov    (%rax),%ecx
  6afb34:	81 e1 ff ff ff df    	and    $0xdfffffff,%ecx
  6afb3a:	83 c9 00             	or     $0x0,%ecx
  6afb3d:	89 08                	mov    %ecx,(%rax)
  6afb3f:	48 8b 45 f0          	mov    -0x10(%rbp),%rax
  6afb43:	48 c7 40 08 ff ff ff 	movq   $0xffffffffffffffff,0x8(%rax)
  6afb4a:	ff 
  6afb4b:	0f be 45 ff          	movsbl -0x1(%rbp),%eax
  6afb4f:	83 f8 48             	cmp    $0x48,%eax
  6afb52:	75 09                	jne    6afb5d <http_parser_execute+0x64d>
  6afb54:	c7 45 ec 05 00 00 00 	movl   $0x5,-0x14(%rbp)
  6afb5b:	eb 27                	jmp    6afb84 <http_parser_execute+0x674>
  6afb5d:	eb 00                	jmp    6afb5f <http_parser_execute+0x64f>
  6afb5f:	8b 45 e4             	mov    -0x1c(%rbp),%eax
  6afb62:	48 8b 4d f0          	mov    -0x10(%rbp),%rcx
  6afb66:	89 41 04             	mov    %eax,0x4(%rcx)
  6afb69:	48 8b 45 f0          	mov    -0x10(%rbp),%rax
  6afb6d:	8b 48 14             	mov    0x14(%rax),%ecx
  6afb70:	81 e1 ff ff ff 80    	and    $0x80ffffff,%ecx
  6afb76:	81 c9 00 00 00 1c    	or     $0x1c000000,%ecx
  6afb7c:	89 48 14             	mov    %ecx,0x14(%rax)
  6afb7f:	e9 0c 56 00 00       	jmpq   6b5190 <http_parser_execute+0x5c80>
  6afb84:	eb 00                	jmp    6afb86 <http_parser_execute+0x676>
  6afb86:	48 8b 45 f0          	mov    -0x10(%rbp),%rax
  6afb8a:	8b 40 14             	mov    0x14(%rax),%eax
  6afb8d:	c1 e8 18             	shr    $0x18,%eax
  6afb90:	83 e0 7f             	and    $0x7f,%eax
  6afb93:	83 f8 00             	cmp    $0x0,%eax
  6afb96:	75 02                	jne    6afb9a <http_parser_execute+0x68a>
  6afb98:	eb 28                	jmp    6afbc2 <http_parser_execute+0x6b2>
  6afb9a:	48 bf 00 2e 20 00 00 	movabs $0x202e00,%rdi
  6afba1:	00 00 00 
  6afba4:	48 be f5 2b 20 00 00 	movabs $0x202bf5,%rsi
  6afbab:	00 00 00 
  6afbae:	48 b9 37 6e 20 00 00 	movabs $0x206e37,%rcx
  6afbb5:	00 00 00 
  6afbb8:	ba 10 03 00 00       	mov    $0x310,%edx
  6afbbd:	e8 ce bd 00 00       	callq  6bb990 <__assert_fail@plt>
  6afbc2:	48 8b 45 c8          	mov    -0x38(%rbp),%rax
  6afbc6:	48 83 38 00          	cmpq   $0x0,(%rax)
  6afbca:	0f 95 c0             	setne  %al
  6afbcd:	34 ff                	xor    $0xff,%al
  6afbcf:	34 ff                	xor    $0xff,%al
  6afbd1:	24 01                	and    $0x1,%al
  6afbd3:	0f b6 c0             	movzbl %al,%eax
  6afbd6:	48 98                	cltq   
  6afbd8:	48 83 f8 00          	cmp    $0x0,%rax
  6afbdc:	0f 84 d8 00 00 00    	je     6afcba <http_parser_execute+0x7aa>
  6afbe2:	8b 45 ec             	mov    -0x14(%rbp),%eax
  6afbe5:	48 8b 4d f0          	mov    -0x10(%rbp),%rcx
  6afbe9:	8b 11                	mov    (%rcx),%edx
  6afbeb:	83 e0 7f             	and    $0x7f,%eax
  6afbee:	c1 e0 0a             	shl    $0xa,%eax
  6afbf1:	81 e2 ff 03 fe ff    	and    $0xfffe03ff,%edx
  6afbf7:	09 c2                	or     %eax,%edx
  6afbf9:	89 11                	mov    %edx,(%rcx)
  6afbfb:	48 8b 45 c8          	mov    -0x38(%rbp),%rax
  6afbff:	48 8b 08             	mov    (%rax),%rcx
  6afc02:	48 b8 c0 b8 6b 00 00 	movabs $0x6bb8c0,%rax
  6afc09:	00 00 00 
  6afc0c:	48 89 ca             	mov    %rcx,%rdx
  6afc0f:	48 29 c2             	sub    %rax,%rdx
  6afc12:	48 89 d0             	mov    %rdx,%rax
  6afc15:	48 c1 e8 03          	shr    $0x3,%rax
  6afc19:	48 c1 e2 3d          	shl    $0x3d,%rdx
  6afc1d:	48 09 d0             	or     %rdx,%rax
  6afc20:	48 83 f8 10          	cmp    $0x10,%rax
  6afc24:	76 05                	jbe    6afc2b <http_parser_execute+0x71b>
  6afc26:	67 0f b9 40 02       	ud1    0x2(%eax),%eax
  6afc2b:	48 8b 7d f0          	mov    -0x10(%rbp),%rdi
  6afc2f:	ff d1                	callq  *%rcx
  6afc31:	31 c9                	xor    %ecx,%ecx
  6afc33:	39 c1                	cmp    %eax,%ecx
  6afc35:	0f 95 c0             	setne  %al
  6afc38:	34 ff                	xor    $0xff,%al
  6afc3a:	34 ff                	xor    $0xff,%al
  6afc3c:	24 01                	and    $0x1,%al
  6afc3e:	0f b6 c0             	movzbl %al,%eax
  6afc41:	48 98                	cltq   
  6afc43:	48 83 f8 00          	cmp    $0x0,%rax
  6afc47:	74 24                	je     6afc6d <http_parser_execute+0x75d>
  6afc49:	eb 00                	jmp    6afc4b <http_parser_execute+0x73b>
  6afc4b:	8b 45 e4             	mov    -0x1c(%rbp),%eax
  6afc4e:	48 8b 4d f0          	mov    -0x10(%rbp),%rcx
  6afc52:	89 41 04             	mov    %eax,0x4(%rcx)
  6afc55:	48 8b 45 f0          	mov    -0x10(%rbp),%rax
  6afc59:	8b 48 14             	mov    0x14(%rax),%ecx
  6afc5c:	81 e1 ff ff ff 80    	and    $0x80ffffff,%ecx
  6afc62:	81 c9 00 00 00 01    	or     $0x1000000,%ecx
  6afc68:	89 48 14             	mov    %ecx,0x14(%rax)
  6afc6b:	eb 00                	jmp    6afc6d <http_parser_execute+0x75d>
  6afc6d:	48 8b 45 f0          	mov    -0x10(%rbp),%rax
  6afc71:	8b 00                	mov    (%rax),%eax
  6afc73:	c1 e8 0a             	shr    $0xa,%eax
  6afc76:	83 e0 7f             	and    $0x7f,%eax
  6afc79:	89 45 ec             	mov    %eax,-0x14(%rbp)
  6afc7c:	48 8b 45 f0          	mov    -0x10(%rbp),%rax
  6afc80:	8b 40 14             	mov    0x14(%rax),%eax
  6afc83:	c1 e8 18             	shr    $0x18,%eax
  6afc86:	83 e0 7f             	and    $0x7f,%eax
  6afc89:	83 f8 00             	cmp    $0x0,%eax
  6afc8c:	0f 95 c0             	setne  %al
  6afc8f:	34 ff                	xor    $0xff,%al
  6afc91:	34 ff                	xor    $0xff,%al
  6afc93:	24 01                	and    $0x1,%al
  6afc95:	0f b6 c0             	movzbl %al,%eax
  6afc98:	48 98                	cltq   
  6afc9a:	48 83 f8 00          	cmp    $0x0,%rax
  6afc9e:	74 18                	je     6afcb8 <http_parser_execute+0x7a8>
  6afca0:	48 8b 45 d8          	mov    -0x28(%rbp),%rax
  6afca4:	48 8b 4d c0          	mov    -0x40(%rbp),%rcx
  6afca8:	48 29 c8             	sub    %rcx,%rax
  6afcab:	48 83 c0 01          	add    $0x1,%rax
  6afcaf:	48 89 45 b0          	mov    %rax,-0x50(%rbp)
  6afcb3:	e9 42 55 00 00       	jmpq   6b51fa <http_parser_execute+0x5cea>
  6afcb8:	eb 00                	jmp    6afcba <http_parser_execute+0x7aa>
  6afcba:	eb 00                	jmp    6afcbc <http_parser_execute+0x7ac>
  6afcbc:	e9 44 4d 00 00       	jmpq   6b4a05 <http_parser_execute+0x54f5>
  6afcc1:	eb 00                	jmp    6afcc3 <http_parser_execute+0x7b3>
  6afcc3:	0f be 45 ff          	movsbl -0x1(%rbp),%eax
  6afcc7:	83 f8 54             	cmp    $0x54,%eax
  6afcca:	74 27                	je     6afcf3 <http_parser_execute+0x7e3>
  6afccc:	eb 00                	jmp    6afcce <http_parser_execute+0x7be>
  6afcce:	8b 45 e4             	mov    -0x1c(%rbp),%eax
  6afcd1:	48 8b 4d f0          	mov    -0x10(%rbp),%rcx
  6afcd5:	89 41 04             	mov    %eax,0x4(%rcx)
  6afcd8:	48 8b 45 f0          	mov    -0x10(%rbp),%rax
  6afcdc:	8b 48 14             	mov    0x14(%rax),%ecx
  6afcdf:	81 e1 ff ff ff 80    	and    $0x80ffffff,%ecx
  6afce5:	81 c9 00 00 00 1e    	or     $0x1e000000,%ecx
  6afceb:	89 48 14             	mov    %ecx,0x14(%rax)
  6afcee:	e9 9d 54 00 00       	jmpq   6b5190 <http_parser_execute+0x5c80>
  6afcf3:	eb 00                	jmp    6afcf5 <http_parser_execute+0x7e5>
  6afcf5:	c7 45 ec 06 00 00 00 	movl   $0x6,-0x14(%rbp)
  6afcfc:	e9 04 4d 00 00       	jmpq   6b4a05 <http_parser_execute+0x54f5>
  6afd01:	eb 00                	jmp    6afd03 <http_parser_execute+0x7f3>
  6afd03:	0f be 45 ff          	movsbl -0x1(%rbp),%eax
  6afd07:	83 f8 54             	cmp    $0x54,%eax
  6afd0a:	74 27                	je     6afd33 <http_parser_execute+0x823>
  6afd0c:	eb 00                	jmp    6afd0e <http_parser_execute+0x7fe>
  6afd0e:	8b 45 e4             	mov    -0x1c(%rbp),%eax
  6afd11:	48 8b 4d f0          	mov    -0x10(%rbp),%rcx
  6afd15:	89 41 04             	mov    %eax,0x4(%rcx)
  6afd18:	48 8b 45 f0          	mov    -0x10(%rbp),%rax
  6afd1c:	8b 48 14             	mov    0x14(%rax),%ecx
  6afd1f:	81 e1 ff ff ff 80    	and    $0x80ffffff,%ecx
  6afd25:	81 c9 00 00 00 1e    	or     $0x1e000000,%ecx
  6afd2b:	89 48 14             	mov    %ecx,0x14(%rax)
  6afd2e:	e9 5d 54 00 00       	jmpq   6b5190 <http_parser_execute+0x5c80>
  6afd33:	eb 00                	jmp    6afd35 <http_parser_execute+0x825>
  6afd35:	c7 45 ec 07 00 00 00 	movl   $0x7,-0x14(%rbp)
  6afd3c:	e9 c4 4c 00 00       	jmpq   6b4a05 <http_parser_execute+0x54f5>
  6afd41:	eb 00                	jmp    6afd43 <http_parser_execute+0x833>
  6afd43:	0f be 45 ff          	movsbl -0x1(%rbp),%eax
  6afd47:	83 f8 50             	cmp    $0x50,%eax
  6afd4a:	74 27                	je     6afd73 <http_parser_execute+0x863>
  6afd4c:	eb 00                	jmp    6afd4e <http_parser_execute+0x83e>
  6afd4e:	8b 45 e4             	mov    -0x1c(%rbp),%eax
  6afd51:	48 8b 4d f0          	mov    -0x10(%rbp),%rcx
  6afd55:	89 41 04             	mov    %eax,0x4(%rcx)
  6afd58:	48 8b 45 f0          	mov    -0x10(%rbp),%rax
  6afd5c:	8b 48 14             	mov    0x14(%rax),%ecx
  6afd5f:	81 e1 ff ff ff 80    	and    $0x80ffffff,%ecx
  6afd65:	81 c9 00 00 00 1e    	or     $0x1e000000,%ecx
  6afd6b:	89 48 14             	mov    %ecx,0x14(%rax)
  6afd6e:	e9 1d 54 00 00       	jmpq   6b5190 <http_parser_execute+0x5c80>
  6afd73:	eb 00                	jmp    6afd75 <http_parser_execute+0x865>
  6afd75:	c7 45 ec 08 00 00 00 	movl   $0x8,-0x14(%rbp)
  6afd7c:	e9 84 4c 00 00       	jmpq   6b4a05 <http_parser_execute+0x54f5>
  6afd81:	eb 00                	jmp    6afd83 <http_parser_execute+0x873>
  6afd83:	0f be 45 ff          	movsbl -0x1(%rbp),%eax
  6afd87:	83 f8 2f             	cmp    $0x2f,%eax
  6afd8a:	74 27                	je     6afdb3 <http_parser_execute+0x8a3>
  6afd8c:	eb 00                	jmp    6afd8e <http_parser_execute+0x87e>
  6afd8e:	8b 45 e4             	mov    -0x1c(%rbp),%eax
  6afd91:	48 8b 4d f0          	mov    -0x10(%rbp),%rcx
  6afd95:	89 41 04             	mov    %eax,0x4(%rcx)
  6afd98:	48 8b 45 f0          	mov    -0x10(%rbp),%rax
  6afd9c:	8b 48 14             	mov    0x14(%rax),%ecx
  6afd9f:	81 e1 ff ff ff 80    	and    $0x80ffffff,%ecx
  6afda5:	81 c9 00 00 00 1e    	or     $0x1e000000,%ecx
  6afdab:	89 48 14             	mov    %ecx,0x14(%rax)
  6afdae:	e9 dd 53 00 00       	jmpq   6b5190 <http_parser_execute+0x5c80>
  6afdb3:	eb 00                	jmp    6afdb5 <http_parser_execute+0x8a5>
  6afdb5:	c7 45 ec 09 00 00 00 	movl   $0x9,-0x14(%rbp)
  6afdbc:	e9 44 4c 00 00       	jmpq   6b4a05 <http_parser_execute+0x54f5>
  6afdc1:	0f be 4d ff          	movsbl -0x1(%rbp),%ecx
  6afdc5:	31 c0                	xor    %eax,%eax
  6afdc7:	83 f9 30             	cmp    $0x30,%ecx
  6afdca:	7c 0a                	jl     6afdd6 <http_parser_execute+0x8c6>
  6afdcc:	0f be 45 ff          	movsbl -0x1(%rbp),%eax
  6afdd0:	83 f8 39             	cmp    $0x39,%eax
  6afdd3:	0f 9e c0             	setle  %al
  6afdd6:	34 ff                	xor    $0xff,%al
  6afdd8:	34 ff                	xor    $0xff,%al
  6afdda:	34 ff                	xor    $0xff,%al
  6afddc:	24 01                	and    $0x1,%al
  6afdde:	0f b6 c0             	movzbl %al,%eax
  6afde1:	48 98                	cltq   
  6afde3:	48 83 f8 00          	cmp    $0x0,%rax
  6afde7:	74 27                	je     6afe10 <http_parser_execute+0x900>
  6afde9:	eb 00                	jmp    6afdeb <http_parser_execute+0x8db>
  6afdeb:	8b 45 e4             	mov    -0x1c(%rbp),%eax
  6afdee:	48 8b 4d f0          	mov    -0x10(%rbp),%rcx
  6afdf2:	89 41 04             	mov    %eax,0x4(%rcx)
  6afdf5:	48 8b 45 f0          	mov    -0x10(%rbp),%rax
  6afdf9:	8b 48 14             	mov    0x14(%rax),%ecx
  6afdfc:	81 e1 ff ff ff 80    	and    $0x80ffffff,%ecx
  6afe02:	81 c9 00 00 00 0e    	or     $0xe000000,%ecx
  6afe08:	89 48 14             	mov    %ecx,0x14(%rax)
  6afe0b:	e9 80 53 00 00       	jmpq   6b5190 <http_parser_execute+0x5c80>
  6afe10:	0f be 45 ff          	movsbl -0x1(%rbp),%eax
  6afe14:	83 e8 30             	sub    $0x30,%eax
  6afe17:	48 8b 4d f0          	mov    -0x10(%rbp),%rcx
  6afe1b:	66 89 41 10          	mov    %ax,0x10(%rcx)
  6afe1f:	c7 45 ec 0a 00 00 00 	movl   $0xa,-0x14(%rbp)
  6afe26:	e9 da 4b 00 00       	jmpq   6b4a05 <http_parser_execute+0x54f5>
  6afe2b:	0f be 45 ff          	movsbl -0x1(%rbp),%eax
  6afe2f:	83 f8 2e             	cmp    $0x2e,%eax
  6afe32:	0f 95 c0             	setne  %al
  6afe35:	34 ff                	xor    $0xff,%al
  6afe37:	34 ff                	xor    $0xff,%al
  6afe39:	24 01                	and    $0x1,%al
  6afe3b:	0f b6 c0             	movzbl %al,%eax
  6afe3e:	48 98                	cltq   
  6afe40:	48 83 f8 00          	cmp    $0x0,%rax
  6afe44:	74 27                	je     6afe6d <http_parser_execute+0x95d>
  6afe46:	eb 00                	jmp    6afe48 <http_parser_execute+0x938>
  6afe48:	8b 45 e4             	mov    -0x1c(%rbp),%eax
  6afe4b:	48 8b 4d f0          	mov    -0x10(%rbp),%rcx
  6afe4f:	89 41 04             	mov    %eax,0x4(%rcx)
  6afe52:	48 8b 45 f0          	mov    -0x10(%rbp),%rax
  6afe56:	8b 48 14             	mov    0x14(%rax),%ecx
  6afe59:	81 e1 ff ff ff 80    	and    $0x80ffffff,%ecx
  6afe5f:	81 c9 00 00 00 0e    	or     $0xe000000,%ecx
  6afe65:	89 48 14             	mov    %ecx,0x14(%rax)
  6afe68:	e9 23 53 00 00       	jmpq   6b5190 <http_parser_execute+0x5c80>
  6afe6d:	c7 45 ec 0b 00 00 00 	movl   $0xb,-0x14(%rbp)
  6afe74:	e9 8c 4b 00 00       	jmpq   6b4a05 <http_parser_execute+0x54f5>
  6afe79:	0f be 4d ff          	movsbl -0x1(%rbp),%ecx
  6afe7d:	31 c0                	xor    %eax,%eax
  6afe7f:	83 f9 30             	cmp    $0x30,%ecx
  6afe82:	7c 0a                	jl     6afe8e <http_parser_execute+0x97e>
  6afe84:	0f be 45 ff          	movsbl -0x1(%rbp),%eax
  6afe88:	83 f8 39             	cmp    $0x39,%eax
  6afe8b:	0f 9e c0             	setle  %al
  6afe8e:	34 ff                	xor    $0xff,%al
  6afe90:	34 ff                	xor    $0xff,%al
  6afe92:	34 ff                	xor    $0xff,%al
  6afe94:	24 01                	and    $0x1,%al
  6afe96:	0f b6 c0             	movzbl %al,%eax
  6afe99:	48 98                	cltq   
  6afe9b:	48 83 f8 00          	cmp    $0x0,%rax
  6afe9f:	74 27                	je     6afec8 <http_parser_execute+0x9b8>
  6afea1:	eb 00                	jmp    6afea3 <http_parser_execute+0x993>
  6afea3:	8b 45 e4             	mov    -0x1c(%rbp),%eax
  6afea6:	48 8b 4d f0          	mov    -0x10(%rbp),%rcx
  6afeaa:	89 41 04             	mov    %eax,0x4(%rcx)
  6afead:	48 8b 45 f0          	mov    -0x10(%rbp),%rax
  6afeb1:	8b 48 14             	mov    0x14(%rax),%ecx
  6afeb4:	81 e1 ff ff ff 80    	and    $0x80ffffff,%ecx
  6afeba:	81 c9 00 00 00 0e    	or     $0xe000000,%ecx
  6afec0:	89 48 14             	mov    %ecx,0x14(%rax)
  6afec3:	e9 c8 52 00 00       	jmpq   6b5190 <http_parser_execute+0x5c80>
  6afec8:	0f be 45 ff          	movsbl -0x1(%rbp),%eax
  6afecc:	83 e8 30             	sub    $0x30,%eax
  6afecf:	48 8b 4d f0          	mov    -0x10(%rbp),%rcx
  6afed3:	66 89 41 12          	mov    %ax,0x12(%rcx)
  6afed7:	c7 45 ec 0c 00 00 00 	movl   $0xc,-0x14(%rbp)
  6afede:	e9 22 4b 00 00       	jmpq   6b4a05 <http_parser_execute+0x54f5>
  6afee3:	0f be 45 ff          	movsbl -0x1(%rbp),%eax
  6afee7:	83 f8 20             	cmp    $0x20,%eax
  6afeea:	0f 95 c0             	setne  %al
  6afeed:	34 ff                	xor    $0xff,%al
  6afeef:	34 ff                	xor    $0xff,%al
  6afef1:	24 01                	and    $0x1,%al
  6afef3:	0f b6 c0             	movzbl %al,%eax
  6afef6:	48 98                	cltq   
  6afef8:	48 83 f8 00          	cmp    $0x0,%rax
  6afefc:	74 27                	je     6aff25 <http_parser_execute+0xa15>
  6afefe:	eb 00                	jmp    6aff00 <http_parser_execute+0x9f0>
  6aff00:	8b 45 e4             	mov    -0x1c(%rbp),%eax
  6aff03:	48 8b 4d f0          	mov    -0x10(%rbp),%rcx
  6aff07:	89 41 04             	mov    %eax,0x4(%rcx)
  6aff0a:	48 8b 45 f0          	mov    -0x10(%rbp),%rax
  6aff0e:	8b 48 14             	mov    0x14(%rax),%ecx
  6aff11:	81 e1 ff ff ff 80    	and    $0x80ffffff,%ecx
  6aff17:	81 c9 00 00 00 0e    	or     $0xe000000,%ecx
  6aff1d:	89 48 14             	mov    %ecx,0x14(%rax)
  6aff20:	e9 6b 52 00 00       	jmpq   6b5190 <http_parser_execute+0x5c80>
  6aff25:	c7 45 ec 0d 00 00 00 	movl   $0xd,-0x14(%rbp)
  6aff2c:	e9 d4 4a 00 00       	jmpq   6b4a05 <http_parser_execute+0x54f5>
  6aff31:	0f be 45 ff          	movsbl -0x1(%rbp),%eax
  6aff35:	83 f8 30             	cmp    $0x30,%eax
  6aff38:	7c 09                	jl     6aff43 <http_parser_execute+0xa33>
  6aff3a:	0f be 45 ff          	movsbl -0x1(%rbp),%eax
  6aff3e:	83 f8 39             	cmp    $0x39,%eax
  6aff41:	7e 35                	jle    6aff78 <http_parser_execute+0xa68>
  6aff43:	0f be 45 ff          	movsbl -0x1(%rbp),%eax
  6aff47:	83 f8 20             	cmp    $0x20,%eax
  6aff4a:	75 05                	jne    6aff51 <http_parser_execute+0xa41>
  6aff4c:	e9 b4 4a 00 00       	jmpq   6b4a05 <http_parser_execute+0x54f5>
  6aff51:	eb 00                	jmp    6aff53 <http_parser_execute+0xa43>
  6aff53:	8b 45 e4             	mov    -0x1c(%rbp),%eax
  6aff56:	48 8b 4d f0          	mov    -0x10(%rbp),%rcx
  6aff5a:	89 41 04             	mov    %eax,0x4(%rcx)
  6aff5d:	48 8b 45 f0          	mov    -0x10(%rbp),%rax
  6aff61:	8b 48 14             	mov    0x14(%rax),%ecx
  6aff64:	81 e1 ff ff ff 80    	and    $0x80ffffff,%ecx
  6aff6a:	81 c9 00 00 00 0f    	or     $0xf000000,%ecx
  6aff70:	89 48 14             	mov    %ecx,0x14(%rax)
  6aff73:	e9 18 52 00 00       	jmpq   6b5190 <http_parser_execute+0x5c80>
  6aff78:	0f be 45 ff          	movsbl -0x1(%rbp),%eax
  6aff7c:	83 e8 30             	sub    $0x30,%eax
  6aff7f:	48 8b 4d f0          	mov    -0x10(%rbp),%rcx
  6aff83:	8b 51 14             	mov    0x14(%rcx),%edx
  6aff86:	25 ff ff 00 00       	and    $0xffff,%eax
  6aff8b:	81 e2 00 00 ff ff    	and    $0xffff0000,%edx
  6aff91:	09 c2                	or     %eax,%edx
  6aff93:	89 51 14             	mov    %edx,0x14(%rcx)
  6aff96:	c7 45 ec 0e 00 00 00 	movl   $0xe,-0x14(%rbp)
  6aff9d:	e9 63 4a 00 00       	jmpq   6b4a05 <http_parser_execute+0x54f5>
  6affa2:	0f be 45 ff          	movsbl -0x1(%rbp),%eax
  6affa6:	83 f8 30             	cmp    $0x30,%eax
  6affa9:	7c 09                	jl     6affb4 <http_parser_execute+0xaa4>
  6affab:	0f be 45 ff          	movsbl -0x1(%rbp),%eax
  6affaf:	83 f8 39             	cmp    $0x39,%eax
  6affb2:	7e 5e                	jle    6b0012 <http_parser_execute+0xb02>
  6affb4:	0f be 45 ff          	movsbl -0x1(%rbp),%eax
  6affb8:	89 c1                	mov    %eax,%ecx
  6affba:	83 e9 0a             	sub    $0xa,%ecx
  6affbd:	74 1b                	je     6affda <http_parser_execute+0xaca>
  6affbf:	eb 00                	jmp    6affc1 <http_parser_execute+0xab1>
  6affc1:	89 c1                	mov    %eax,%ecx
  6affc3:	83 e9 0d             	sub    $0xd,%ecx
  6affc6:	74 12                	je     6affda <http_parser_execute+0xaca>
  6affc8:	eb 00                	jmp    6affca <http_parser_execute+0xaba>
  6affca:	83 e8 20             	sub    $0x20,%eax
  6affcd:	75 17                	jne    6affe6 <http_parser_execute+0xad6>
  6affcf:	eb 00                	jmp    6affd1 <http_parser_execute+0xac1>
  6affd1:	c7 45 ec 0f 00 00 00 	movl   $0xf,-0x14(%rbp)
  6affd8:	eb 33                	jmp    6b000d <http_parser_execute+0xafd>
  6affda:	c7 45 ec 0f 00 00 00 	movl   $0xf,-0x14(%rbp)
  6affe1:	e9 6d fa ff ff       	jmpq   6afa53 <http_parser_execute+0x543>
  6affe6:	eb 00                	jmp    6affe8 <http_parser_execute+0xad8>
  6affe8:	8b 45 e4             	mov    -0x1c(%rbp),%eax
  6affeb:	48 8b 4d f0          	mov    -0x10(%rbp),%rcx
  6affef:	89 41 04             	mov    %eax,0x4(%rcx)
  6afff2:	48 8b 45 f0          	mov    -0x10(%rbp),%rax
  6afff6:	8b 48 14             	mov    0x14(%rax),%ecx
  6afff9:	81 e1 ff ff ff 80    	and    $0x80ffffff,%ecx
  6affff:	81 c9 00 00 00 0f    	or     $0xf000000,%ecx
  6b0005:	89 48 14             	mov    %ecx,0x14(%rax)
  6b0008:	e9 83 51 00 00       	jmpq   6b5190 <http_parser_execute+0x5c80>
  6b000d:	e9 f3 49 00 00       	jmpq   6b4a05 <http_parser_execute+0x54f5>
  6b0012:	48 8b 45 f0          	mov    -0x10(%rbp),%rax
  6b0016:	8b 48 14             	mov    0x14(%rax),%ecx
  6b0019:	81 e1 ff ff 00 00    	and    $0xffff,%ecx
  6b001f:	6b c9 0a             	imul   $0xa,%ecx,%ecx
  6b0022:	8b 50 14             	mov    0x14(%rax),%edx
  6b0025:	81 e1 ff ff 00 00    	and    $0xffff,%ecx
  6b002b:	81 e2 00 00 ff ff    	and    $0xffff0000,%edx
  6b0031:	09 ca                	or     %ecx,%edx
  6b0033:	89 50 14             	mov    %edx,0x14(%rax)
  6b0036:	0f be 45 ff          	movsbl -0x1(%rbp),%eax
  6b003a:	83 e8 30             	sub    $0x30,%eax
  6b003d:	48 8b 4d f0          	mov    -0x10(%rbp),%rcx
  6b0041:	8b 51 14             	mov    0x14(%rcx),%edx
  6b0044:	81 e2 ff ff 00 00    	and    $0xffff,%edx
  6b004a:	01 c2                	add    %eax,%edx
  6b004c:	8b 41 14             	mov    0x14(%rcx),%eax
  6b004f:	81 e2 ff ff 00 00    	and    $0xffff,%edx
  6b0055:	25 00 00 ff ff       	and    $0xffff0000,%eax
  6b005a:	09 d0                	or     %edx,%eax
  6b005c:	89 41 14             	mov    %eax,0x14(%rcx)
  6b005f:	48 8b 45 f0          	mov    -0x10(%rbp),%rax
  6b0063:	8b 40 14             	mov    0x14(%rax),%eax
  6b0066:	25 ff ff 00 00       	and    $0xffff,%eax
  6b006b:	3d e7 03 00 00       	cmp    $0x3e7,%eax
  6b0070:	0f 9f c0             	setg   %al
  6b0073:	34 ff                	xor    $0xff,%al
  6b0075:	34 ff                	xor    $0xff,%al
  6b0077:	24 01                	and    $0x1,%al
  6b0079:	0f b6 c0             	movzbl %al,%eax
  6b007c:	48 98                	cltq   
  6b007e:	48 83 f8 00          	cmp    $0x0,%rax
  6b0082:	74 27                	je     6b00ab <http_parser_execute+0xb9b>
  6b0084:	eb 00                	jmp    6b0086 <http_parser_execute+0xb76>
  6b0086:	8b 45 e4             	mov    -0x1c(%rbp),%eax
  6b0089:	48 8b 4d f0          	mov    -0x10(%rbp),%rcx
  6b008d:	89 41 04             	mov    %eax,0x4(%rcx)
  6b0090:	48 8b 45 f0          	mov    -0x10(%rbp),%rax
  6b0094:	8b 48 14             	mov    0x14(%rax),%ecx
  6b0097:	81 e1 ff ff ff 80    	and    $0x80ffffff,%ecx
  6b009d:	81 c9 00 00 00 0f    	or     $0xf000000,%ecx
  6b00a3:	89 48 14             	mov    %ecx,0x14(%rax)
  6b00a6:	e9 e5 50 00 00       	jmpq   6b5190 <http_parser_execute+0x5c80>
  6b00ab:	e9 55 49 00 00       	jmpq   6b4a05 <http_parser_execute+0x54f5>
  6b00b0:	eb 00                	jmp    6b00b2 <http_parser_execute+0xba2>
  6b00b2:	48 83 7d 98 00       	cmpq   $0x0,-0x68(%rbp)
  6b00b7:	75 08                	jne    6b00c1 <http_parser_execute+0xbb1>
  6b00b9:	48 8b 45 d8          	mov    -0x28(%rbp),%rax
  6b00bd:	48 89 45 98          	mov    %rax,-0x68(%rbp)
  6b00c1:	eb 00                	jmp    6b00c3 <http_parser_execute+0xbb3>
  6b00c3:	c7 45 ec 10 00 00 00 	movl   $0x10,-0x14(%rbp)
  6b00ca:	48 8b 45 f0          	mov    -0x10(%rbp),%rax
  6b00ce:	8b 08                	mov    (%rax),%ecx
  6b00d0:	81 e1 ff ff ff e0    	and    $0xe0ffffff,%ecx
  6b00d6:	83 c9 00             	or     $0x0,%ecx
  6b00d9:	89 08                	mov    %ecx,(%rax)
  6b00db:	0f be 45 ff          	movsbl -0x1(%rbp),%eax
  6b00df:	83 f8 0d             	cmp    $0xd,%eax
  6b00e2:	74 09                	je     6b00ed <http_parser_execute+0xbdd>
  6b00e4:	0f be 45 ff          	movsbl -0x1(%rbp),%eax
  6b00e8:	83 f8 0a             	cmp    $0xa,%eax
  6b00eb:	75 05                	jne    6b00f2 <http_parser_execute+0xbe2>
  6b00ed:	e9 61 f9 ff ff       	jmpq   6afa53 <http_parser_execute+0x543>
  6b00f2:	e9 0e 49 00 00       	jmpq   6b4a05 <http_parser_execute+0x54f5>
  6b00f7:	0f be 45 ff          	movsbl -0x1(%rbp),%eax
  6b00fb:	83 f8 0d             	cmp    $0xd,%eax
  6b00fe:	0f 85 66 01 00 00    	jne    6b026a <http_parser_execute+0xd5a>
  6b0104:	c7 45 ec 11 00 00 00 	movl   $0x11,-0x14(%rbp)
  6b010b:	48 8b 45 f0          	mov    -0x10(%rbp),%rax
  6b010f:	8b 40 14             	mov    0x14(%rax),%eax
  6b0112:	c1 e8 18             	shr    $0x18,%eax
  6b0115:	83 e0 7f             	and    $0x7f,%eax
  6b0118:	83 f8 00             	cmp    $0x0,%eax
  6b011b:	75 02                	jne    6b011f <http_parser_execute+0xc0f>
  6b011d:	eb 28                	jmp    6b0147 <http_parser_execute+0xc37>
  6b011f:	48 bf 00 2e 20 00 00 	movabs $0x202e00,%rdi
  6b0126:	00 00 00 
  6b0129:	48 be f5 2b 20 00 00 	movabs $0x202bf5,%rsi
  6b0130:	00 00 00 
  6b0133:	48 b9 37 6e 20 00 00 	movabs $0x206e37,%rcx
  6b013a:	00 00 00 
  6b013d:	ba 8e 03 00 00       	mov    $0x38e,%edx
  6b0142:	e8 49 b8 00 00       	callq  6bb990 <__assert_fail@plt>
  6b0147:	48 83 7d 98 00       	cmpq   $0x0,-0x68(%rbp)
  6b014c:	0f 84 11 01 00 00    	je     6b0263 <http_parser_execute+0xd53>
  6b0152:	48 8b 45 c8          	mov    -0x38(%rbp),%rax
  6b0156:	48 83 78 10 00       	cmpq   $0x0,0x10(%rax)
  6b015b:	0f 95 c0             	setne  %al
  6b015e:	34 ff                	xor    $0xff,%al
  6b0160:	34 ff                	xor    $0xff,%al
  6b0162:	24 01                	and    $0x1,%al
  6b0164:	0f b6 c0             	movzbl %al,%eax
  6b0167:	48 98                	cltq   
  6b0169:	48 83 f8 00          	cmp    $0x0,%rax
  6b016d:	0f 84 e8 00 00 00    	je     6b025b <http_parser_execute+0xd4b>
  6b0173:	8b 45 ec             	mov    -0x14(%rbp),%eax
  6b0176:	48 8b 4d f0          	mov    -0x10(%rbp),%rcx
  6b017a:	8b 11                	mov    (%rcx),%edx
  6b017c:	83 e0 7f             	and    $0x7f,%eax
  6b017f:	c1 e0 0a             	shl    $0xa,%eax
  6b0182:	81 e2 ff 03 fe ff    	and    $0xfffe03ff,%edx
  6b0188:	09 c2                	or     %eax,%edx
  6b018a:	89 11                	mov    %edx,(%rcx)
  6b018c:	48 8b 45 c8          	mov    -0x38(%rbp),%rax
  6b0190:	48 8b 48 10          	mov    0x10(%rax),%rcx
  6b0194:	48 b8 40 b8 6b 00 00 	movabs $0x6bb840,%rax
  6b019b:	00 00 00 
  6b019e:	48 89 ca             	mov    %rcx,%rdx
  6b01a1:	48 29 c2             	sub    %rax,%rdx
  6b01a4:	48 89 d0             	mov    %rdx,%rax
  6b01a7:	48 c1 e8 03          	shr    $0x3,%rax
  6b01ab:	48 c1 e2 3d          	shl    $0x3d,%rdx
  6b01af:	48 09 d0             	or     %rdx,%rax
  6b01b2:	48 83 f8 0f          	cmp    $0xf,%rax
  6b01b6:	76 05                	jbe    6b01bd <http_parser_execute+0xcad>
  6b01b8:	67 0f b9 40 02       	ud1    0x2(%eax),%eax
  6b01bd:	48 8b 7d f0          	mov    -0x10(%rbp),%rdi
  6b01c1:	48 8b 75 98          	mov    -0x68(%rbp),%rsi
  6b01c5:	48 8b 55 d8          	mov    -0x28(%rbp),%rdx
  6b01c9:	48 8b 45 98          	mov    -0x68(%rbp),%rax
  6b01cd:	48 29 c2             	sub    %rax,%rdx
  6b01d0:	ff d1                	callq  *%rcx
  6b01d2:	31 c9                	xor    %ecx,%ecx
  6b01d4:	39 c1                	cmp    %eax,%ecx
  6b01d6:	0f 95 c0             	setne  %al
  6b01d9:	34 ff                	xor    $0xff,%al
  6b01db:	34 ff                	xor    $0xff,%al
  6b01dd:	24 01                	and    $0x1,%al
  6b01df:	0f b6 c0             	movzbl %al,%eax
  6b01e2:	48 98                	cltq   
  6b01e4:	48 83 f8 00          	cmp    $0x0,%rax
  6b01e8:	74 24                	je     6b020e <http_parser_execute+0xcfe>
  6b01ea:	eb 00                	jmp    6b01ec <http_parser_execute+0xcdc>
  6b01ec:	8b 45 e4             	mov    -0x1c(%rbp),%eax
  6b01ef:	48 8b 4d f0          	mov    -0x10(%rbp),%rcx
  6b01f3:	89 41 04             	mov    %eax,0x4(%rcx)
  6b01f6:	48 8b 45 f0          	mov    -0x10(%rbp),%rax
  6b01fa:	8b 48 14             	mov    0x14(%rax),%ecx
  6b01fd:	81 e1 ff ff ff 80    	and    $0x80ffffff,%ecx
  6b0203:	81 c9 00 00 00 08    	or     $0x8000000,%ecx
  6b0209:	89 48 14             	mov    %ecx,0x14(%rax)
  6b020c:	eb 00                	jmp    6b020e <http_parser_execute+0xcfe>
  6b020e:	48 8b 45 f0          	mov    -0x10(%rbp),%rax
  6b0212:	8b 00                	mov    (%rax),%eax
  6b0214:	c1 e8 0a             	shr    $0xa,%eax
  6b0217:	83 e0 7f             	and    $0x7f,%eax
  6b021a:	89 45 ec             	mov    %eax,-0x14(%rbp)
  6b021d:	48 8b 45 f0          	mov    -0x10(%rbp),%rax
  6b0221:	8b 40 14             	mov    0x14(%rax),%eax
  6b0224:	c1 e8 18             	shr    $0x18,%eax
  6b0227:	83 e0 7f             	and    $0x7f,%eax
  6b022a:	83 f8 00             	cmp    $0x0,%eax
  6b022d:	0f 95 c0             	setne  %al
  6b0230:	34 ff                	xor    $0xff,%al
  6b0232:	34 ff                	xor    $0xff,%al
  6b0234:	24 01                	and    $0x1,%al
  6b0236:	0f b6 c0             	movzbl %al,%eax
  6b0239:	48 98                	cltq   
  6b023b:	48 83 f8 00          	cmp    $0x0,%rax
  6b023f:	74 18                	je     6b0259 <http_parser_execute+0xd49>
  6b0241:	48 8b 45 d8          	mov    -0x28(%rbp),%rax
  6b0245:	48 8b 4d c0          	mov    -0x40(%rbp),%rcx
  6b0249:	48 29 c8             	sub    %rcx,%rax
  6b024c:	48 83 c0 01          	add    $0x1,%rax
  6b0250:	48 89 45 b0          	mov    %rax,-0x50(%rbp)
  6b0254:	e9 a1 4f 00 00       	jmpq   6b51fa <http_parser_execute+0x5cea>
  6b0259:	eb 00                	jmp    6b025b <http_parser_execute+0xd4b>
  6b025b:	48 c7 45 98 00 00 00 	movq   $0x0,-0x68(%rbp)
  6b0262:	00 
  6b0263:	eb 00                	jmp    6b0265 <http_parser_execute+0xd55>
  6b0265:	e9 9b 47 00 00       	jmpq   6b4a05 <http_parser_execute+0x54f5>
  6b026a:	0f be 45 ff          	movsbl -0x1(%rbp),%eax
  6b026e:	83 f8 0a             	cmp    $0xa,%eax
  6b0271:	0f 85 66 01 00 00    	jne    6b03dd <http_parser_execute+0xecd>
  6b0277:	c7 45 ec 2c 00 00 00 	movl   $0x2c,-0x14(%rbp)
  6b027e:	48 8b 45 f0          	mov    -0x10(%rbp),%rax
  6b0282:	8b 40 14             	mov    0x14(%rax),%eax
  6b0285:	c1 e8 18             	shr    $0x18,%eax
  6b0288:	83 e0 7f             	and    $0x7f,%eax
  6b028b:	83 f8 00             	cmp    $0x0,%eax
  6b028e:	75 02                	jne    6b0292 <http_parser_execute+0xd82>
  6b0290:	eb 28                	jmp    6b02ba <http_parser_execute+0xdaa>
  6b0292:	48 bf 00 2e 20 00 00 	movabs $0x202e00,%rdi
  6b0299:	00 00 00 
  6b029c:	48 be f5 2b 20 00 00 	movabs $0x202bf5,%rsi
  6b02a3:	00 00 00 
  6b02a6:	48 b9 37 6e 20 00 00 	movabs $0x206e37,%rcx
  6b02ad:	00 00 00 
  6b02b0:	ba 94 03 00 00       	mov    $0x394,%edx
  6b02b5:	e8 d6 b6 00 00       	callq  6bb990 <__assert_fail@plt>
  6b02ba:	48 83 7d 98 00       	cmpq   $0x0,-0x68(%rbp)
  6b02bf:	0f 84 11 01 00 00    	je     6b03d6 <http_parser_execute+0xec6>
  6b02c5:	48 8b 45 c8          	mov    -0x38(%rbp),%rax
  6b02c9:	48 83 78 10 00       	cmpq   $0x0,0x10(%rax)
  6b02ce:	0f 95 c0             	setne  %al
  6b02d1:	34 ff                	xor    $0xff,%al
  6b02d3:	34 ff                	xor    $0xff,%al
  6b02d5:	24 01                	and    $0x1,%al
  6b02d7:	0f b6 c0             	movzbl %al,%eax
  6b02da:	48 98                	cltq   
  6b02dc:	48 83 f8 00          	cmp    $0x0,%rax
  6b02e0:	0f 84 e8 00 00 00    	je     6b03ce <http_parser_execute+0xebe>
  6b02e6:	8b 45 ec             	mov    -0x14(%rbp),%eax
  6b02e9:	48 8b 4d f0          	mov    -0x10(%rbp),%rcx
  6b02ed:	8b 11                	mov    (%rcx),%edx
  6b02ef:	83 e0 7f             	and    $0x7f,%eax
  6b02f2:	c1 e0 0a             	shl    $0xa,%eax
  6b02f5:	81 e2 ff 03 fe ff    	and    $0xfffe03ff,%edx
  6b02fb:	09 c2                	or     %eax,%edx
  6b02fd:	89 11                	mov    %edx,(%rcx)
  6b02ff:	48 8b 45 c8          	mov    -0x38(%rbp),%rax
  6b0303:	48 8b 48 10          	mov    0x10(%rax),%rcx
  6b0307:	48 b8 40 b8 6b 00 00 	movabs $0x6bb840,%rax
  6b030e:	00 00 00 
  6b0311:	48 89 ca             	mov    %rcx,%rdx
  6b0314:	48 29 c2             	sub    %rax,%rdx
  6b0317:	48 89 d0             	mov    %rdx,%rax
  6b031a:	48 c1 e8 03          	shr    $0x3,%rax
  6b031e:	48 c1 e2 3d          	shl    $0x3d,%rdx
  6b0322:	48 09 d0             	or     %rdx,%rax
  6b0325:	48 83 f8 0f          	cmp    $0xf,%rax
  6b0329:	76 05                	jbe    6b0330 <http_parser_execute+0xe20>
  6b032b:	67 0f b9 40 02       	ud1    0x2(%eax),%eax
  6b0330:	48 8b 7d f0          	mov    -0x10(%rbp),%rdi
  6b0334:	48 8b 75 98          	mov    -0x68(%rbp),%rsi
  6b0338:	48 8b 55 d8          	mov    -0x28(%rbp),%rdx
  6b033c:	48 8b 45 98          	mov    -0x68(%rbp),%rax
  6b0340:	48 29 c2             	sub    %rax,%rdx
  6b0343:	ff d1                	callq  *%rcx
  6b0345:	31 c9                	xor    %ecx,%ecx
  6b0347:	39 c1                	cmp    %eax,%ecx
  6b0349:	0f 95 c0             	setne  %al
  6b034c:	34 ff                	xor    $0xff,%al
  6b034e:	34 ff                	xor    $0xff,%al
  6b0350:	24 01                	and    $0x1,%al
  6b0352:	0f b6 c0             	movzbl %al,%eax
  6b0355:	48 98                	cltq   
  6b0357:	48 83 f8 00          	cmp    $0x0,%rax
  6b035b:	74 24                	je     6b0381 <http_parser_execute+0xe71>
  6b035d:	eb 00                	jmp    6b035f <http_parser_execute+0xe4f>
  6b035f:	8b 45 e4             	mov    -0x1c(%rbp),%eax
  6b0362:	48 8b 4d f0          	mov    -0x10(%rbp),%rcx
  6b0366:	89 41 04             	mov    %eax,0x4(%rcx)
  6b0369:	48 8b 45 f0          	mov    -0x10(%rbp),%rax
  6b036d:	8b 48 14             	mov    0x14(%rax),%ecx
  6b0370:	81 e1 ff ff ff 80    	and    $0x80ffffff,%ecx
  6b0376:	81 c9 00 00 00 08    	or     $0x8000000,%ecx
  6b037c:	89 48 14             	mov    %ecx,0x14(%rax)
  6b037f:	eb 00                	jmp    6b0381 <http_parser_execute+0xe71>
  6b0381:	48 8b 45 f0          	mov    -0x10(%rbp),%rax
  6b0385:	8b 00                	mov    (%rax),%eax
  6b0387:	c1 e8 0a             	shr    $0xa,%eax
  6b038a:	83 e0 7f             	and    $0x7f,%eax
  6b038d:	89 45 ec             	mov    %eax,-0x14(%rbp)
  6b0390:	48 8b 45 f0          	mov    -0x10(%rbp),%rax
  6b0394:	8b 40 14             	mov    0x14(%rax),%eax
  6b0397:	c1 e8 18             	shr    $0x18,%eax
  6b039a:	83 e0 7f             	and    $0x7f,%eax
  6b039d:	83 f8 00             	cmp    $0x0,%eax
  6b03a0:	0f 95 c0             	setne  %al
  6b03a3:	34 ff                	xor    $0xff,%al
  6b03a5:	34 ff                	xor    $0xff,%al
  6b03a7:	24 01                	and    $0x1,%al
  6b03a9:	0f b6 c0             	movzbl %al,%eax
  6b03ac:	48 98                	cltq   
  6b03ae:	48 83 f8 00          	cmp    $0x0,%rax
  6b03b2:	74 18                	je     6b03cc <http_parser_execute+0xebc>
  6b03b4:	48 8b 45 d8          	mov    -0x28(%rbp),%rax
  6b03b8:	48 8b 4d c0          	mov    -0x40(%rbp),%rcx
  6b03bc:	48 29 c8             	sub    %rcx,%rax
  6b03bf:	48 83 c0 01          	add    $0x1,%rax
  6b03c3:	48 89 45 b0          	mov    %rax,-0x50(%rbp)
  6b03c7:	e9 2e 4e 00 00       	jmpq   6b51fa <http_parser_execute+0x5cea>
  6b03cc:	eb 00                	jmp    6b03ce <http_parser_execute+0xebe>
  6b03ce:	48 c7 45 98 00 00 00 	movq   $0x0,-0x68(%rbp)
  6b03d5:	00 
  6b03d6:	eb 00                	jmp    6b03d8 <http_parser_execute+0xec8>
  6b03d8:	e9 28 46 00 00       	jmpq   6b4a05 <http_parser_execute+0x54f5>
  6b03dd:	e9 23 46 00 00       	jmpq   6b4a05 <http_parser_execute+0x54f5>
  6b03e2:	eb 00                	jmp    6b03e4 <http_parser_execute+0xed4>
  6b03e4:	0f be 45 ff          	movsbl -0x1(%rbp),%eax
  6b03e8:	83 f8 0a             	cmp    $0xa,%eax
  6b03eb:	74 27                	je     6b0414 <http_parser_execute+0xf04>
  6b03ed:	eb 00                	jmp    6b03ef <http_parser_execute+0xedf>
  6b03ef:	8b 45 e4             	mov    -0x1c(%rbp),%eax
  6b03f2:	48 8b 4d f0          	mov    -0x10(%rbp),%rcx
  6b03f6:	89 41 04             	mov    %eax,0x4(%rcx)
  6b03f9:	48 8b 45 f0          	mov    -0x10(%rbp),%rax
  6b03fd:	8b 48 14             	mov    0x14(%rax),%ecx
  6b0400:	81 e1 ff ff ff 80    	and    $0x80ffffff,%ecx
  6b0406:	81 c9 00 00 00 1e    	or     $0x1e000000,%ecx
  6b040c:	89 48 14             	mov    %ecx,0x14(%rax)
  6b040f:	e9 7c 4d 00 00       	jmpq   6b5190 <http_parser_execute+0x5c80>
  6b0414:	eb 00                	jmp    6b0416 <http_parser_execute+0xf06>
  6b0416:	c7 45 ec 2c 00 00 00 	movl   $0x2c,-0x14(%rbp)
  6b041d:	e9 e3 45 00 00       	jmpq   6b4a05 <http_parser_execute+0x54f5>
  6b0422:	0f be 45 ff          	movsbl -0x1(%rbp),%eax
  6b0426:	83 f8 0d             	cmp    $0xd,%eax
  6b0429:	74 09                	je     6b0434 <http_parser_execute+0xf24>
  6b042b:	0f be 45 ff          	movsbl -0x1(%rbp),%eax
  6b042f:	83 f8 0a             	cmp    $0xa,%eax
  6b0432:	75 05                	jne    6b0439 <http_parser_execute+0xf29>
  6b0434:	e9 cc 45 00 00       	jmpq   6b4a05 <http_parser_execute+0x54f5>
  6b0439:	48 8b 45 f0          	mov    -0x10(%rbp),%rax
  6b043d:	8b 08                	mov    (%rax),%ecx
  6b043f:	81 e1 03 fc ff ff    	and    $0xfffffc03,%ecx
  6b0445:	83 c9 00             	or     $0x0,%ecx
  6b0448:	89 08                	mov    %ecx,(%rax)
  6b044a:	48 8b 45 f0          	mov    -0x10(%rbp),%rax
  6b044e:	8b 08                	mov    (%rax),%ecx
  6b0450:	81 e1 ff ff ff df    	and    $0xdfffffff,%ecx
  6b0456:	83 c9 00             	or     $0x0,%ecx
  6b0459:	89 08                	mov    %ecx,(%rax)
  6b045b:	48 8b 45 f0          	mov    -0x10(%rbp),%rax
  6b045f:	48 c7 40 08 ff ff ff 	movq   $0xffffffffffffffff,0x8(%rax)
  6b0466:	ff 
  6b0467:	0f be 45 ff          	movsbl -0x1(%rbp),%eax
  6b046b:	83 c8 20             	or     $0x20,%eax
  6b046e:	0f b6 c8             	movzbl %al,%ecx
  6b0471:	31 c0                	xor    %eax,%eax
  6b0473:	83 f9 61             	cmp    $0x61,%ecx
  6b0476:	7c 10                	jl     6b0488 <http_parser_execute+0xf78>
  6b0478:	0f be 45 ff          	movsbl -0x1(%rbp),%eax
  6b047c:	83 c8 20             	or     $0x20,%eax
  6b047f:	0f b6 c0             	movzbl %al,%eax
  6b0482:	83 f8 7a             	cmp    $0x7a,%eax
  6b0485:	0f 9e c0             	setle  %al
  6b0488:	34 ff                	xor    $0xff,%al
  6b048a:	34 ff                	xor    $0xff,%al
  6b048c:	34 ff                	xor    $0xff,%al
  6b048e:	24 01                	and    $0x1,%al
  6b0490:	0f b6 c0             	movzbl %al,%eax
  6b0493:	48 98                	cltq   
  6b0495:	48 83 f8 00          	cmp    $0x0,%rax
  6b0499:	74 27                	je     6b04c2 <http_parser_execute+0xfb2>
  6b049b:	eb 00                	jmp    6b049d <http_parser_execute+0xf8d>
  6b049d:	8b 45 e4             	mov    -0x1c(%rbp),%eax
  6b04a0:	48 8b 4d f0          	mov    -0x10(%rbp),%rcx
  6b04a4:	89 41 04             	mov    %eax,0x4(%rcx)
  6b04a7:	48 8b 45 f0          	mov    -0x10(%rbp),%rax
  6b04ab:	8b 48 14             	mov    0x14(%rax),%ecx
  6b04ae:	81 e1 ff ff ff 80    	and    $0x80ffffff,%ecx
  6b04b4:	81 c9 00 00 00 10    	or     $0x10000000,%ecx
  6b04ba:	89 48 14             	mov    %ecx,0x14(%rax)
  6b04bd:	e9 ce 4c 00 00       	jmpq   6b5190 <http_parser_execute+0x5c80>
  6b04c2:	48 8b 45 f0          	mov    -0x10(%rbp),%rax
  6b04c6:	8b 48 14             	mov    0x14(%rax),%ecx
  6b04c9:	81 e1 ff ff 00 ff    	and    $0xff00ffff,%ecx
  6b04cf:	89 48 14             	mov    %ecx,0x14(%rax)
  6b04d2:	48 8b 45 f0          	mov    -0x10(%rbp),%rax
  6b04d6:	8b 08                	mov    (%rax),%ecx
  6b04d8:	81 e1 ff ff ff e0    	and    $0xe0ffffff,%ecx
  6b04de:	81 c9 00 00 00 01    	or     $0x1000000,%ecx
  6b04e4:	89 08                	mov    %ecx,(%rax)
  6b04e6:	0f be 45 ff          	movsbl -0x1(%rbp),%eax
  6b04ea:	83 c0 bf             	add    $0xffffffbf,%eax
  6b04ed:	89 c1                	mov    %eax,%ecx
  6b04ef:	83 e9 14             	sub    $0x14,%ecx
  6b04f2:	0f 87 90 01 00 00    	ja     6b0688 <http_parser_execute+0x1178>
  6b04f8:	48 8b 04 c5 08 0e 20 	mov    0x200e08(,%rax,8),%rax
  6b04ff:	00 
  6b0500:	ff e0                	jmpq   *%rax
  6b0502:	48 8b 45 f0          	mov    -0x10(%rbp),%rax
  6b0506:	8b 48 14             	mov    0x14(%rax),%ecx
  6b0509:	81 e1 ff ff 00 ff    	and    $0xff00ffff,%ecx
  6b050f:	81 c9 00 00 13 00    	or     $0x130000,%ecx
  6b0515:	89 48 14             	mov    %ecx,0x14(%rax)
  6b0518:	e9 92 01 00 00       	jmpq   6b06af <http_parser_execute+0x119f>
  6b051d:	48 8b 45 f0          	mov    -0x10(%rbp),%rax
  6b0521:	8b 48 14             	mov    0x14(%rax),%ecx
  6b0524:	81 e1 ff ff 00 ff    	and    $0xff00ffff,%ecx
  6b052a:	81 c9 00 00 10 00    	or     $0x100000,%ecx
  6b0530:	89 48 14             	mov    %ecx,0x14(%rax)
  6b0533:	e9 77 01 00 00       	jmpq   6b06af <http_parser_execute+0x119f>
  6b0538:	48 8b 45 f0          	mov    -0x10(%rbp),%rax
  6b053c:	8b 48 14             	mov    0x14(%rax),%ecx
  6b053f:	81 e1 ff ff 00 ff    	and    $0xff00ffff,%ecx
  6b0545:	81 c9 00 00 05 00    	or     $0x50000,%ecx
  6b054b:	89 48 14             	mov    %ecx,0x14(%rax)
  6b054e:	e9 5c 01 00 00       	jmpq   6b06af <http_parser_execute+0x119f>
  6b0553:	48 8b 45 f0          	mov    -0x10(%rbp),%rax
  6b0557:	8b 48 14             	mov    0x14(%rax),%ecx
  6b055a:	81 e1 ff ff 00 ff    	and    $0xff00ffff,%ecx
  6b0560:	83 c9 00             	or     $0x0,%ecx
  6b0563:	89 48 14             	mov    %ecx,0x14(%rax)
  6b0566:	e9 44 01 00 00       	jmpq   6b06af <http_parser_execute+0x119f>
  6b056b:	48 8b 45 f0          	mov    -0x10(%rbp),%rax
  6b056f:	8b 48 14             	mov    0x14(%rax),%ecx
  6b0572:	81 e1 ff ff 00 ff    	and    $0xff00ffff,%ecx
  6b0578:	81 c9 00 00 01 00    	or     $0x10000,%ecx
  6b057e:	89 48 14             	mov    %ecx,0x14(%rax)
  6b0581:	e9 29 01 00 00       	jmpq   6b06af <http_parser_execute+0x119f>
  6b0586:	48 8b 45 f0          	mov    -0x10(%rbp),%rax
  6b058a:	8b 48 14             	mov    0x14(%rax),%ecx
  6b058d:	81 e1 ff ff 00 ff    	and    $0xff00ffff,%ecx
  6b0593:	81 c9 00 00 02 00    	or     $0x20000,%ecx
  6b0599:	89 48 14             	mov    %ecx,0x14(%rax)
  6b059c:	e9 0e 01 00 00       	jmpq   6b06af <http_parser_execute+0x119f>
  6b05a1:	48 8b 45 f0          	mov    -0x10(%rbp),%rax
  6b05a5:	8b 48 14             	mov    0x14(%rax),%ecx
  6b05a8:	81 e1 ff ff 00 ff    	and    $0xff00ffff,%ecx
  6b05ae:	81 c9 00 00 09 00    	or     $0x90000,%ecx
  6b05b4:	89 48 14             	mov    %ecx,0x14(%rax)
  6b05b7:	e9 f3 00 00 00       	jmpq   6b06af <http_parser_execute+0x119f>
  6b05bc:	48 8b 45 f0          	mov    -0x10(%rbp),%rax
  6b05c0:	8b 48 14             	mov    0x14(%rax),%ecx
  6b05c3:	81 e1 ff ff 00 ff    	and    $0xff00ffff,%ecx
  6b05c9:	81 c9 00 00 0a 00    	or     $0xa0000,%ecx
  6b05cf:	89 48 14             	mov    %ecx,0x14(%rax)
  6b05d2:	e9 d8 00 00 00       	jmpq   6b06af <http_parser_execute+0x119f>
  6b05d7:	48 8b 45 f0          	mov    -0x10(%rbp),%rax
  6b05db:	8b 48 14             	mov    0x14(%rax),%ecx
  6b05de:	81 e1 ff ff 00 ff    	and    $0xff00ffff,%ecx
  6b05e4:	81 c9 00 00 19 00    	or     $0x190000,%ecx
  6b05ea:	89 48 14             	mov    %ecx,0x14(%rax)
  6b05ed:	e9 bd 00 00 00       	jmpq   6b06af <http_parser_execute+0x119f>
  6b05f2:	48 8b 45 f0          	mov    -0x10(%rbp),%rax
  6b05f6:	8b 48 14             	mov    0x14(%rax),%ecx
  6b05f9:	81 e1 ff ff 00 ff    	and    $0xff00ffff,%ecx
  6b05ff:	81 c9 00 00 06 00    	or     $0x60000,%ecx
  6b0605:	89 48 14             	mov    %ecx,0x14(%rax)
  6b0608:	e9 a2 00 00 00       	jmpq   6b06af <http_parser_execute+0x119f>
  6b060d:	48 8b 45 f0          	mov    -0x10(%rbp),%rax
  6b0611:	8b 48 14             	mov    0x14(%rax),%ecx
  6b0614:	81 e1 ff ff 00 ff    	and    $0xff00ffff,%ecx
  6b061a:	81 c9 00 00 03 00    	or     $0x30000,%ecx
  6b0620:	89 48 14             	mov    %ecx,0x14(%rax)
  6b0623:	e9 87 00 00 00       	jmpq   6b06af <http_parser_execute+0x119f>
  6b0628:	48 8b 45 f0          	mov    -0x10(%rbp),%rax
  6b062c:	8b 48 14             	mov    0x14(%rax),%ecx
  6b062f:	81 e1 ff ff 00 ff    	and    $0xff00ffff,%ecx
  6b0635:	81 c9 00 00 14 00    	or     $0x140000,%ecx
  6b063b:	89 48 14             	mov    %ecx,0x14(%rax)
  6b063e:	eb 6f                	jmp    6b06af <http_parser_execute+0x119f>
  6b0640:	48 8b 45 f0          	mov    -0x10(%rbp),%rax
  6b0644:	8b 48 14             	mov    0x14(%rax),%ecx
  6b0647:	81 e1 ff ff 00 ff    	and    $0xff00ffff,%ecx
  6b064d:	81 c9 00 00 1a 00    	or     $0x1a0000,%ecx
  6b0653:	89 48 14             	mov    %ecx,0x14(%rax)
  6b0656:	eb 57                	jmp    6b06af <http_parser_execute+0x119f>
  6b0658:	48 8b 45 f0          	mov    -0x10(%rbp),%rax
  6b065c:	8b 48 14             	mov    0x14(%rax),%ecx
  6b065f:	81 e1 ff ff 00 ff    	and    $0xff00ffff,%ecx
  6b0665:	81 c9 00 00 07 00    	or     $0x70000,%ecx
  6b066b:	89 48 14             	mov    %ecx,0x14(%rax)
  6b066e:	eb 3f                	jmp    6b06af <http_parser_execute+0x119f>
  6b0670:	48 8b 45 f0          	mov    -0x10(%rbp),%rax
  6b0674:	8b 48 14             	mov    0x14(%rax),%ecx
  6b0677:	81 e1 ff ff 00 ff    	and    $0xff00ffff,%ecx
  6b067d:	81 c9 00 00 0f 00    	or     $0xf0000,%ecx
  6b0683:	89 48 14             	mov    %ecx,0x14(%rax)
  6b0686:	eb 27                	jmp    6b06af <http_parser_execute+0x119f>
  6b0688:	eb 00                	jmp    6b068a <http_parser_execute+0x117a>
  6b068a:	8b 45 e4             	mov    -0x1c(%rbp),%eax
  6b068d:	48 8b 4d f0          	mov    -0x10(%rbp),%rcx
  6b0691:	89 41 04             	mov    %eax,0x4(%rcx)
  6b0694:	48 8b 45 f0          	mov    -0x10(%rbp),%rax
  6b0698:	8b 48 14             	mov    0x14(%rax),%ecx
  6b069b:	81 e1 ff ff ff 80    	and    $0x80ffffff,%ecx
  6b06a1:	81 c9 00 00 00 10    	or     $0x10000000,%ecx
  6b06a7:	89 48 14             	mov    %ecx,0x14(%rax)
  6b06aa:	e9 e1 4a 00 00       	jmpq   6b5190 <http_parser_execute+0x5c80>
  6b06af:	c7 45 ec 13 00 00 00 	movl   $0x13,-0x14(%rbp)
  6b06b6:	48 8b 45 f0          	mov    -0x10(%rbp),%rax
  6b06ba:	8b 40 14             	mov    0x14(%rax),%eax
  6b06bd:	c1 e8 18             	shr    $0x18,%eax
  6b06c0:	83 e0 7f             	and    $0x7f,%eax
  6b06c3:	83 f8 00             	cmp    $0x0,%eax
  6b06c6:	75 02                	jne    6b06ca <http_parser_execute+0x11ba>
  6b06c8:	eb 28                	jmp    6b06f2 <http_parser_execute+0x11e2>
  6b06ca:	48 bf 00 2e 20 00 00 	movabs $0x202e00,%rdi
  6b06d1:	00 00 00 
  6b06d4:	48 be f5 2b 20 00 00 	movabs $0x202bf5,%rsi
  6b06db:	00 00 00 
  6b06de:	48 b9 37 6e 20 00 00 	movabs $0x206e37,%rcx
  6b06e5:	00 00 00 
  6b06e8:	ba c6 03 00 00       	mov    $0x3c6,%edx
  6b06ed:	e8 9e b2 00 00       	callq  6bb990 <__assert_fail@plt>
  6b06f2:	48 8b 45 c8          	mov    -0x38(%rbp),%rax
  6b06f6:	48 83 38 00          	cmpq   $0x0,(%rax)
  6b06fa:	0f 95 c0             	setne  %al
  6b06fd:	34 ff                	xor    $0xff,%al
  6b06ff:	34 ff                	xor    $0xff,%al
  6b0701:	24 01                	and    $0x1,%al
  6b0703:	0f b6 c0             	movzbl %al,%eax
  6b0706:	48 98                	cltq   
  6b0708:	48 83 f8 00          	cmp    $0x0,%rax
  6b070c:	0f 84 d8 00 00 00    	je     6b07ea <http_parser_execute+0x12da>
  6b0712:	8b 45 ec             	mov    -0x14(%rbp),%eax
  6b0715:	48 8b 4d f0          	mov    -0x10(%rbp),%rcx
  6b0719:	8b 11                	mov    (%rcx),%edx
  6b071b:	83 e0 7f             	and    $0x7f,%eax
  6b071e:	c1 e0 0a             	shl    $0xa,%eax
  6b0721:	81 e2 ff 03 fe ff    	and    $0xfffe03ff,%edx
  6b0727:	09 c2                	or     %eax,%edx
  6b0729:	89 11                	mov    %edx,(%rcx)
  6b072b:	48 8b 45 c8          	mov    -0x38(%rbp),%rax
  6b072f:	48 8b 08             	mov    (%rax),%rcx
  6b0732:	48 b8 c0 b8 6b 00 00 	movabs $0x6bb8c0,%rax
  6b0739:	00 00 00 
  6b073c:	48 89 ca             	mov    %rcx,%rdx
  6b073f:	48 29 c2             	sub    %rax,%rdx
  6b0742:	48 89 d0             	mov    %rdx,%rax
  6b0745:	48 c1 e8 03          	shr    $0x3,%rax
  6b0749:	48 c1 e2 3d          	shl    $0x3d,%rdx
  6b074d:	48 09 d0             	or     %rdx,%rax
  6b0750:	48 83 f8 10          	cmp    $0x10,%rax
  6b0754:	76 05                	jbe    6b075b <http_parser_execute+0x124b>
  6b0756:	67 0f b9 40 02       	ud1    0x2(%eax),%eax
  6b075b:	48 8b 7d f0          	mov    -0x10(%rbp),%rdi
  6b075f:	ff d1                	callq  *%rcx
  6b0761:	31 c9                	xor    %ecx,%ecx
  6b0763:	39 c1                	cmp    %eax,%ecx
  6b0765:	0f 95 c0             	setne  %al
  6b0768:	34 ff                	xor    $0xff,%al
  6b076a:	34 ff                	xor    $0xff,%al
  6b076c:	24 01                	and    $0x1,%al
  6b076e:	0f b6 c0             	movzbl %al,%eax
  6b0771:	48 98                	cltq   
  6b0773:	48 83 f8 00          	cmp    $0x0,%rax
  6b0777:	74 24                	je     6b079d <http_parser_execute+0x128d>
  6b0779:	eb 00                	jmp    6b077b <http_parser_execute+0x126b>
  6b077b:	8b 45 e4             	mov    -0x1c(%rbp),%eax
  6b077e:	48 8b 4d f0          	mov    -0x10(%rbp),%rcx
  6b0782:	89 41 04             	mov    %eax,0x4(%rcx)
  6b0785:	48 8b 45 f0          	mov    -0x10(%rbp),%rax
  6b0789:	8b 48 14             	mov    0x14(%rax),%ecx
  6b078c:	81 e1 ff ff ff 80    	and    $0x80ffffff,%ecx
  6b0792:	81 c9 00 00 00 01    	or     $0x1000000,%ecx
  6b0798:	89 48 14             	mov    %ecx,0x14(%rax)
  6b079b:	eb 00                	jmp    6b079d <http_parser_execute+0x128d>
  6b079d:	48 8b 45 f0          	mov    -0x10(%rbp),%rax
  6b07a1:	8b 00                	mov    (%rax),%eax
  6b07a3:	c1 e8 0a             	shr    $0xa,%eax
  6b07a6:	83 e0 7f             	and    $0x7f,%eax
  6b07a9:	89 45 ec             	mov    %eax,-0x14(%rbp)
  6b07ac:	48 8b 45 f0          	mov    -0x10(%rbp),%rax
  6b07b0:	8b 40 14             	mov    0x14(%rax),%eax
  6b07b3:	c1 e8 18             	shr    $0x18,%eax
  6b07b6:	83 e0 7f             	and    $0x7f,%eax
  6b07b9:	83 f8 00             	cmp    $0x0,%eax
  6b07bc:	0f 95 c0             	setne  %al
  6b07bf:	34 ff                	xor    $0xff,%al
  6b07c1:	34 ff                	xor    $0xff,%al
  6b07c3:	24 01                	and    $0x1,%al
  6b07c5:	0f b6 c0             	movzbl %al,%eax
  6b07c8:	48 98                	cltq   
  6b07ca:	48 83 f8 00          	cmp    $0x0,%rax
  6b07ce:	74 18                	je     6b07e8 <http_parser_execute+0x12d8>
  6b07d0:	48 8b 45 d8          	mov    -0x28(%rbp),%rax
  6b07d4:	48 8b 4d c0          	mov    -0x40(%rbp),%rcx
  6b07d8:	48 29 c8             	sub    %rcx,%rax
  6b07db:	48 83 c0 01          	add    $0x1,%rax
  6b07df:	48 89 45 b0          	mov    %rax,-0x50(%rbp)
  6b07e3:	e9 12 4a 00 00       	jmpq   6b51fa <http_parser_execute+0x5cea>
  6b07e8:	eb 00                	jmp    6b07ea <http_parser_execute+0x12da>
  6b07ea:	eb 00                	jmp    6b07ec <http_parser_execute+0x12dc>
  6b07ec:	e9 14 42 00 00       	jmpq   6b4a05 <http_parser_execute+0x54f5>
  6b07f1:	0f be 45 ff          	movsbl -0x1(%rbp),%eax
  6b07f5:	83 f8 00             	cmp    $0x0,%eax
  6b07f8:	0f 94 c0             	sete   %al
  6b07fb:	34 ff                	xor    $0xff,%al
  6b07fd:	34 ff                	xor    $0xff,%al
  6b07ff:	24 01                	and    $0x1,%al
  6b0801:	0f b6 c0             	movzbl %al,%eax
  6b0804:	48 98                	cltq   
  6b0806:	48 83 f8 00          	cmp    $0x0,%rax
  6b080a:	74 27                	je     6b0833 <http_parser_execute+0x1323>
  6b080c:	eb 00                	jmp    6b080e <http_parser_execute+0x12fe>
  6b080e:	8b 45 e4             	mov    -0x1c(%rbp),%eax
  6b0811:	48 8b 4d f0          	mov    -0x10(%rbp),%rcx
  6b0815:	89 41 04             	mov    %eax,0x4(%rcx)
  6b0818:	48 8b 45 f0          	mov    -0x10(%rbp),%rax
  6b081c:	8b 48 14             	mov    0x14(%rax),%ecx
  6b081f:	81 e1 ff ff ff 80    	and    $0x80ffffff,%ecx
  6b0825:	81 c9 00 00 00 10    	or     $0x10000000,%ecx
  6b082b:	89 48 14             	mov    %ecx,0x14(%rax)
  6b082e:	e9 5d 49 00 00       	jmpq   6b5190 <http_parser_execute+0x5c80>
  6b0833:	48 8b 45 f0          	mov    -0x10(%rbp),%rax
  6b0837:	8b 40 14             	mov    0x14(%rax),%eax
  6b083a:	c1 e8 10             	shr    $0x10,%eax
  6b083d:	25 ff 00 00 00       	and    $0xff,%eax
  6b0842:	89 c0                	mov    %eax,%eax
  6b0844:	48 8b 04 c5 80 dc 6b 	mov    0x6bdc80(,%rax,8),%rax
  6b084b:	00 
  6b084c:	48 89 85 28 ff ff ff 	mov    %rax,-0xd8(%rbp)
  6b0853:	0f be 45 ff          	movsbl -0x1(%rbp),%eax
  6b0857:	83 f8 20             	cmp    $0x20,%eax
  6b085a:	75 2a                	jne    6b0886 <http_parser_execute+0x1376>
  6b085c:	48 8b 85 28 ff ff ff 	mov    -0xd8(%rbp),%rax
  6b0863:	48 8b 4d f0          	mov    -0x10(%rbp),%rcx
  6b0867:	8b 09                	mov    (%rcx),%ecx
  6b0869:	c1 e9 18             	shr    $0x18,%ecx
  6b086c:	83 e1 1f             	and    $0x1f,%ecx
  6b086f:	89 c9                	mov    %ecx,%ecx
  6b0871:	0f be 04 08          	movsbl (%rax,%rcx,1),%eax
  6b0875:	83 f8 00             	cmp    $0x0,%eax
  6b0878:	75 0c                	jne    6b0886 <http_parser_execute+0x1376>
  6b087a:	c7 45 ec 14 00 00 00 	movl   $0x14,-0x14(%rbp)
  6b0881:	e9 da 03 00 00       	jmpq   6b0c60 <http_parser_execute+0x1750>
  6b0886:	0f be 45 ff          	movsbl -0x1(%rbp),%eax
  6b088a:	48 8b 8d 28 ff ff ff 	mov    -0xd8(%rbp),%rcx
  6b0891:	48 8b 55 f0          	mov    -0x10(%rbp),%rdx
  6b0895:	8b 12                	mov    (%rdx),%edx
  6b0897:	c1 ea 18             	shr    $0x18,%edx
  6b089a:	83 e2 1f             	and    $0x1f,%edx
  6b089d:	89 d2                	mov    %edx,%edx
  6b089f:	0f be 0c 11          	movsbl (%rcx,%rdx,1),%ecx
  6b08a3:	39 c8                	cmp    %ecx,%eax
  6b08a5:	75 05                	jne    6b08ac <http_parser_execute+0x139c>
  6b08a7:	e9 b2 03 00 00       	jmpq   6b0c5e <http_parser_execute+0x174e>
  6b08ac:	0f be 45 ff          	movsbl -0x1(%rbp),%eax
  6b08b0:	83 f8 41             	cmp    $0x41,%eax
  6b08b3:	7c 09                	jl     6b08be <http_parser_execute+0x13ae>
  6b08b5:	0f be 45 ff          	movsbl -0x1(%rbp),%eax
  6b08b9:	83 f8 5a             	cmp    $0x5a,%eax
  6b08bc:	7e 0d                	jle    6b08cb <http_parser_execute+0x13bb>
  6b08be:	0f be 45 ff          	movsbl -0x1(%rbp),%eax
  6b08c2:	83 f8 2d             	cmp    $0x2d,%eax
  6b08c5:	0f 85 6a 03 00 00    	jne    6b0c35 <http_parser_execute+0x1725>
  6b08cb:	48 8b 4d f0          	mov    -0x10(%rbp),%rcx
  6b08cf:	0f b7 41 16          	movzwl 0x16(%rcx),%eax
  6b08d3:	c1 e0 10             	shl    $0x10,%eax
  6b08d6:	0f b7 49 02          	movzwl 0x2(%rcx),%ecx
  6b08da:	09 c8                	or     %ecx,%eax
  6b08dc:	25 00 1f ff 00       	and    $0xff1f00,%eax
  6b08e1:	0f be 4d ff          	movsbl -0x1(%rbp),%ecx
  6b08e5:	09 c8                	or     %ecx,%eax
  6b08e7:	89 c1                	mov    %eax,%ecx
  6b08e9:	81 e9 41 01 03 00    	sub    $0x30141,%ecx
  6b08ef:	0f 84 3d 01 00 00    	je     6b0a32 <http_parser_execute+0x1522>
  6b08f5:	eb 00                	jmp    6b08f7 <http_parser_execute+0x13e7>
  6b08f7:	89 c1                	mov    %eax,%ecx
  6b08f9:	81 e9 52 01 03 00    	sub    $0x30152,%ecx
  6b08ff:	0f 84 48 01 00 00    	je     6b0a4d <http_parser_execute+0x153d>
  6b0905:	eb 00                	jmp    6b0907 <http_parser_execute+0x13f7>
  6b0907:	89 c1                	mov    %eax,%ecx
  6b0909:	81 e9 55 01 03 00    	sub    $0x30155,%ecx
  6b090f:	0f 84 02 01 00 00    	je     6b0a17 <http_parser_execute+0x1507>
  6b0915:	eb 00                	jmp    6b0917 <http_parser_execute+0x1407>
  6b0917:	89 c1                	mov    %eax,%ecx
  6b0919:	81 e9 52 02 04 00    	sub    $0x40252,%ecx
  6b091f:	0f 84 43 01 00 00    	je     6b0a68 <http_parser_execute+0x1558>
  6b0925:	eb 00                	jmp    6b0927 <http_parser_execute+0x1417>
  6b0927:	89 c1                	mov    %eax,%ecx
  6b0929:	81 e9 48 01 05 00    	sub    $0x50148,%ecx
  6b092f:	0f 84 4e 01 00 00    	je     6b0a83 <http_parser_execute+0x1573>
  6b0935:	eb 00                	jmp    6b0937 <http_parser_execute+0x1427>
  6b0937:	89 c1                	mov    %eax,%ecx
  6b0939:	81 e9 50 02 05 00    	sub    $0x50250,%ecx
  6b093f:	0f 84 59 01 00 00    	je     6b0a9e <http_parser_execute+0x158e>
  6b0945:	eb 00                	jmp    6b0947 <http_parser_execute+0x1437>
  6b0947:	89 c1                	mov    %eax,%ecx
  6b0949:	81 e9 49 01 09 00    	sub    $0x90149,%ecx
  6b094f:	0f 84 57 02 00 00    	je     6b0bac <http_parser_execute+0x169c>
  6b0955:	eb 00                	jmp    6b0957 <http_parser_execute+0x1447>
  6b0957:	89 c1                	mov    %eax,%ecx
  6b0959:	81 e9 2d 01 0a 00    	sub    $0xa012d,%ecx
  6b095f:	0f 84 8a 01 00 00    	je     6b0aef <http_parser_execute+0x15df>
  6b0965:	eb 00                	jmp    6b0967 <http_parser_execute+0x1457>
  6b0967:	89 c1                	mov    %eax,%ecx
  6b0969:	81 e9 45 01 0a 00    	sub    $0xa0145,%ecx
  6b096f:	0f 84 5f 01 00 00    	je     6b0ad4 <http_parser_execute+0x15c4>
  6b0975:	eb 00                	jmp    6b0977 <http_parser_execute+0x1467>
  6b0977:	89 c1                	mov    %eax,%ecx
  6b0979:	81 e9 4f 01 0a 00    	sub    $0xa014f,%ecx
  6b097f:	0f 84 34 01 00 00    	je     6b0ab9 <http_parser_execute+0x15a9>
  6b0985:	eb 00                	jmp    6b0987 <http_parser_execute+0x1477>
  6b0987:	89 c1                	mov    %eax,%ecx
  6b0989:	81 e9 41 02 0a 00    	sub    $0xa0241,%ecx
  6b098f:	0f 84 75 01 00 00    	je     6b0b0a <http_parser_execute+0x15fa>
  6b0995:	eb 00                	jmp    6b0997 <http_parser_execute+0x1487>
  6b0997:	89 c1                	mov    %eax,%ecx
  6b0999:	81 e9 41 03 0a 00    	sub    $0xa0341,%ecx
  6b099f:	0f 84 80 01 00 00    	je     6b0b25 <http_parser_execute+0x1615>
  6b09a5:	eb 00                	jmp    6b09a7 <http_parser_execute+0x1497>
  6b09a7:	89 c1                	mov    %eax,%ecx
  6b09a9:	81 e9 50 04 0c 00    	sub    $0xc0450,%ecx
  6b09af:	0f 84 dc 01 00 00    	je     6b0b91 <http_parser_execute+0x1681>
  6b09b5:	eb 00                	jmp    6b09b7 <http_parser_execute+0x14a7>
  6b09b7:	89 c1                	mov    %eax,%ecx
  6b09b9:	81 e9 42 02 0f 00    	sub    $0xf0242,%ecx
  6b09bf:	0f 84 17 02 00 00    	je     6b0bdc <http_parser_execute+0x16cc>
  6b09c5:	eb 00                	jmp    6b09c7 <http_parser_execute+0x14b7>
  6b09c7:	89 c1                	mov    %eax,%ecx
  6b09c9:	81 e9 53 02 0f 00    	sub    $0xf0253,%ecx
  6b09cf:	0f 84 ef 01 00 00    	je     6b0bc4 <http_parser_execute+0x16b4>
  6b09d5:	eb 00                	jmp    6b09d7 <http_parser_execute+0x14c7>
  6b09d7:	89 c1                	mov    %eax,%ecx
  6b09d9:	81 e9 49 03 0f 00    	sub    $0xf0349,%ecx
  6b09df:	0f 84 0f 02 00 00    	je     6b0bf4 <http_parser_execute+0x16e4>
  6b09e5:	eb 00                	jmp    6b09e7 <http_parser_execute+0x14d7>
  6b09e7:	89 c1                	mov    %eax,%ecx
  6b09e9:	81 e9 42 02 14 00    	sub    $0x140242,%ecx
  6b09ef:	0f 84 81 01 00 00    	je     6b0b76 <http_parser_execute+0x1666>
  6b09f5:	eb 00                	jmp    6b09f7 <http_parser_execute+0x14e7>
  6b09f7:	89 c1                	mov    %eax,%ecx
  6b09f9:	81 e9 45 01 1a 00    	sub    $0x1a0145,%ecx
  6b09ff:	0f 84 3b 01 00 00    	je     6b0b40 <http_parser_execute+0x1630>
  6b0a05:	eb 00                	jmp    6b0a07 <http_parser_execute+0x14f7>
  6b0a07:	2d 4f 01 1a 00       	sub    $0x1a014f,%eax
  6b0a0c:	0f 84 49 01 00 00    	je     6b0b5b <http_parser_execute+0x164b>
  6b0a12:	e9 f5 01 00 00       	jmpq   6b0c0c <http_parser_execute+0x16fc>
  6b0a17:	48 8b 45 f0          	mov    -0x10(%rbp),%rax
  6b0a1b:	8b 48 14             	mov    0x14(%rax),%ecx
  6b0a1e:	81 e1 ff ff 00 ff    	and    $0xff00ffff,%ecx
  6b0a24:	81 c9 00 00 04 00    	or     $0x40000,%ecx
  6b0a2a:	89 48 14             	mov    %ecx,0x14(%rax)
  6b0a2d:	e9 01 02 00 00       	jmpq   6b0c33 <http_parser_execute+0x1723>
  6b0a32:	48 8b 45 f0          	mov    -0x10(%rbp),%rax
  6b0a36:	8b 48 14             	mov    0x14(%rax),%ecx
  6b0a39:	81 e1 ff ff 00 ff    	and    $0xff00ffff,%ecx
  6b0a3f:	81 c9 00 00 1c 00    	or     $0x1c0000,%ecx
  6b0a45:	89 48 14             	mov    %ecx,0x14(%rax)
  6b0a48:	e9 e6 01 00 00       	jmpq   6b0c33 <http_parser_execute+0x1723>
  6b0a4d:	48 8b 45 f0          	mov    -0x10(%rbp),%rax
  6b0a51:	8b 48 14             	mov    0x14(%rax),%ecx
  6b0a54:	81 e1 ff ff 00 ff    	and    $0xff00ffff,%ecx
  6b0a5a:	81 c9 00 00 0c 00    	or     $0xc0000,%ecx
  6b0a60:	89 48 14             	mov    %ecx,0x14(%rax)
  6b0a63:	e9 cb 01 00 00       	jmpq   6b0c33 <http_parser_execute+0x1723>
  6b0a68:	48 8b 45 f0          	mov    -0x10(%rbp),%rax
  6b0a6c:	8b 48 14             	mov    0x14(%rax),%ecx
  6b0a6f:	81 e1 ff ff 00 ff    	and    $0xff00ffff,%ecx
  6b0a75:	81 c9 00 00 1d 00    	or     $0x1d0000,%ecx
  6b0a7b:	89 48 14             	mov    %ecx,0x14(%rax)
  6b0a7e:	e9 b0 01 00 00       	jmpq   6b0c33 <http_parser_execute+0x1723>
  6b0a83:	48 8b 45 f0          	mov    -0x10(%rbp),%rax
  6b0a87:	8b 48 14             	mov    0x14(%rax),%ecx
  6b0a8a:	81 e1 ff ff 00 ff    	and    $0xff00ffff,%ecx
  6b0a90:	81 c9 00 00 16 00    	or     $0x160000,%ecx
  6b0a96:	89 48 14             	mov    %ecx,0x14(%rax)
  6b0a99:	e9 95 01 00 00       	jmpq   6b0c33 <http_parser_execute+0x1723>
  6b0a9e:	48 8b 45 f0          	mov    -0x10(%rbp),%rax
  6b0aa2:	8b 48 14             	mov    0x14(%rax),%ecx
  6b0aa5:	81 e1 ff ff 00 ff    	and    $0xff00ffff,%ecx
  6b0aab:	81 c9 00 00 08 00    	or     $0x80000,%ecx
  6b0ab1:	89 48 14             	mov    %ecx,0x14(%rax)
  6b0ab4:	e9 7a 01 00 00       	jmpq   6b0c33 <http_parser_execute+0x1723>
  6b0ab9:	48 8b 45 f0          	mov    -0x10(%rbp),%rax
  6b0abd:	8b 48 14             	mov    0x14(%rax),%ecx
  6b0ac0:	81 e1 ff ff 00 ff    	and    $0xff00ffff,%ecx
  6b0ac6:	81 c9 00 00 0b 00    	or     $0xb0000,%ecx
  6b0acc:	89 48 14             	mov    %ecx,0x14(%rax)
  6b0acf:	e9 5f 01 00 00       	jmpq   6b0c33 <http_parser_execute+0x1723>
  6b0ad4:	48 8b 45 f0          	mov    -0x10(%rbp),%rax
  6b0ad8:	8b 48 14             	mov    0x14(%rax),%ecx
  6b0adb:	81 e1 ff ff 00 ff    	and    $0xff00ffff,%ecx
  6b0ae1:	81 c9 00 00 17 00    	or     $0x170000,%ecx
  6b0ae7:	89 48 14             	mov    %ecx,0x14(%rax)
  6b0aea:	e9 44 01 00 00       	jmpq   6b0c33 <http_parser_execute+0x1723>
  6b0aef:	48 8b 45 f0          	mov    -0x10(%rbp),%rax
  6b0af3:	8b 48 14             	mov    0x14(%rax),%ecx
  6b0af6:	81 e1 ff ff 00 ff    	and    $0xff00ffff,%ecx
  6b0afc:	81 c9 00 00 18 00    	or     $0x180000,%ecx
  6b0b02:	89 48 14             	mov    %ecx,0x14(%rax)
  6b0b05:	e9 29 01 00 00       	jmpq   6b0c33 <http_parser_execute+0x1723>
  6b0b0a:	48 8b 45 f0          	mov    -0x10(%rbp),%rax
  6b0b0e:	8b 48 14             	mov    0x14(%rax),%ecx
  6b0b11:	81 e1 ff ff 00 ff    	and    $0xff00ffff,%ecx
  6b0b17:	81 c9 00 00 15 00    	or     $0x150000,%ecx
  6b0b1d:	89 48 14             	mov    %ecx,0x14(%rax)
  6b0b20:	e9 0e 01 00 00       	jmpq   6b0c33 <http_parser_execute+0x1723>
  6b0b25:	48 8b 45 f0          	mov    -0x10(%rbp),%rax
  6b0b29:	8b 48 14             	mov    0x14(%rax),%ecx
  6b0b2c:	81 e1 ff ff 00 ff    	and    $0xff00ffff,%ecx
  6b0b32:	81 c9 00 00 1e 00    	or     $0x1e0000,%ecx
  6b0b38:	89 48 14             	mov    %ecx,0x14(%rax)
  6b0b3b:	e9 f3 00 00 00       	jmpq   6b0c33 <http_parser_execute+0x1723>
  6b0b40:	48 8b 45 f0          	mov    -0x10(%rbp),%rax
  6b0b44:	8b 48 14             	mov    0x14(%rax),%ecx
  6b0b47:	81 e1 ff ff 00 ff    	and    $0xff00ffff,%ecx
  6b0b4d:	81 c9 00 00 0e 00    	or     $0xe0000,%ecx
  6b0b53:	89 48 14             	mov    %ecx,0x14(%rax)
  6b0b56:	e9 d8 00 00 00       	jmpq   6b0c33 <http_parser_execute+0x1723>
  6b0b5b:	48 8b 45 f0          	mov    -0x10(%rbp),%rax
  6b0b5f:	8b 48 14             	mov    0x14(%rax),%ecx
  6b0b62:	81 e1 ff ff 00 ff    	and    $0xff00ffff,%ecx
  6b0b68:	81 c9 00 00 21 00    	or     $0x210000,%ecx
  6b0b6e:	89 48 14             	mov    %ecx,0x14(%rax)
  6b0b71:	e9 bd 00 00 00       	jmpq   6b0c33 <http_parser_execute+0x1723>
  6b0b76:	48 8b 45 f0          	mov    -0x10(%rbp),%rax
  6b0b7a:	8b 48 14             	mov    0x14(%rax),%ecx
  6b0b7d:	81 e1 ff ff 00 ff    	and    $0xff00ffff,%ecx
  6b0b83:	81 c9 00 00 11 00    	or     $0x110000,%ecx
  6b0b89:	89 48 14             	mov    %ecx,0x14(%rax)
  6b0b8c:	e9 a2 00 00 00       	jmpq   6b0c33 <http_parser_execute+0x1723>
  6b0b91:	48 8b 45 f0          	mov    -0x10(%rbp),%rax
  6b0b95:	8b 48 14             	mov    0x14(%rax),%ecx
  6b0b98:	81 e1 ff ff 00 ff    	and    $0xff00ffff,%ecx
  6b0b9e:	81 c9 00 00 0d 00    	or     $0xd0000,%ecx
  6b0ba4:	89 48 14             	mov    %ecx,0x14(%rax)
  6b0ba7:	e9 87 00 00 00       	jmpq   6b0c33 <http_parser_execute+0x1723>
  6b0bac:	48 8b 45 f0          	mov    -0x10(%rbp),%rax
  6b0bb0:	8b 48 14             	mov    0x14(%rax),%ecx
  6b0bb3:	81 e1 ff ff 00 ff    	and    $0xff00ffff,%ecx
  6b0bb9:	81 c9 00 00 1f 00    	or     $0x1f0000,%ecx
  6b0bbf:	89 48 14             	mov    %ecx,0x14(%rax)
  6b0bc2:	eb 6f                	jmp    6b0c33 <http_parser_execute+0x1723>
  6b0bc4:	48 8b 45 f0          	mov    -0x10(%rbp),%rax
  6b0bc8:	8b 48 14             	mov    0x14(%rax),%ecx
  6b0bcb:	81 e1 ff ff 00 ff    	and    $0xff00ffff,%ecx
  6b0bd1:	81 c9 00 00 1b 00    	or     $0x1b0000,%ecx
  6b0bd7:	89 48 14             	mov    %ecx,0x14(%rax)
  6b0bda:	eb 57                	jmp    6b0c33 <http_parser_execute+0x1723>
  6b0bdc:	48 8b 45 f0          	mov    -0x10(%rbp),%rax
  6b0be0:	8b 48 14             	mov    0x14(%rax),%ecx
  6b0be3:	81 e1 ff ff 00 ff    	and    $0xff00ffff,%ecx
  6b0be9:	81 c9 00 00 12 00    	or     $0x120000,%ecx
  6b0bef:	89 48 14             	mov    %ecx,0x14(%rax)
  6b0bf2:	eb 3f                	jmp    6b0c33 <http_parser_execute+0x1723>
  6b0bf4:	48 8b 45 f0          	mov    -0x10(%rbp),%rax
  6b0bf8:	8b 48 14             	mov    0x14(%rax),%ecx
  6b0bfb:	81 e1 ff ff 00 ff    	and    $0xff00ffff,%ecx
  6b0c01:	81 c9 00 00 20 00    	or     $0x200000,%ecx
  6b0c07:	89 48 14             	mov    %ecx,0x14(%rax)
  6b0c0a:	eb 27                	jmp    6b0c33 <http_parser_execute+0x1723>
  6b0c0c:	eb 00                	jmp    6b0c0e <http_parser_execute+0x16fe>
  6b0c0e:	8b 45 e4             	mov    -0x1c(%rbp),%eax
  6b0c11:	48 8b 4d f0          	mov    -0x10(%rbp),%rcx
  6b0c15:	89 41 04             	mov    %eax,0x4(%rcx)
  6b0c18:	48 8b 45 f0          	mov    -0x10(%rbp),%rax
  6b0c1c:	8b 48 14             	mov    0x14(%rax),%ecx
  6b0c1f:	81 e1 ff ff ff 80    	and    $0x80ffffff,%ecx
  6b0c25:	81 c9 00 00 00 10    	or     $0x10000000,%ecx
  6b0c2b:	89 48 14             	mov    %ecx,0x14(%rax)
  6b0c2e:	e9 5d 45 00 00       	jmpq   6b5190 <http_parser_execute+0x5c80>
  6b0c33:	eb 27                	jmp    6b0c5c <http_parser_execute+0x174c>
  6b0c35:	eb 00                	jmp    6b0c37 <http_parser_execute+0x1727>
  6b0c37:	8b 45 e4             	mov    -0x1c(%rbp),%eax
  6b0c3a:	48 8b 4d f0          	mov    -0x10(%rbp),%rcx
  6b0c3e:	89 41 04             	mov    %eax,0x4(%rcx)
  6b0c41:	48 8b 45 f0          	mov    -0x10(%rbp),%rax
  6b0c45:	8b 48 14             	mov    0x14(%rax),%ecx
  6b0c48:	81 e1 ff ff ff 80    	and    $0x80ffffff,%ecx
  6b0c4e:	81 c9 00 00 00 10    	or     $0x10000000,%ecx
  6b0c54:	89 48 14             	mov    %ecx,0x14(%rax)
  6b0c57:	e9 34 45 00 00       	jmpq   6b5190 <http_parser_execute+0x5c80>
  6b0c5c:	eb 00                	jmp    6b0c5e <http_parser_execute+0x174e>
  6b0c5e:	eb 00                	jmp    6b0c60 <http_parser_execute+0x1750>
  6b0c60:	48 8b 45 f0          	mov    -0x10(%rbp),%rax
  6b0c64:	8b 08                	mov    (%rax),%ecx
  6b0c66:	c1 e9 18             	shr    $0x18,%ecx
  6b0c69:	83 e1 1f             	and    $0x1f,%ecx
  6b0c6c:	83 c1 01             	add    $0x1,%ecx
  6b0c6f:	8b 10                	mov    (%rax),%edx
  6b0c71:	83 e1 1f             	and    $0x1f,%ecx
  6b0c74:	c1 e1 18             	shl    $0x18,%ecx
  6b0c77:	81 e2 ff ff ff e0    	and    $0xe0ffffff,%edx
  6b0c7d:	09 ca                	or     %ecx,%edx
  6b0c7f:	89 10                	mov    %edx,(%rax)
  6b0c81:	e9 7f 3d 00 00       	jmpq   6b4a05 <http_parser_execute+0x54f5>
  6b0c86:	0f be 45 ff          	movsbl -0x1(%rbp),%eax
  6b0c8a:	83 f8 20             	cmp    $0x20,%eax
  6b0c8d:	75 05                	jne    6b0c94 <http_parser_execute+0x1784>
  6b0c8f:	e9 71 3d 00 00       	jmpq   6b4a05 <http_parser_execute+0x54f5>
  6b0c94:	eb 00                	jmp    6b0c96 <http_parser_execute+0x1786>
  6b0c96:	48 83 7d 90 00       	cmpq   $0x0,-0x70(%rbp)
  6b0c9b:	75 08                	jne    6b0ca5 <http_parser_execute+0x1795>
  6b0c9d:	48 8b 45 d8          	mov    -0x28(%rbp),%rax
  6b0ca1:	48 89 45 90          	mov    %rax,-0x70(%rbp)
  6b0ca5:	eb 00                	jmp    6b0ca7 <http_parser_execute+0x1797>
  6b0ca7:	48 8b 45 f0          	mov    -0x10(%rbp),%rax
  6b0cab:	8b 40 14             	mov    0x14(%rax),%eax
  6b0cae:	c1 e8 10             	shr    $0x10,%eax
  6b0cb1:	25 ff 00 00 00       	and    $0xff,%eax
  6b0cb6:	83 f8 05             	cmp    $0x5,%eax
  6b0cb9:	75 07                	jne    6b0cc2 <http_parser_execute+0x17b2>
  6b0cbb:	c7 45 ec 18 00 00 00 	movl   $0x18,-0x14(%rbp)
  6b0cc2:	8b 7d ec             	mov    -0x14(%rbp),%edi
  6b0cc5:	0f be 75 ff          	movsbl -0x1(%rbp),%esi
  6b0cc9:	e8 42 45 00 00       	callq  6b5210 <parse_url_char>
  6b0cce:	89 45 ec             	mov    %eax,-0x14(%rbp)
  6b0cd1:	83 7d ec 01          	cmpl   $0x1,-0x14(%rbp)
  6b0cd5:	0f 94 c0             	sete   %al
  6b0cd8:	34 ff                	xor    $0xff,%al
  6b0cda:	34 ff                	xor    $0xff,%al
  6b0cdc:	24 01                	and    $0x1,%al
  6b0cde:	0f b6 c0             	movzbl %al,%eax
  6b0ce1:	48 98                	cltq   
  6b0ce3:	48 83 f8 00          	cmp    $0x0,%rax
  6b0ce7:	74 27                	je     6b0d10 <http_parser_execute+0x1800>
  6b0ce9:	eb 00                	jmp    6b0ceb <http_parser_execute+0x17db>
  6b0ceb:	8b 45 e4             	mov    -0x1c(%rbp),%eax
  6b0cee:	48 8b 4d f0          	mov    -0x10(%rbp),%rcx
  6b0cf2:	89 41 04             	mov    %eax,0x4(%rcx)
  6b0cf5:	48 8b 45 f0          	mov    -0x10(%rbp),%rax
  6b0cf9:	8b 48 14             	mov    0x14(%rax),%ecx
  6b0cfc:	81 e1 ff ff ff 80    	and    $0x80ffffff,%ecx
  6b0d02:	81 c9 00 00 00 11    	or     $0x11000000,%ecx
  6b0d08:	89 48 14             	mov    %ecx,0x14(%rax)
  6b0d0b:	e9 80 44 00 00       	jmpq   6b5190 <http_parser_execute+0x5c80>
  6b0d10:	e9 f0 3c 00 00       	jmpq   6b4a05 <http_parser_execute+0x54f5>
  6b0d15:	0f be 45 ff          	movsbl -0x1(%rbp),%eax
  6b0d19:	89 c1                	mov    %eax,%ecx
  6b0d1b:	83 e9 0a             	sub    $0xa,%ecx
  6b0d1e:	74 12                	je     6b0d32 <http_parser_execute+0x1822>
  6b0d20:	eb 00                	jmp    6b0d22 <http_parser_execute+0x1812>
  6b0d22:	89 c1                	mov    %eax,%ecx
  6b0d24:	83 e9 0d             	sub    $0xd,%ecx
  6b0d27:	74 09                	je     6b0d32 <http_parser_execute+0x1822>
  6b0d29:	eb 00                	jmp    6b0d2b <http_parser_execute+0x181b>
  6b0d2b:	83 e8 20             	sub    $0x20,%eax
  6b0d2e:	75 29                	jne    6b0d59 <http_parser_execute+0x1849>
  6b0d30:	eb 00                	jmp    6b0d32 <http_parser_execute+0x1822>
  6b0d32:	eb 00                	jmp    6b0d34 <http_parser_execute+0x1824>
  6b0d34:	8b 45 e4             	mov    -0x1c(%rbp),%eax
  6b0d37:	48 8b 4d f0          	mov    -0x10(%rbp),%rcx
  6b0d3b:	89 41 04             	mov    %eax,0x4(%rcx)
  6b0d3e:	48 8b 45 f0          	mov    -0x10(%rbp),%rax
  6b0d42:	8b 48 14             	mov    0x14(%rax),%ecx
  6b0d45:	81 e1 ff ff ff 80    	and    $0x80ffffff,%ecx
  6b0d4b:	81 c9 00 00 00 11    	or     $0x11000000,%ecx
  6b0d51:	89 48 14             	mov    %ecx,0x14(%rax)
  6b0d54:	e9 37 44 00 00       	jmpq   6b5190 <http_parser_execute+0x5c80>
  6b0d59:	8b 7d ec             	mov    -0x14(%rbp),%edi
  6b0d5c:	0f be 75 ff          	movsbl -0x1(%rbp),%esi
  6b0d60:	e8 ab 44 00 00       	callq  6b5210 <parse_url_char>
  6b0d65:	89 45 ec             	mov    %eax,-0x14(%rbp)
  6b0d68:	83 7d ec 01          	cmpl   $0x1,-0x14(%rbp)
  6b0d6c:	0f 94 c0             	sete   %al
  6b0d6f:	34 ff                	xor    $0xff,%al
  6b0d71:	34 ff                	xor    $0xff,%al
  6b0d73:	24 01                	and    $0x1,%al
  6b0d75:	0f b6 c0             	movzbl %al,%eax
  6b0d78:	48 98                	cltq   
  6b0d7a:	48 83 f8 00          	cmp    $0x0,%rax
  6b0d7e:	74 27                	je     6b0da7 <http_parser_execute+0x1897>
  6b0d80:	eb 00                	jmp    6b0d82 <http_parser_execute+0x1872>
  6b0d82:	8b 45 e4             	mov    -0x1c(%rbp),%eax
  6b0d85:	48 8b 4d f0          	mov    -0x10(%rbp),%rcx
  6b0d89:	89 41 04             	mov    %eax,0x4(%rcx)
  6b0d8c:	48 8b 45 f0          	mov    -0x10(%rbp),%rax
  6b0d90:	8b 48 14             	mov    0x14(%rax),%ecx
  6b0d93:	81 e1 ff ff ff 80    	and    $0x80ffffff,%ecx
  6b0d99:	81 c9 00 00 00 11    	or     $0x11000000,%ecx
  6b0d9f:	89 48 14             	mov    %ecx,0x14(%rax)
  6b0da2:	e9 e9 43 00 00       	jmpq   6b5190 <http_parser_execute+0x5c80>
  6b0da7:	eb 00                	jmp    6b0da9 <http_parser_execute+0x1899>
  6b0da9:	e9 57 3c 00 00       	jmpq   6b4a05 <http_parser_execute+0x54f5>
  6b0dae:	0f be 45 ff          	movsbl -0x1(%rbp),%eax
  6b0db2:	89 c1                	mov    %eax,%ecx
  6b0db4:	83 e9 0a             	sub    $0xa,%ecx
  6b0db7:	0f 84 80 01 00 00    	je     6b0f3d <http_parser_execute+0x1a2d>
  6b0dbd:	eb 00                	jmp    6b0dbf <http_parser_execute+0x18af>
  6b0dbf:	89 c1                	mov    %eax,%ecx
  6b0dc1:	83 e9 0d             	sub    $0xd,%ecx
  6b0dc4:	0f 84 73 01 00 00    	je     6b0f3d <http_parser_execute+0x1a2d>
  6b0dca:	eb 00                	jmp    6b0dcc <http_parser_execute+0x18bc>
  6b0dcc:	83 e8 20             	sub    $0x20,%eax
  6b0dcf:	0f 85 ef 02 00 00    	jne    6b10c4 <http_parser_execute+0x1bb4>
  6b0dd5:	eb 00                	jmp    6b0dd7 <http_parser_execute+0x18c7>
  6b0dd7:	c7 45 ec 20 00 00 00 	movl   $0x20,-0x14(%rbp)
  6b0dde:	48 8b 45 f0          	mov    -0x10(%rbp),%rax
  6b0de2:	8b 40 14             	mov    0x14(%rax),%eax
  6b0de5:	c1 e8 18             	shr    $0x18,%eax
  6b0de8:	83 e0 7f             	and    $0x7f,%eax
  6b0deb:	83 f8 00             	cmp    $0x0,%eax
  6b0dee:	75 02                	jne    6b0df2 <http_parser_execute+0x18e2>
  6b0df0:	eb 28                	jmp    6b0e1a <http_parser_execute+0x190a>
  6b0df2:	48 bf 00 2e 20 00 00 	movabs $0x202e00,%rdi
  6b0df9:	00 00 00 
  6b0dfc:	48 be f5 2b 20 00 00 	movabs $0x202bf5,%rsi
  6b0e03:	00 00 00 
  6b0e06:	48 b9 37 6e 20 00 00 	movabs $0x206e37,%rcx
  6b0e0d:	00 00 00 
  6b0e10:	ba 34 04 00 00       	mov    $0x434,%edx
  6b0e15:	e8 76 ab 00 00       	callq  6bb990 <__assert_fail@plt>
  6b0e1a:	48 83 7d 90 00       	cmpq   $0x0,-0x70(%rbp)
  6b0e1f:	0f 84 11 01 00 00    	je     6b0f36 <http_parser_execute+0x1a26>
  6b0e25:	48 8b 45 c8          	mov    -0x38(%rbp),%rax
  6b0e29:	48 83 78 08 00       	cmpq   $0x0,0x8(%rax)
  6b0e2e:	0f 95 c0             	setne  %al
  6b0e31:	34 ff                	xor    $0xff,%al
  6b0e33:	34 ff                	xor    $0xff,%al
  6b0e35:	24 01                	and    $0x1,%al
  6b0e37:	0f b6 c0             	movzbl %al,%eax
  6b0e3a:	48 98                	cltq   
  6b0e3c:	48 83 f8 00          	cmp    $0x0,%rax
  6b0e40:	0f 84 e8 00 00 00    	je     6b0f2e <http_parser_execute+0x1a1e>
  6b0e46:	8b 45 ec             	mov    -0x14(%rbp),%eax
  6b0e49:	48 8b 4d f0          	mov    -0x10(%rbp),%rcx
  6b0e4d:	8b 11                	mov    (%rcx),%edx
  6b0e4f:	83 e0 7f             	and    $0x7f,%eax
  6b0e52:	c1 e0 0a             	shl    $0xa,%eax
  6b0e55:	81 e2 ff 03 fe ff    	and    $0xfffe03ff,%edx
  6b0e5b:	09 c2                	or     %eax,%edx
  6b0e5d:	89 11                	mov    %edx,(%rcx)
  6b0e5f:	48 8b 45 c8          	mov    -0x38(%rbp),%rax
  6b0e63:	48 8b 48 08          	mov    0x8(%rax),%rcx
  6b0e67:	48 b8 40 b8 6b 00 00 	movabs $0x6bb840,%rax
  6b0e6e:	00 00 00 
  6b0e71:	48 89 ca             	mov    %rcx,%rdx
  6b0e74:	48 29 c2             	sub    %rax,%rdx
  6b0e77:	48 89 d0             	mov    %rdx,%rax
  6b0e7a:	48 c1 e8 03          	shr    $0x3,%rax
  6b0e7e:	48 c1 e2 3d          	shl    $0x3d,%rdx
  6b0e82:	48 09 d0             	or     %rdx,%rax
  6b0e85:	48 83 f8 0f          	cmp    $0xf,%rax
  6b0e89:	76 05                	jbe    6b0e90 <http_parser_execute+0x1980>
  6b0e8b:	67 0f b9 40 02       	ud1    0x2(%eax),%eax
  6b0e90:	48 8b 7d f0          	mov    -0x10(%rbp),%rdi
  6b0e94:	48 8b 75 90          	mov    -0x70(%rbp),%rsi
  6b0e98:	48 8b 55 d8          	mov    -0x28(%rbp),%rdx
  6b0e9c:	48 8b 45 90          	mov    -0x70(%rbp),%rax
  6b0ea0:	48 29 c2             	sub    %rax,%rdx
  6b0ea3:	ff d1                	callq  *%rcx
  6b0ea5:	31 c9                	xor    %ecx,%ecx
  6b0ea7:	39 c1                	cmp    %eax,%ecx
  6b0ea9:	0f 95 c0             	setne  %al
  6b0eac:	34 ff                	xor    $0xff,%al
  6b0eae:	34 ff                	xor    $0xff,%al
  6b0eb0:	24 01                	and    $0x1,%al
  6b0eb2:	0f b6 c0             	movzbl %al,%eax
  6b0eb5:	48 98                	cltq   
  6b0eb7:	48 83 f8 00          	cmp    $0x0,%rax
  6b0ebb:	74 24                	je     6b0ee1 <http_parser_execute+0x19d1>
  6b0ebd:	eb 00                	jmp    6b0ebf <http_parser_execute+0x19af>
  6b0ebf:	8b 45 e4             	mov    -0x1c(%rbp),%eax
  6b0ec2:	48 8b 4d f0          	mov    -0x10(%rbp),%rcx
  6b0ec6:	89 41 04             	mov    %eax,0x4(%rcx)
  6b0ec9:	48 8b 45 f0          	mov    -0x10(%rbp),%rax
  6b0ecd:	8b 48 14             	mov    0x14(%rax),%ecx
  6b0ed0:	81 e1 ff ff ff 80    	and    $0x80ffffff,%ecx
  6b0ed6:	81 c9 00 00 00 02    	or     $0x2000000,%ecx
  6b0edc:	89 48 14             	mov    %ecx,0x14(%rax)
  6b0edf:	eb 00                	jmp    6b0ee1 <http_parser_execute+0x19d1>
  6b0ee1:	48 8b 45 f0          	mov    -0x10(%rbp),%rax
  6b0ee5:	8b 00                	mov    (%rax),%eax
  6b0ee7:	c1 e8 0a             	shr    $0xa,%eax
  6b0eea:	83 e0 7f             	and    $0x7f,%eax
  6b0eed:	89 45 ec             	mov    %eax,-0x14(%rbp)
  6b0ef0:	48 8b 45 f0          	mov    -0x10(%rbp),%rax
  6b0ef4:	8b 40 14             	mov    0x14(%rax),%eax
  6b0ef7:	c1 e8 18             	shr    $0x18,%eax
  6b0efa:	83 e0 7f             	and    $0x7f,%eax
  6b0efd:	83 f8 00             	cmp    $0x0,%eax
  6b0f00:	0f 95 c0             	setne  %al
  6b0f03:	34 ff                	xor    $0xff,%al
  6b0f05:	34 ff                	xor    $0xff,%al
  6b0f07:	24 01                	and    $0x1,%al
  6b0f09:	0f b6 c0             	movzbl %al,%eax
  6b0f0c:	48 98                	cltq   
  6b0f0e:	48 83 f8 00          	cmp    $0x0,%rax
  6b0f12:	74 18                	je     6b0f2c <http_parser_execute+0x1a1c>
  6b0f14:	48 8b 45 d8          	mov    -0x28(%rbp),%rax
  6b0f18:	48 8b 4d c0          	mov    -0x40(%rbp),%rcx
  6b0f1c:	48 29 c8             	sub    %rcx,%rax
  6b0f1f:	48 83 c0 01          	add    $0x1,%rax
  6b0f23:	48 89 45 b0          	mov    %rax,-0x50(%rbp)
  6b0f27:	e9 ce 42 00 00       	jmpq   6b51fa <http_parser_execute+0x5cea>
  6b0f2c:	eb 00                	jmp    6b0f2e <http_parser_execute+0x1a1e>
  6b0f2e:	48 c7 45 90 00 00 00 	movq   $0x0,-0x70(%rbp)
  6b0f35:	00 
  6b0f36:	eb 00                	jmp    6b0f38 <http_parser_execute+0x1a28>
  6b0f38:	e9 d7 01 00 00       	jmpq   6b1114 <http_parser_execute+0x1c04>
  6b0f3d:	48 8b 45 f0          	mov    -0x10(%rbp),%rax
  6b0f41:	66 c7 40 10 00 00    	movw   $0x0,0x10(%rax)
  6b0f47:	48 8b 45 f0          	mov    -0x10(%rbp),%rax
  6b0f4b:	66 c7 40 12 09 00    	movw   $0x9,0x12(%rax)
  6b0f51:	0f be 45 ff          	movsbl -0x1(%rbp),%eax
  6b0f55:	b9 2c 00 00 00       	mov    $0x2c,%ecx
  6b0f5a:	ba 2b 00 00 00       	mov    $0x2b,%edx
  6b0f5f:	83 f8 0d             	cmp    $0xd,%eax
  6b0f62:	0f 44 ca             	cmove  %edx,%ecx
  6b0f65:	89 4d ec             	mov    %ecx,-0x14(%rbp)
  6b0f68:	48 8b 45 f0          	mov    -0x10(%rbp),%rax
  6b0f6c:	8b 40 14             	mov    0x14(%rax),%eax
  6b0f6f:	c1 e8 18             	shr    $0x18,%eax
  6b0f72:	83 e0 7f             	and    $0x7f,%eax
  6b0f75:	83 f8 00             	cmp    $0x0,%eax
  6b0f78:	75 02                	jne    6b0f7c <http_parser_execute+0x1a6c>
  6b0f7a:	eb 28                	jmp    6b0fa4 <http_parser_execute+0x1a94>
  6b0f7c:	48 bf 00 2e 20 00 00 	movabs $0x202e00,%rdi
  6b0f83:	00 00 00 
  6b0f86:	48 be f5 2b 20 00 00 	movabs $0x202bf5,%rsi
  6b0f8d:	00 00 00 
  6b0f90:	48 b9 37 6e 20 00 00 	movabs $0x206e37,%rcx
  6b0f97:	00 00 00 
  6b0f9a:	ba 3d 04 00 00       	mov    $0x43d,%edx
  6b0f9f:	e8 ec a9 00 00       	callq  6bb990 <__assert_fail@plt>
  6b0fa4:	48 83 7d 90 00       	cmpq   $0x0,-0x70(%rbp)
  6b0fa9:	0f 84 11 01 00 00    	je     6b10c0 <http_parser_execute+0x1bb0>
  6b0faf:	48 8b 45 c8          	mov    -0x38(%rbp),%rax
  6b0fb3:	48 83 78 08 00       	cmpq   $0x0,0x8(%rax)
  6b0fb8:	0f 95 c0             	setne  %al
  6b0fbb:	34 ff                	xor    $0xff,%al
  6b0fbd:	34 ff                	xor    $0xff,%al
  6b0fbf:	24 01                	and    $0x1,%al
  6b0fc1:	0f b6 c0             	movzbl %al,%eax
  6b0fc4:	48 98                	cltq   
  6b0fc6:	48 83 f8 00          	cmp    $0x0,%rax
  6b0fca:	0f 84 e8 00 00 00    	je     6b10b8 <http_parser_execute+0x1ba8>
  6b0fd0:	8b 45 ec             	mov    -0x14(%rbp),%eax
  6b0fd3:	48 8b 4d f0          	mov    -0x10(%rbp),%rcx
  6b0fd7:	8b 11                	mov    (%rcx),%edx
  6b0fd9:	83 e0 7f             	and    $0x7f,%eax
  6b0fdc:	c1 e0 0a             	shl    $0xa,%eax
  6b0fdf:	81 e2 ff 03 fe ff    	and    $0xfffe03ff,%edx
  6b0fe5:	09 c2                	or     %eax,%edx
  6b0fe7:	89 11                	mov    %edx,(%rcx)
  6b0fe9:	48 8b 45 c8          	mov    -0x38(%rbp),%rax
  6b0fed:	48 8b 48 08          	mov    0x8(%rax),%rcx
  6b0ff1:	48 b8 40 b8 6b 00 00 	movabs $0x6bb840,%rax
  6b0ff8:	00 00 00 
  6b0ffb:	48 89 ca             	mov    %rcx,%rdx
  6b0ffe:	48 29 c2             	sub    %rax,%rdx
  6b1001:	48 89 d0             	mov    %rdx,%rax
  6b1004:	48 c1 e8 03          	shr    $0x3,%rax
  6b1008:	48 c1 e2 3d          	shl    $0x3d,%rdx
  6b100c:	48 09 d0             	or     %rdx,%rax
  6b100f:	48 83 f8 0f          	cmp    $0xf,%rax
  6b1013:	76 05                	jbe    6b101a <http_parser_execute+0x1b0a>
  6b1015:	67 0f b9 40 02       	ud1    0x2(%eax),%eax
  6b101a:	48 8b 7d f0          	mov    -0x10(%rbp),%rdi
  6b101e:	48 8b 75 90          	mov    -0x70(%rbp),%rsi
  6b1022:	48 8b 55 d8          	mov    -0x28(%rbp),%rdx
  6b1026:	48 8b 45 90          	mov    -0x70(%rbp),%rax
  6b102a:	48 29 c2             	sub    %rax,%rdx
  6b102d:	ff d1                	callq  *%rcx
  6b102f:	31 c9                	xor    %ecx,%ecx
  6b1031:	39 c1                	cmp    %eax,%ecx
  6b1033:	0f 95 c0             	setne  %al
  6b1036:	34 ff                	xor    $0xff,%al
  6b1038:	34 ff                	xor    $0xff,%al
  6b103a:	24 01                	and    $0x1,%al
  6b103c:	0f b6 c0             	movzbl %al,%eax
  6b103f:	48 98                	cltq   
  6b1041:	48 83 f8 00          	cmp    $0x0,%rax
  6b1045:	74 24                	je     6b106b <http_parser_execute+0x1b5b>
  6b1047:	eb 00                	jmp    6b1049 <http_parser_execute+0x1b39>
  6b1049:	8b 45 e4             	mov    -0x1c(%rbp),%eax
  6b104c:	48 8b 4d f0          	mov    -0x10(%rbp),%rcx
  6b1050:	89 41 04             	mov    %eax,0x4(%rcx)
  6b1053:	48 8b 45 f0          	mov    -0x10(%rbp),%rax
  6b1057:	8b 48 14             	mov    0x14(%rax),%ecx
  6b105a:	81 e1 ff ff ff 80    	and    $0x80ffffff,%ecx
  6b1060:	81 c9 00 00 00 02    	or     $0x2000000,%ecx
  6b1066:	89 48 14             	mov    %ecx,0x14(%rax)
  6b1069:	eb 00                	jmp    6b106b <http_parser_execute+0x1b5b>
  6b106b:	48 8b 45 f0          	mov    -0x10(%rbp),%rax
  6b106f:	8b 00                	mov    (%rax),%eax
  6b1071:	c1 e8 0a             	shr    $0xa,%eax
  6b1074:	83 e0 7f             	and    $0x7f,%eax
  6b1077:	89 45 ec             	mov    %eax,-0x14(%rbp)
  6b107a:	48 8b 45 f0          	mov    -0x10(%rbp),%rax
  6b107e:	8b 40 14             	mov    0x14(%rax),%eax
  6b1081:	c1 e8 18             	shr    $0x18,%eax
  6b1084:	83 e0 7f             	and    $0x7f,%eax
  6b1087:	83 f8 00             	cmp    $0x0,%eax
  6b108a:	0f 95 c0             	setne  %al
  6b108d:	34 ff                	xor    $0xff,%al
  6b108f:	34 ff                	xor    $0xff,%al
  6b1091:	24 01                	and    $0x1,%al
  6b1093:	0f b6 c0             	movzbl %al,%eax
  6b1096:	48 98                	cltq   
  6b1098:	48 83 f8 00          	cmp    $0x0,%rax
  6b109c:	74 18                	je     6b10b6 <http_parser_execute+0x1ba6>
  6b109e:	48 8b 45 d8          	mov    -0x28(%rbp),%rax
  6b10a2:	48 8b 4d c0          	mov    -0x40(%rbp),%rcx
  6b10a6:	48 29 c8             	sub    %rcx,%rax
  6b10a9:	48 83 c0 01          	add    $0x1,%rax
  6b10ad:	48 89 45 b0          	mov    %rax,-0x50(%rbp)
  6b10b1:	e9 44 41 00 00       	jmpq   6b51fa <http_parser_execute+0x5cea>
  6b10b6:	eb 00                	jmp    6b10b8 <http_parser_execute+0x1ba8>
  6b10b8:	48 c7 45 90 00 00 00 	movq   $0x0,-0x70(%rbp)
  6b10bf:	00 
  6b10c0:	eb 00                	jmp    6b10c2 <http_parser_execute+0x1bb2>
  6b10c2:	eb 50                	jmp    6b1114 <http_parser_execute+0x1c04>
  6b10c4:	8b 7d ec             	mov    -0x14(%rbp),%edi
  6b10c7:	0f be 75 ff          	movsbl -0x1(%rbp),%esi
  6b10cb:	e8 40 41 00 00       	callq  6b5210 <parse_url_char>
  6b10d0:	89 45 ec             	mov    %eax,-0x14(%rbp)
  6b10d3:	83 7d ec 01          	cmpl   $0x1,-0x14(%rbp)
  6b10d7:	0f 94 c0             	sete   %al
  6b10da:	34 ff                	xor    $0xff,%al
  6b10dc:	34 ff                	xor    $0xff,%al
  6b10de:	24 01                	and    $0x1,%al
  6b10e0:	0f b6 c0             	movzbl %al,%eax
  6b10e3:	48 98                	cltq   
  6b10e5:	48 83 f8 00          	cmp    $0x0,%rax
  6b10e9:	74 27                	je     6b1112 <http_parser_execute+0x1c02>
  6b10eb:	eb 00                	jmp    6b10ed <http_parser_execute+0x1bdd>
  6b10ed:	8b 45 e4             	mov    -0x1c(%rbp),%eax
  6b10f0:	48 8b 4d f0          	mov    -0x10(%rbp),%rcx
  6b10f4:	89 41 04             	mov    %eax,0x4(%rcx)
  6b10f7:	48 8b 45 f0          	mov    -0x10(%rbp),%rax
  6b10fb:	8b 48 14             	mov    0x14(%rax),%ecx
  6b10fe:	81 e1 ff ff ff 80    	and    $0x80ffffff,%ecx
  6b1104:	81 c9 00 00 00 11    	or     $0x11000000,%ecx
  6b110a:	89 48 14             	mov    %ecx,0x14(%rax)
  6b110d:	e9 7e 40 00 00       	jmpq   6b5190 <http_parser_execute+0x5c80>
  6b1112:	eb 00                	jmp    6b1114 <http_parser_execute+0x1c04>
  6b1114:	e9 ec 38 00 00       	jmpq   6b4a05 <http_parser_execute+0x54f5>
  6b1119:	0f be 45 ff          	movsbl -0x1(%rbp),%eax
  6b111d:	89 c1                	mov    %eax,%ecx
  6b111f:	83 e9 20             	sub    $0x20,%ecx
  6b1122:	74 12                	je     6b1136 <http_parser_execute+0x1c26>
  6b1124:	eb 00                	jmp    6b1126 <http_parser_execute+0x1c16>
  6b1126:	89 c1                	mov    %eax,%ecx
  6b1128:	83 e9 48             	sub    $0x48,%ecx
  6b112b:	74 0b                	je     6b1138 <http_parser_execute+0x1c28>
  6b112d:	eb 00                	jmp    6b112f <http_parser_execute+0x1c1f>
  6b112f:	83 e8 49             	sub    $0x49,%eax
  6b1132:	74 0d                	je     6b1141 <http_parser_execute+0x1c31>
  6b1134:	eb 2a                	jmp    6b1160 <http_parser_execute+0x1c50>
  6b1136:	eb 51                	jmp    6b1189 <http_parser_execute+0x1c79>
  6b1138:	c7 45 ec 21 00 00 00 	movl   $0x21,-0x14(%rbp)
  6b113f:	eb 48                	jmp    6b1189 <http_parser_execute+0x1c79>
  6b1141:	48 8b 45 f0          	mov    -0x10(%rbp),%rax
  6b1145:	8b 40 14             	mov    0x14(%rax),%eax
  6b1148:	c1 e8 10             	shr    $0x10,%eax
  6b114b:	25 ff 00 00 00       	and    $0xff,%eax
  6b1150:	83 f8 21             	cmp    $0x21,%eax
  6b1153:	75 09                	jne    6b115e <http_parser_execute+0x1c4e>
  6b1155:	c7 45 ec 25 00 00 00 	movl   $0x25,-0x14(%rbp)
  6b115c:	eb 2b                	jmp    6b1189 <http_parser_execute+0x1c79>
  6b115e:	eb 02                	jmp    6b1162 <http_parser_execute+0x1c52>
  6b1160:	eb 00                	jmp    6b1162 <http_parser_execute+0x1c52>
  6b1162:	eb 00                	jmp    6b1164 <http_parser_execute+0x1c54>
  6b1164:	8b 45 e4             	mov    -0x1c(%rbp),%eax
  6b1167:	48 8b 4d f0          	mov    -0x10(%rbp),%rcx
  6b116b:	89 41 04             	mov    %eax,0x4(%rcx)
  6b116e:	48 8b 45 f0          	mov    -0x10(%rbp),%rax
  6b1172:	8b 48 14             	mov    0x14(%rax),%ecx
  6b1175:	81 e1 ff ff ff 80    	and    $0x80ffffff,%ecx
  6b117b:	81 c9 00 00 00 1c    	or     $0x1c000000,%ecx
  6b1181:	89 48 14             	mov    %ecx,0x14(%rax)
  6b1184:	e9 07 40 00 00       	jmpq   6b5190 <http_parser_execute+0x5c80>
  6b1189:	e9 77 38 00 00       	jmpq   6b4a05 <http_parser_execute+0x54f5>
  6b118e:	eb 00                	jmp    6b1190 <http_parser_execute+0x1c80>
  6b1190:	0f be 45 ff          	movsbl -0x1(%rbp),%eax
  6b1194:	83 f8 54             	cmp    $0x54,%eax
  6b1197:	74 27                	je     6b11c0 <http_parser_execute+0x1cb0>
  6b1199:	eb 00                	jmp    6b119b <http_parser_execute+0x1c8b>
  6b119b:	8b 45 e4             	mov    -0x1c(%rbp),%eax
  6b119e:	48 8b 4d f0          	mov    -0x10(%rbp),%rcx
  6b11a2:	89 41 04             	mov    %eax,0x4(%rcx)
  6b11a5:	48 8b 45 f0          	mov    -0x10(%rbp),%rax
  6b11a9:	8b 48 14             	mov    0x14(%rax),%ecx
  6b11ac:	81 e1 ff ff ff 80    	and    $0x80ffffff,%ecx
  6b11b2:	81 c9 00 00 00 1e    	or     $0x1e000000,%ecx
  6b11b8:	89 48 14             	mov    %ecx,0x14(%rax)
  6b11bb:	e9 d0 3f 00 00       	jmpq   6b5190 <http_parser_execute+0x5c80>
  6b11c0:	eb 00                	jmp    6b11c2 <http_parser_execute+0x1cb2>
  6b11c2:	c7 45 ec 22 00 00 00 	movl   $0x22,-0x14(%rbp)
  6b11c9:	e9 37 38 00 00       	jmpq   6b4a05 <http_parser_execute+0x54f5>
  6b11ce:	eb 00                	jmp    6b11d0 <http_parser_execute+0x1cc0>
  6b11d0:	0f be 45 ff          	movsbl -0x1(%rbp),%eax
  6b11d4:	83 f8 54             	cmp    $0x54,%eax
  6b11d7:	74 27                	je     6b1200 <http_parser_execute+0x1cf0>
  6b11d9:	eb 00                	jmp    6b11db <http_parser_execute+0x1ccb>
  6b11db:	8b 45 e4             	mov    -0x1c(%rbp),%eax
  6b11de:	48 8b 4d f0          	mov    -0x10(%rbp),%rcx
  6b11e2:	89 41 04             	mov    %eax,0x4(%rcx)
  6b11e5:	48 8b 45 f0          	mov    -0x10(%rbp),%rax
  6b11e9:	8b 48 14             	mov    0x14(%rax),%ecx
  6b11ec:	81 e1 ff ff ff 80    	and    $0x80ffffff,%ecx
  6b11f2:	81 c9 00 00 00 1e    	or     $0x1e000000,%ecx
  6b11f8:	89 48 14             	mov    %ecx,0x14(%rax)
  6b11fb:	e9 90 3f 00 00       	jmpq   6b5190 <http_parser_execute+0x5c80>
  6b1200:	eb 00                	jmp    6b1202 <http_parser_execute+0x1cf2>
  6b1202:	c7 45 ec 23 00 00 00 	movl   $0x23,-0x14(%rbp)
  6b1209:	e9 f7 37 00 00       	jmpq   6b4a05 <http_parser_execute+0x54f5>
  6b120e:	eb 00                	jmp    6b1210 <http_parser_execute+0x1d00>
  6b1210:	0f be 45 ff          	movsbl -0x1(%rbp),%eax
  6b1214:	83 f8 50             	cmp    $0x50,%eax
  6b1217:	74 27                	je     6b1240 <http_parser_execute+0x1d30>
  6b1219:	eb 00                	jmp    6b121b <http_parser_execute+0x1d0b>
  6b121b:	8b 45 e4             	mov    -0x1c(%rbp),%eax
  6b121e:	48 8b 4d f0          	mov    -0x10(%rbp),%rcx
  6b1222:	89 41 04             	mov    %eax,0x4(%rcx)
  6b1225:	48 8b 45 f0          	mov    -0x10(%rbp),%rax
  6b1229:	8b 48 14             	mov    0x14(%rax),%ecx
  6b122c:	81 e1 ff ff ff 80    	and    $0x80ffffff,%ecx
  6b1232:	81 c9 00 00 00 1e    	or     $0x1e000000,%ecx
  6b1238:	89 48 14             	mov    %ecx,0x14(%rax)
  6b123b:	e9 50 3f 00 00       	jmpq   6b5190 <http_parser_execute+0x5c80>
  6b1240:	eb 00                	jmp    6b1242 <http_parser_execute+0x1d32>
  6b1242:	c7 45 ec 24 00 00 00 	movl   $0x24,-0x14(%rbp)
  6b1249:	e9 b7 37 00 00       	jmpq   6b4a05 <http_parser_execute+0x54f5>
  6b124e:	eb 00                	jmp    6b1250 <http_parser_execute+0x1d40>
  6b1250:	0f be 45 ff          	movsbl -0x1(%rbp),%eax
  6b1254:	83 f8 43             	cmp    $0x43,%eax
  6b1257:	74 27                	je     6b1280 <http_parser_execute+0x1d70>
  6b1259:	eb 00                	jmp    6b125b <http_parser_execute+0x1d4b>
  6b125b:	8b 45 e4             	mov    -0x1c(%rbp),%eax
  6b125e:	48 8b 4d f0          	mov    -0x10(%rbp),%rcx
  6b1262:	89 41 04             	mov    %eax,0x4(%rcx)
  6b1265:	48 8b 45 f0          	mov    -0x10(%rbp),%rax
  6b1269:	8b 48 14             	mov    0x14(%rax),%ecx
  6b126c:	81 e1 ff ff ff 80    	and    $0x80ffffff,%ecx
  6b1272:	81 c9 00 00 00 1e    	or     $0x1e000000,%ecx
  6b1278:	89 48 14             	mov    %ecx,0x14(%rax)
  6b127b:	e9 10 3f 00 00       	jmpq   6b5190 <http_parser_execute+0x5c80>
  6b1280:	eb 00                	jmp    6b1282 <http_parser_execute+0x1d72>
  6b1282:	c7 45 ec 26 00 00 00 	movl   $0x26,-0x14(%rbp)
  6b1289:	e9 77 37 00 00       	jmpq   6b4a05 <http_parser_execute+0x54f5>
  6b128e:	eb 00                	jmp    6b1290 <http_parser_execute+0x1d80>
  6b1290:	0f be 45 ff          	movsbl -0x1(%rbp),%eax
  6b1294:	83 f8 45             	cmp    $0x45,%eax
  6b1297:	74 27                	je     6b12c0 <http_parser_execute+0x1db0>
  6b1299:	eb 00                	jmp    6b129b <http_parser_execute+0x1d8b>
  6b129b:	8b 45 e4             	mov    -0x1c(%rbp),%eax
  6b129e:	48 8b 4d f0          	mov    -0x10(%rbp),%rcx
  6b12a2:	89 41 04             	mov    %eax,0x4(%rcx)
  6b12a5:	48 8b 45 f0          	mov    -0x10(%rbp),%rax
  6b12a9:	8b 48 14             	mov    0x14(%rax),%ecx
  6b12ac:	81 e1 ff ff ff 80    	and    $0x80ffffff,%ecx
  6b12b2:	81 c9 00 00 00 1e    	or     $0x1e000000,%ecx
  6b12b8:	89 48 14             	mov    %ecx,0x14(%rax)
  6b12bb:	e9 d0 3e 00 00       	jmpq   6b5190 <http_parser_execute+0x5c80>
  6b12c0:	eb 00                	jmp    6b12c2 <http_parser_execute+0x1db2>
  6b12c2:	c7 45 ec 24 00 00 00 	movl   $0x24,-0x14(%rbp)
  6b12c9:	e9 37 37 00 00       	jmpq   6b4a05 <http_parser_execute+0x54f5>
  6b12ce:	eb 00                	jmp    6b12d0 <http_parser_execute+0x1dc0>
  6b12d0:	0f be 45 ff          	movsbl -0x1(%rbp),%eax
  6b12d4:	83 f8 2f             	cmp    $0x2f,%eax
  6b12d7:	74 27                	je     6b1300 <http_parser_execute+0x1df0>
  6b12d9:	eb 00                	jmp    6b12db <http_parser_execute+0x1dcb>
  6b12db:	8b 45 e4             	mov    -0x1c(%rbp),%eax
  6b12de:	48 8b 4d f0          	mov    -0x10(%rbp),%rcx
  6b12e2:	89 41 04             	mov    %eax,0x4(%rcx)
  6b12e5:	48 8b 45 f0          	mov    -0x10(%rbp),%rax
  6b12e9:	8b 48 14             	mov    0x14(%rax),%ecx
  6b12ec:	81 e1 ff ff ff 80    	and    $0x80ffffff,%ecx
  6b12f2:	81 c9 00 00 00 1e    	or     $0x1e000000,%ecx
  6b12f8:	89 48 14             	mov    %ecx,0x14(%rax)
  6b12fb:	e9 90 3e 00 00       	jmpq   6b5190 <http_parser_execute+0x5c80>
  6b1300:	eb 00                	jmp    6b1302 <http_parser_execute+0x1df2>
  6b1302:	c7 45 ec 27 00 00 00 	movl   $0x27,-0x14(%rbp)
  6b1309:	e9 f7 36 00 00       	jmpq   6b4a05 <http_parser_execute+0x54f5>
  6b130e:	0f be 4d ff          	movsbl -0x1(%rbp),%ecx
  6b1312:	31 c0                	xor    %eax,%eax
  6b1314:	83 f9 30             	cmp    $0x30,%ecx
  6b1317:	7c 0a                	jl     6b1323 <http_parser_execute+0x1e13>
  6b1319:	0f be 45 ff          	movsbl -0x1(%rbp),%eax
  6b131d:	83 f8 39             	cmp    $0x39,%eax
  6b1320:	0f 9e c0             	setle  %al
  6b1323:	34 ff                	xor    $0xff,%al
  6b1325:	34 ff                	xor    $0xff,%al
  6b1327:	34 ff                	xor    $0xff,%al
  6b1329:	24 01                	and    $0x1,%al
  6b132b:	0f b6 c0             	movzbl %al,%eax
  6b132e:	48 98                	cltq   
  6b1330:	48 83 f8 00          	cmp    $0x0,%rax
  6b1334:	74 27                	je     6b135d <http_parser_execute+0x1e4d>
  6b1336:	eb 00                	jmp    6b1338 <http_parser_execute+0x1e28>
  6b1338:	8b 45 e4             	mov    -0x1c(%rbp),%eax
  6b133b:	48 8b 4d f0          	mov    -0x10(%rbp),%rcx
  6b133f:	89 41 04             	mov    %eax,0x4(%rcx)
  6b1342:	48 8b 45 f0          	mov    -0x10(%rbp),%rax
  6b1346:	8b 48 14             	mov    0x14(%rax),%ecx
  6b1349:	81 e1 ff ff ff 80    	and    $0x80ffffff,%ecx
  6b134f:	81 c9 00 00 00 0e    	or     $0xe000000,%ecx
  6b1355:	89 48 14             	mov    %ecx,0x14(%rax)
  6b1358:	e9 33 3e 00 00       	jmpq   6b5190 <http_parser_execute+0x5c80>
  6b135d:	0f be 45 ff          	movsbl -0x1(%rbp),%eax
  6b1361:	83 e8 30             	sub    $0x30,%eax
  6b1364:	48 8b 4d f0          	mov    -0x10(%rbp),%rcx
  6b1368:	66 89 41 10          	mov    %ax,0x10(%rcx)
  6b136c:	c7 45 ec 28 00 00 00 	movl   $0x28,-0x14(%rbp)
  6b1373:	e9 8d 36 00 00       	jmpq   6b4a05 <http_parser_execute+0x54f5>
  6b1378:	0f be 45 ff          	movsbl -0x1(%rbp),%eax
  6b137c:	83 f8 2e             	cmp    $0x2e,%eax
  6b137f:	0f 95 c0             	setne  %al
  6b1382:	34 ff                	xor    $0xff,%al
  6b1384:	34 ff                	xor    $0xff,%al
  6b1386:	24 01                	and    $0x1,%al
  6b1388:	0f b6 c0             	movzbl %al,%eax
  6b138b:	48 98                	cltq   
  6b138d:	48 83 f8 00          	cmp    $0x0,%rax
  6b1391:	74 27                	je     6b13ba <http_parser_execute+0x1eaa>
  6b1393:	eb 00                	jmp    6b1395 <http_parser_execute+0x1e85>
  6b1395:	8b 45 e4             	mov    -0x1c(%rbp),%eax
  6b1398:	48 8b 4d f0          	mov    -0x10(%rbp),%rcx
  6b139c:	89 41 04             	mov    %eax,0x4(%rcx)
  6b139f:	48 8b 45 f0          	mov    -0x10(%rbp),%rax
  6b13a3:	8b 48 14             	mov    0x14(%rax),%ecx
  6b13a6:	81 e1 ff ff ff 80    	and    $0x80ffffff,%ecx
  6b13ac:	81 c9 00 00 00 0e    	or     $0xe000000,%ecx
  6b13b2:	89 48 14             	mov    %ecx,0x14(%rax)
  6b13b5:	e9 d6 3d 00 00       	jmpq   6b5190 <http_parser_execute+0x5c80>
  6b13ba:	c7 45 ec 29 00 00 00 	movl   $0x29,-0x14(%rbp)
  6b13c1:	e9 3f 36 00 00       	jmpq   6b4a05 <http_parser_execute+0x54f5>
  6b13c6:	0f be 4d ff          	movsbl -0x1(%rbp),%ecx
  6b13ca:	31 c0                	xor    %eax,%eax
  6b13cc:	83 f9 30             	cmp    $0x30,%ecx
  6b13cf:	7c 0a                	jl     6b13db <http_parser_execute+0x1ecb>
  6b13d1:	0f be 45 ff          	movsbl -0x1(%rbp),%eax
  6b13d5:	83 f8 39             	cmp    $0x39,%eax
  6b13d8:	0f 9e c0             	setle  %al
  6b13db:	34 ff                	xor    $0xff,%al
  6b13dd:	34 ff                	xor    $0xff,%al
  6b13df:	34 ff                	xor    $0xff,%al
  6b13e1:	24 01                	and    $0x1,%al
  6b13e3:	0f b6 c0             	movzbl %al,%eax
  6b13e6:	48 98                	cltq   
  6b13e8:	48 83 f8 00          	cmp    $0x0,%rax
  6b13ec:	74 27                	je     6b1415 <http_parser_execute+0x1f05>
  6b13ee:	eb 00                	jmp    6b13f0 <http_parser_execute+0x1ee0>
  6b13f0:	8b 45 e4             	mov    -0x1c(%rbp),%eax
  6b13f3:	48 8b 4d f0          	mov    -0x10(%rbp),%rcx
  6b13f7:	89 41 04             	mov    %eax,0x4(%rcx)
  6b13fa:	48 8b 45 f0          	mov    -0x10(%rbp),%rax
  6b13fe:	8b 48 14             	mov    0x14(%rax),%ecx
  6b1401:	81 e1 ff ff ff 80    	and    $0x80ffffff,%ecx
  6b1407:	81 c9 00 00 00 0e    	or     $0xe000000,%ecx
  6b140d:	89 48 14             	mov    %ecx,0x14(%rax)
  6b1410:	e9 7b 3d 00 00       	jmpq   6b5190 <http_parser_execute+0x5c80>
  6b1415:	0f be 45 ff          	movsbl -0x1(%rbp),%eax
  6b1419:	83 e8 30             	sub    $0x30,%eax
  6b141c:	48 8b 4d f0          	mov    -0x10(%rbp),%rcx
  6b1420:	66 89 41 12          	mov    %ax,0x12(%rcx)
  6b1424:	c7 45 ec 2a 00 00 00 	movl   $0x2a,-0x14(%rbp)
  6b142b:	e9 d5 35 00 00       	jmpq   6b4a05 <http_parser_execute+0x54f5>
  6b1430:	0f be 45 ff          	movsbl -0x1(%rbp),%eax
  6b1434:	83 f8 0d             	cmp    $0xd,%eax
  6b1437:	75 0c                	jne    6b1445 <http_parser_execute+0x1f35>
  6b1439:	c7 45 ec 2b 00 00 00 	movl   $0x2b,-0x14(%rbp)
  6b1440:	e9 c0 35 00 00       	jmpq   6b4a05 <http_parser_execute+0x54f5>
  6b1445:	0f be 45 ff          	movsbl -0x1(%rbp),%eax
  6b1449:	83 f8 0a             	cmp    $0xa,%eax
  6b144c:	75 0c                	jne    6b145a <http_parser_execute+0x1f4a>
  6b144e:	c7 45 ec 2c 00 00 00 	movl   $0x2c,-0x14(%rbp)
  6b1455:	e9 ab 35 00 00       	jmpq   6b4a05 <http_parser_execute+0x54f5>
  6b145a:	eb 00                	jmp    6b145c <http_parser_execute+0x1f4c>
  6b145c:	8b 45 e4             	mov    -0x1c(%rbp),%eax
  6b145f:	48 8b 4d f0          	mov    -0x10(%rbp),%rcx
  6b1463:	89 41 04             	mov    %eax,0x4(%rcx)
  6b1466:	48 8b 45 f0          	mov    -0x10(%rbp),%rax
  6b146a:	8b 48 14             	mov    0x14(%rax),%ecx
  6b146d:	81 e1 ff ff ff 80    	and    $0x80ffffff,%ecx
  6b1473:	81 c9 00 00 00 0e    	or     $0xe000000,%ecx
  6b1479:	89 48 14             	mov    %ecx,0x14(%rax)
  6b147c:	e9 0f 3d 00 00       	jmpq   6b5190 <http_parser_execute+0x5c80>
  6b1481:	0f be 45 ff          	movsbl -0x1(%rbp),%eax
  6b1485:	83 f8 0a             	cmp    $0xa,%eax
  6b1488:	0f 95 c0             	setne  %al
  6b148b:	34 ff                	xor    $0xff,%al
  6b148d:	34 ff                	xor    $0xff,%al
  6b148f:	24 01                	and    $0x1,%al
  6b1491:	0f b6 c0             	movzbl %al,%eax
  6b1494:	48 98                	cltq   
  6b1496:	48 83 f8 00          	cmp    $0x0,%rax
  6b149a:	74 27                	je     6b14c3 <http_parser_execute+0x1fb3>
  6b149c:	eb 00                	jmp    6b149e <http_parser_execute+0x1f8e>
  6b149e:	8b 45 e4             	mov    -0x1c(%rbp),%eax
  6b14a1:	48 8b 4d f0          	mov    -0x10(%rbp),%rcx
  6b14a5:	89 41 04             	mov    %eax,0x4(%rcx)
  6b14a8:	48 8b 45 f0          	mov    -0x10(%rbp),%rax
  6b14ac:	8b 48 14             	mov    0x14(%rax),%ecx
  6b14af:	81 e1 ff ff ff 80    	and    $0x80ffffff,%ecx
  6b14b5:	81 c9 00 00 00 17    	or     $0x17000000,%ecx
  6b14bb:	89 48 14             	mov    %ecx,0x14(%rax)
  6b14be:	e9 cd 3c 00 00       	jmpq   6b5190 <http_parser_execute+0x5c80>
  6b14c3:	c7 45 ec 2c 00 00 00 	movl   $0x2c,-0x14(%rbp)
  6b14ca:	e9 36 35 00 00       	jmpq   6b4a05 <http_parser_execute+0x54f5>
  6b14cf:	0f be 45 ff          	movsbl -0x1(%rbp),%eax
  6b14d3:	83 f8 0d             	cmp    $0xd,%eax
  6b14d6:	75 0c                	jne    6b14e4 <http_parser_execute+0x1fd4>
  6b14d8:	c7 45 ec 39 00 00 00 	movl   $0x39,-0x14(%rbp)
  6b14df:	e9 21 35 00 00       	jmpq   6b4a05 <http_parser_execute+0x54f5>
  6b14e4:	0f be 45 ff          	movsbl -0x1(%rbp),%eax
  6b14e8:	83 f8 0a             	cmp    $0xa,%eax
  6b14eb:	75 0c                	jne    6b14f9 <http_parser_execute+0x1fe9>
  6b14ed:	c7 45 ec 39 00 00 00 	movl   $0x39,-0x14(%rbp)
  6b14f4:	e9 5a e5 ff ff       	jmpq   6afa53 <http_parser_execute+0x543>
  6b14f9:	0f be 45 ff          	movsbl -0x1(%rbp),%eax
  6b14fd:	83 f8 20             	cmp    $0x20,%eax
  6b1500:	75 04                	jne    6b1506 <http_parser_execute+0x1ff6>
  6b1502:	31 c0                	xor    %eax,%eax
  6b1504:	eb 0c                	jmp    6b1512 <http_parser_execute+0x2002>
  6b1506:	0f b6 45 ff          	movzbl -0x1(%rbp),%eax
  6b150a:	0f be 04 05 a0 83 20 	movsbl 0x2083a0(,%rax,1),%eax
  6b1511:	00 
  6b1512:	88 45 eb             	mov    %al,-0x15(%rbp)
  6b1515:	80 7d eb 00          	cmpb   $0x0,-0x15(%rbp)
  6b1519:	0f 95 c0             	setne  %al
  6b151c:	34 ff                	xor    $0xff,%al
  6b151e:	34 ff                	xor    $0xff,%al
  6b1520:	34 ff                	xor    $0xff,%al
  6b1522:	24 01                	and    $0x1,%al
  6b1524:	0f b6 c0             	movzbl %al,%eax
  6b1527:	48 98                	cltq   
  6b1529:	48 83 f8 00          	cmp    $0x0,%rax
  6b152d:	74 27                	je     6b1556 <http_parser_execute+0x2046>
  6b152f:	eb 00                	jmp    6b1531 <http_parser_execute+0x2021>
  6b1531:	8b 45 e4             	mov    -0x1c(%rbp),%eax
  6b1534:	48 8b 4d f0          	mov    -0x10(%rbp),%rcx
  6b1538:	89 41 04             	mov    %eax,0x4(%rcx)
  6b153b:	48 8b 45 f0          	mov    -0x10(%rbp),%rax
  6b153f:	8b 48 14             	mov    0x14(%rax),%ecx
  6b1542:	81 e1 ff ff ff 80    	and    $0x80ffffff,%ecx
  6b1548:	81 c9 00 00 00 18    	or     $0x18000000,%ecx
  6b154e:	89 48 14             	mov    %ecx,0x14(%rax)
  6b1551:	e9 3a 3c 00 00       	jmpq   6b5190 <http_parser_execute+0x5c80>
  6b1556:	eb 00                	jmp    6b1558 <http_parser_execute+0x2048>
  6b1558:	48 83 7d 80 00       	cmpq   $0x0,-0x80(%rbp)
  6b155d:	75 08                	jne    6b1567 <http_parser_execute+0x2057>
  6b155f:	48 8b 45 d8          	mov    -0x28(%rbp),%rax
  6b1563:	48 89 45 80          	mov    %rax,-0x80(%rbp)
  6b1567:	eb 00                	jmp    6b1569 <http_parser_execute+0x2059>
  6b1569:	48 8b 45 f0          	mov    -0x10(%rbp),%rax
  6b156d:	8b 08                	mov    (%rax),%ecx
  6b156f:	81 e1 ff ff ff e0    	and    $0xe0ffffff,%ecx
  6b1575:	89 08                	mov    %ecx,(%rax)
  6b1577:	c7 45 ec 2d 00 00 00 	movl   $0x2d,-0x14(%rbp)
  6b157e:	0f be 45 eb          	movsbl -0x15(%rbp),%eax
  6b1582:	83 c0 9d             	add    $0xffffff9d,%eax
  6b1585:	89 c1                	mov    %eax,%ecx
  6b1587:	83 e9 12             	sub    $0x12,%ecx
  6b158a:	77 62                	ja     6b15ee <http_parser_execute+0x20de>
  6b158c:	48 8b 04 c5 70 0d 20 	mov    0x200d70(,%rax,8),%rax
  6b1593:	00 
  6b1594:	ff e0                	jmpq   *%rax
  6b1596:	48 8b 45 f0          	mov    -0x10(%rbp),%rax
  6b159a:	8b 08                	mov    (%rax),%ecx
  6b159c:	81 e1 ff ff 01 ff    	and    $0xff01ffff,%ecx
  6b15a2:	81 c9 00 00 02 00    	or     $0x20000,%ecx
  6b15a8:	89 08                	mov    %ecx,(%rax)
  6b15aa:	eb 53                	jmp    6b15ff <http_parser_execute+0x20ef>
  6b15ac:	48 8b 45 f0          	mov    -0x10(%rbp),%rax
  6b15b0:	8b 08                	mov    (%rax),%ecx
  6b15b2:	81 e1 ff ff 01 ff    	and    $0xff01ffff,%ecx
  6b15b8:	81 c9 00 00 0a 00    	or     $0xa0000,%ecx
  6b15be:	89 08                	mov    %ecx,(%rax)
  6b15c0:	eb 3d                	jmp    6b15ff <http_parser_execute+0x20ef>
  6b15c2:	48 8b 45 f0          	mov    -0x10(%rbp),%rax
  6b15c6:	8b 08                	mov    (%rax),%ecx
  6b15c8:	81 e1 ff ff 01 ff    	and    $0xff01ffff,%ecx
  6b15ce:	81 c9 00 00 0e 00    	or     $0xe0000,%ecx
  6b15d4:	89 08                	mov    %ecx,(%rax)
  6b15d6:	eb 27                	jmp    6b15ff <http_parser_execute+0x20ef>
  6b15d8:	48 8b 45 f0          	mov    -0x10(%rbp),%rax
  6b15dc:	8b 08                	mov    (%rax),%ecx
  6b15de:	81 e1 ff ff 01 ff    	and    $0xff01ffff,%ecx
  6b15e4:	81 c9 00 00 10 00    	or     $0x100000,%ecx
  6b15ea:	89 08                	mov    %ecx,(%rax)
  6b15ec:	eb 11                	jmp    6b15ff <http_parser_execute+0x20ef>
  6b15ee:	48 8b 45 f0          	mov    -0x10(%rbp),%rax
  6b15f2:	8b 08                	mov    (%rax),%ecx
  6b15f4:	81 e1 ff ff 01 ff    	and    $0xff01ffff,%ecx
  6b15fa:	83 c9 00             	or     $0x0,%ecx
  6b15fd:	89 08                	mov    %ecx,(%rax)
  6b15ff:	e9 01 34 00 00       	jmpq   6b4a05 <http_parser_execute+0x54f5>
  6b1604:	48 8b 45 d8          	mov    -0x28(%rbp),%rax
  6b1608:	48 89 85 30 ff ff ff 	mov    %rax,-0xd0(%rbp)
  6b160f:	48 8b 45 d8          	mov    -0x28(%rbp),%rax
  6b1613:	48 8b 4d c0          	mov    -0x40(%rbp),%rcx
  6b1617:	48 03 4d 88          	add    -0x78(%rbp),%rcx
  6b161b:	48 39 c8             	cmp    %rcx,%rax
  6b161e:	0f 84 4a 05 00 00    	je     6b1b6e <http_parser_execute+0x265e>
  6b1624:	48 8b 45 d8          	mov    -0x28(%rbp),%rax
  6b1628:	8a 00                	mov    (%rax),%al
  6b162a:	88 45 ff             	mov    %al,-0x1(%rbp)
  6b162d:	0f be 45 ff          	movsbl -0x1(%rbp),%eax
  6b1631:	83 f8 20             	cmp    $0x20,%eax
  6b1634:	75 04                	jne    6b163a <http_parser_execute+0x212a>
  6b1636:	31 c0                	xor    %eax,%eax
  6b1638:	eb 0c                	jmp    6b1646 <http_parser_execute+0x2136>
  6b163a:	0f b6 45 ff          	movzbl -0x1(%rbp),%eax
  6b163e:	0f be 04 05 a0 83 20 	movsbl 0x2083a0(,%rax,1),%eax
  6b1645:	00 
  6b1646:	88 45 eb             	mov    %al,-0x15(%rbp)
  6b1649:	80 7d eb 00          	cmpb   $0x0,-0x15(%rbp)
  6b164d:	75 05                	jne    6b1654 <http_parser_execute+0x2144>
  6b164f:	e9 1c 05 00 00       	jmpq   6b1b70 <http_parser_execute+0x2660>
  6b1654:	48 8b 45 f0          	mov    -0x10(%rbp),%rax
  6b1658:	8b 00                	mov    (%rax),%eax
  6b165a:	c1 e8 11             	shr    $0x11,%eax
  6b165d:	83 e0 7f             	and    $0x7f,%eax
  6b1660:	89 c1                	mov    %eax,%ecx
  6b1662:	83 e9 0e             	sub    $0xe,%ecx
  6b1665:	0f 87 c8 04 00 00    	ja     6b1b33 <http_parser_execute+0x2623>
  6b166b:	48 8b 04 c5 f8 0c 20 	mov    0x200cf8(,%rax,8),%rax
  6b1672:	00 
  6b1673:	ff e0                	jmpq   *%rax
  6b1675:	48 8b 45 c0          	mov    -0x40(%rbp),%rax
  6b1679:	48 03 45 88          	add    -0x78(%rbp),%rax
  6b167d:	48 8b 4d d8          	mov    -0x28(%rbp),%rcx
  6b1681:	48 29 c8             	sub    %rcx,%rax
  6b1684:	48 89 85 38 ff ff ff 	mov    %rax,-0xc8(%rbp)
  6b168b:	48 8b 45 d8          	mov    -0x28(%rbp),%rax
  6b168f:	48 8b 8d 38 ff ff ff 	mov    -0xc8(%rbp),%rcx
  6b1696:	8b 14 25 70 dc 6b 00 	mov    0x6bdc70,%edx
  6b169d:	48 39 d1             	cmp    %rdx,%rcx
  6b16a0:	73 09                	jae    6b16ab <http_parser_execute+0x219b>
  6b16a2:	48 8b 8d 38 ff ff ff 	mov    -0xc8(%rbp),%rcx
  6b16a9:	eb 07                	jmp    6b16b2 <http_parser_execute+0x21a2>
  6b16ab:	8b 0c 25 70 dc 6b 00 	mov    0x6bdc70,%ecx
  6b16b2:	48 01 c8             	add    %rcx,%rax
  6b16b5:	48 89 85 18 ff ff ff 	mov    %rax,-0xe8(%rbp)
  6b16bc:	48 8b 4d d8          	mov    -0x28(%rbp),%rcx
  6b16c0:	48 83 c1 01          	add    $0x1,%rcx
  6b16c4:	31 c0                	xor    %eax,%eax
  6b16c6:	48 3b 8d 18 ff ff ff 	cmp    -0xe8(%rbp),%rcx
  6b16cd:	73 27                	jae    6b16f6 <http_parser_execute+0x21e6>
  6b16cf:	48 8b 45 d8          	mov    -0x28(%rbp),%rax
  6b16d3:	0f be 40 01          	movsbl 0x1(%rax),%eax
  6b16d7:	83 f8 20             	cmp    $0x20,%eax
  6b16da:	75 04                	jne    6b16e0 <http_parser_execute+0x21d0>
  6b16dc:	31 c0                	xor    %eax,%eax
  6b16de:	eb 10                	jmp    6b16f0 <http_parser_execute+0x21e0>
  6b16e0:	48 8b 45 d8          	mov    -0x28(%rbp),%rax
  6b16e4:	0f b6 40 01          	movzbl 0x1(%rax),%eax
  6b16e8:	0f be 04 05 a0 83 20 	movsbl 0x2083a0(,%rax,1),%eax
  6b16ef:	00 
  6b16f0:	83 f8 00             	cmp    $0x0,%eax
  6b16f3:	0f 95 c0             	setne  %al
  6b16f6:	a8 01                	test   $0x1,%al
  6b16f8:	75 02                	jne    6b16fc <http_parser_execute+0x21ec>
  6b16fa:	eb 0e                	jmp    6b170a <http_parser_execute+0x21fa>
  6b16fc:	48 8b 45 d8          	mov    -0x28(%rbp),%rax
  6b1700:	48 83 c0 01          	add    $0x1,%rax
  6b1704:	48 89 45 d8          	mov    %rax,-0x28(%rbp)
  6b1708:	eb b2                	jmp    6b16bc <http_parser_execute+0x21ac>
  6b170a:	e9 4c 04 00 00       	jmpq   6b1b5b <http_parser_execute+0x264b>
  6b170f:	48 8b 45 f0          	mov    -0x10(%rbp),%rax
  6b1713:	8b 08                	mov    (%rax),%ecx
  6b1715:	c1 e9 18             	shr    $0x18,%ecx
  6b1718:	83 e1 1f             	and    $0x1f,%ecx
  6b171b:	83 c1 01             	add    $0x1,%ecx
  6b171e:	8b 10                	mov    (%rax),%edx
  6b1720:	83 e1 1f             	and    $0x1f,%ecx
  6b1723:	c1 e1 18             	shl    $0x18,%ecx
  6b1726:	81 e2 ff ff ff e0    	and    $0xe0ffffff,%edx
  6b172c:	09 ca                	or     %ecx,%edx
  6b172e:	89 10                	mov    %edx,(%rax)
  6b1730:	0f be 45 eb          	movsbl -0x15(%rbp),%eax
  6b1734:	31 c9                	xor    %ecx,%ecx
  6b1736:	ba 02 00 00 00       	mov    $0x2,%edx
  6b173b:	83 f8 6f             	cmp    $0x6f,%eax
  6b173e:	0f 44 ca             	cmove  %edx,%ecx
  6b1741:	48 8b 45 f0          	mov    -0x10(%rbp),%rax
  6b1745:	8b 10                	mov    (%rax),%edx
  6b1747:	83 e1 7f             	and    $0x7f,%ecx
  6b174a:	c1 e1 11             	shl    $0x11,%ecx
  6b174d:	81 e2 ff ff 01 ff    	and    $0xff01ffff,%edx
  6b1753:	09 ca                	or     %ecx,%edx
  6b1755:	89 10                	mov    %edx,(%rax)
  6b1757:	e9 ff 03 00 00       	jmpq   6b1b5b <http_parser_execute+0x264b>
  6b175c:	48 8b 45 f0          	mov    -0x10(%rbp),%rax
  6b1760:	8b 08                	mov    (%rax),%ecx
  6b1762:	c1 e9 18             	shr    $0x18,%ecx
  6b1765:	83 e1 1f             	and    $0x1f,%ecx
  6b1768:	83 c1 01             	add    $0x1,%ecx
  6b176b:	8b 10                	mov    (%rax),%edx
  6b176d:	83 e1 1f             	and    $0x1f,%ecx
  6b1770:	c1 e1 18             	shl    $0x18,%ecx
  6b1773:	81 e2 ff ff ff e0    	and    $0xe0ffffff,%edx
  6b1779:	09 ca                	or     %ecx,%edx
  6b177b:	89 10                	mov    %edx,(%rax)
  6b177d:	0f be 45 eb          	movsbl -0x15(%rbp),%eax
  6b1781:	31 c9                	xor    %ecx,%ecx
  6b1783:	ba 03 00 00 00       	mov    $0x3,%edx
  6b1788:	83 f8 6e             	cmp    $0x6e,%eax
  6b178b:	0f 44 ca             	cmove  %edx,%ecx
  6b178e:	48 8b 45 f0          	mov    -0x10(%rbp),%rax
  6b1792:	8b 10                	mov    (%rax),%edx
  6b1794:	83 e1 7f             	and    $0x7f,%ecx
  6b1797:	c1 e1 11             	shl    $0x11,%ecx
  6b179a:	81 e2 ff ff 01 ff    	and    $0xff01ffff,%edx
  6b17a0:	09 ca                	or     %ecx,%edx
  6b17a2:	89 10                	mov    %edx,(%rax)
  6b17a4:	e9 b2 03 00 00       	jmpq   6b1b5b <http_parser_execute+0x264b>
  6b17a9:	48 8b 45 f0          	mov    -0x10(%rbp),%rax
  6b17ad:	8b 08                	mov    (%rax),%ecx
  6b17af:	89 ca                	mov    %ecx,%edx
  6b17b1:	c1 ea 18             	shr    $0x18,%edx
  6b17b4:	83 c2 01             	add    $0x1,%edx
  6b17b7:	83 e2 1f             	and    $0x1f,%edx
  6b17ba:	c1 e2 18             	shl    $0x18,%edx
  6b17bd:	81 e1 ff ff ff e0    	and    $0xe0ffffff,%ecx
  6b17c3:	09 d1                	or     %edx,%ecx
  6b17c5:	89 08                	mov    %ecx,(%rax)
  6b17c7:	0f be 45 eb          	movsbl -0x15(%rbp),%eax
  6b17cb:	89 c1                	mov    %eax,%ecx
  6b17cd:	83 e9 6e             	sub    $0x6e,%ecx
  6b17d0:	74 09                	je     6b17db <http_parser_execute+0x22cb>
  6b17d2:	eb 00                	jmp    6b17d4 <http_parser_execute+0x22c4>
  6b17d4:	83 e8 74             	sub    $0x74,%eax
  6b17d7:	74 18                	je     6b17f1 <http_parser_execute+0x22e1>
  6b17d9:	eb 2c                	jmp    6b1807 <http_parser_execute+0x22f7>
  6b17db:	48 8b 45 f0          	mov    -0x10(%rbp),%rax
  6b17df:	8b 08                	mov    (%rax),%ecx
  6b17e1:	81 e1 ff ff 01 ff    	and    $0xff01ffff,%ecx
  6b17e7:	81 c9 00 00 08 00    	or     $0x80000,%ecx
  6b17ed:	89 08                	mov    %ecx,(%rax)
  6b17ef:	eb 27                	jmp    6b1818 <http_parser_execute+0x2308>
  6b17f1:	48 8b 45 f0          	mov    -0x10(%rbp),%rax
  6b17f5:	8b 08                	mov    (%rax),%ecx
  6b17f7:	81 e1 ff ff 01 ff    	and    $0xff01ffff,%ecx
  6b17fd:	81 c9 00 00 0c 00    	or     $0xc0000,%ecx
  6b1803:	89 08                	mov    %ecx,(%rax)
  6b1805:	eb 11                	jmp    6b1818 <http_parser_execute+0x2308>
  6b1807:	48 8b 45 f0          	mov    -0x10(%rbp),%rax
  6b180b:	8b 08                	mov    (%rax),%ecx
  6b180d:	81 e1 ff ff 01 ff    	and    $0xff01ffff,%ecx
  6b1813:	83 c9 00             	or     $0x0,%ecx
  6b1816:	89 08                	mov    %ecx,(%rax)
  6b1818:	e9 3e 03 00 00       	jmpq   6b1b5b <http_parser_execute+0x264b>
  6b181d:	48 8b 45 f0          	mov    -0x10(%rbp),%rax
  6b1821:	8b 08                	mov    (%rax),%ecx
  6b1823:	c1 e9 18             	shr    $0x18,%ecx
  6b1826:	83 e1 1f             	and    $0x1f,%ecx
  6b1829:	83 c1 01             	add    $0x1,%ecx
  6b182c:	8b 10                	mov    (%rax),%edx
  6b182e:	83 e1 1f             	and    $0x1f,%ecx
  6b1831:	c1 e1 18             	shl    $0x18,%ecx
  6b1834:	81 e2 ff ff ff e0    	and    $0xe0ffffff,%edx
  6b183a:	09 ca                	or     %ecx,%edx
  6b183c:	89 10                	mov    %edx,(%rax)
  6b183e:	48 8b 45 f0          	mov    -0x10(%rbp),%rax
  6b1842:	8b 00                	mov    (%rax),%eax
  6b1844:	c1 e8 18             	shr    $0x18,%eax
  6b1847:	83 e0 1f             	and    $0x1f,%eax
  6b184a:	89 c0                	mov    %eax,%eax
  6b184c:	48 83 f8 0a          	cmp    $0xa,%rax
  6b1850:	77 1e                	ja     6b1870 <http_parser_execute+0x2360>
  6b1852:	0f be 45 eb          	movsbl -0x15(%rbp),%eax
  6b1856:	48 8b 4d f0          	mov    -0x10(%rbp),%rcx
  6b185a:	8b 09                	mov    (%rcx),%ecx
  6b185c:	c1 e9 18             	shr    $0x18,%ecx
  6b185f:	83 e1 1f             	and    $0x1f,%ecx
  6b1862:	89 c9                	mov    %ecx,%ecx
  6b1864:	0f be 0c 0d 24 2e 20 	movsbl 0x202e24(,%rcx,1),%ecx
  6b186b:	00 
  6b186c:	39 c8                	cmp    %ecx,%eax
  6b186e:	74 13                	je     6b1883 <http_parser_execute+0x2373>
  6b1870:	48 8b 45 f0          	mov    -0x10(%rbp),%rax
  6b1874:	8b 08                	mov    (%rax),%ecx
  6b1876:	81 e1 ff ff 01 ff    	and    $0xff01ffff,%ecx
  6b187c:	83 c9 00             	or     $0x0,%ecx
  6b187f:	89 08                	mov    %ecx,(%rax)
  6b1881:	eb 2a                	jmp    6b18ad <http_parser_execute+0x239d>
  6b1883:	48 8b 45 f0          	mov    -0x10(%rbp),%rax
  6b1887:	8b 00                	mov    (%rax),%eax
  6b1889:	c1 e8 18             	shr    $0x18,%eax
  6b188c:	83 e0 1f             	and    $0x1f,%eax
  6b188f:	89 c0                	mov    %eax,%eax
  6b1891:	48 83 f8 09          	cmp    $0x9,%rax
  6b1895:	75 14                	jne    6b18ab <http_parser_execute+0x239b>
  6b1897:	48 8b 45 f0          	mov    -0x10(%rbp),%rax
  6b189b:	8b 08                	mov    (%rax),%ecx
  6b189d:	81 e1 ff ff 01 ff    	and    $0xff01ffff,%ecx
  6b18a3:	81 c9 00 00 12 00    	or     $0x120000,%ecx
  6b18a9:	89 08                	mov    %ecx,(%rax)
  6b18ab:	eb 00                	jmp    6b18ad <http_parser_execute+0x239d>
  6b18ad:	e9 a9 02 00 00       	jmpq   6b1b5b <http_parser_execute+0x264b>
  6b18b2:	48 8b 45 f0          	mov    -0x10(%rbp),%rax
  6b18b6:	8b 08                	mov    (%rax),%ecx
  6b18b8:	c1 e9 18             	shr    $0x18,%ecx
  6b18bb:	83 e1 1f             	and    $0x1f,%ecx
  6b18be:	83 c1 01             	add    $0x1,%ecx
  6b18c1:	8b 10                	mov    (%rax),%edx
  6b18c3:	83 e1 1f             	and    $0x1f,%ecx
  6b18c6:	c1 e1 18             	shl    $0x18,%ecx
  6b18c9:	81 e2 ff ff ff e0    	and    $0xe0ffffff,%edx
  6b18cf:	09 ca                	or     %ecx,%edx
  6b18d1:	89 10                	mov    %edx,(%rax)
  6b18d3:	48 8b 45 f0          	mov    -0x10(%rbp),%rax
  6b18d7:	8b 00                	mov    (%rax),%eax
  6b18d9:	c1 e8 18             	shr    $0x18,%eax
  6b18dc:	83 e0 1f             	and    $0x1f,%eax
  6b18df:	89 c0                	mov    %eax,%eax
  6b18e1:	48 83 f8 10          	cmp    $0x10,%rax
  6b18e5:	77 1e                	ja     6b1905 <http_parser_execute+0x23f5>
  6b18e7:	0f be 45 eb          	movsbl -0x15(%rbp),%eax
  6b18eb:	48 8b 4d f0          	mov    -0x10(%rbp),%rcx
  6b18ef:	8b 09                	mov    (%rcx),%ecx
  6b18f1:	c1 e9 18             	shr    $0x18,%ecx
  6b18f4:	83 e1 1f             	and    $0x1f,%ecx
  6b18f7:	89 c9                	mov    %ecx,%ecx
  6b18f9:	0f be 0c 0d 70 26 20 	movsbl 0x202670(,%rcx,1),%ecx
  6b1900:	00 
  6b1901:	39 c8                	cmp    %ecx,%eax
  6b1903:	74 13                	je     6b1918 <http_parser_execute+0x2408>
  6b1905:	48 8b 45 f0          	mov    -0x10(%rbp),%rax
  6b1909:	8b 08                	mov    (%rax),%ecx
  6b190b:	81 e1 ff ff 01 ff    	and    $0xff01ffff,%ecx
  6b1911:	83 c9 00             	or     $0x0,%ecx
  6b1914:	89 08                	mov    %ecx,(%rax)
  6b1916:	eb 2a                	jmp    6b1942 <http_parser_execute+0x2432>
  6b1918:	48 8b 45 f0          	mov    -0x10(%rbp),%rax
  6b191c:	8b 00                	mov    (%rax),%eax
  6b191e:	c1 e8 18             	shr    $0x18,%eax
  6b1921:	83 e0 1f             	and    $0x1f,%eax
  6b1924:	89 c0                	mov    %eax,%eax
  6b1926:	48 83 f8 0f          	cmp    $0xf,%rax
  6b192a:	75 14                	jne    6b1940 <http_parser_execute+0x2430>
  6b192c:	48 8b 45 f0          	mov    -0x10(%rbp),%rax
  6b1930:	8b 08                	mov    (%rax),%ecx
  6b1932:	81 e1 ff ff 01 ff    	and    $0xff01ffff,%ecx
  6b1938:	81 c9 00 00 12 00    	or     $0x120000,%ecx
  6b193e:	89 08                	mov    %ecx,(%rax)
  6b1940:	eb 00                	jmp    6b1942 <http_parser_execute+0x2432>
  6b1942:	e9 14 02 00 00       	jmpq   6b1b5b <http_parser_execute+0x264b>
  6b1947:	48 8b 45 f0          	mov    -0x10(%rbp),%rax
  6b194b:	8b 08                	mov    (%rax),%ecx
  6b194d:	c1 e9 18             	shr    $0x18,%ecx
  6b1950:	83 e1 1f             	and    $0x1f,%ecx
  6b1953:	83 c1 01             	add    $0x1,%ecx
  6b1956:	8b 10                	mov    (%rax),%edx
  6b1958:	83 e1 1f             	and    $0x1f,%ecx
  6b195b:	c1 e1 18             	shl    $0x18,%ecx
  6b195e:	81 e2 ff ff ff e0    	and    $0xe0ffffff,%edx
  6b1964:	09 ca                	or     %ecx,%edx
  6b1966:	89 10                	mov    %edx,(%rax)
  6b1968:	48 8b 45 f0          	mov    -0x10(%rbp),%rax
  6b196c:	8b 00                	mov    (%rax),%eax
  6b196e:	c1 e8 18             	shr    $0x18,%eax
  6b1971:	83 e0 1f             	and    $0x1f,%eax
  6b1974:	89 c0                	mov    %eax,%eax
  6b1976:	48 83 f8 0e          	cmp    $0xe,%rax
  6b197a:	77 1e                	ja     6b199a <http_parser_execute+0x248a>
  6b197c:	0f be 45 eb          	movsbl -0x15(%rbp),%eax
  6b1980:	48 8b 4d f0          	mov    -0x10(%rbp),%rcx
  6b1984:	8b 09                	mov    (%rcx),%ecx
  6b1986:	c1 e9 18             	shr    $0x18,%ecx
  6b1989:	83 e1 1f             	and    $0x1f,%ecx
  6b198c:	89 c9                	mov    %ecx,%ecx
  6b198e:	0f be 0c 0d 0b 41 20 	movsbl 0x20410b(,%rcx,1),%ecx
  6b1995:	00 
  6b1996:	39 c8                	cmp    %ecx,%eax
  6b1998:	74 13                	je     6b19ad <http_parser_execute+0x249d>
  6b199a:	48 8b 45 f0          	mov    -0x10(%rbp),%rax
  6b199e:	8b 08                	mov    (%rax),%ecx
  6b19a0:	81 e1 ff ff 01 ff    	and    $0xff01ffff,%ecx
  6b19a6:	83 c9 00             	or     $0x0,%ecx
  6b19a9:	89 08                	mov    %ecx,(%rax)
  6b19ab:	eb 2a                	jmp    6b19d7 <http_parser_execute+0x24c7>
  6b19ad:	48 8b 45 f0          	mov    -0x10(%rbp),%rax
  6b19b1:	8b 00                	mov    (%rax),%eax
  6b19b3:	c1 e8 18             	shr    $0x18,%eax
  6b19b6:	83 e0 1f             	and    $0x1f,%eax
  6b19b9:	89 c0                	mov    %eax,%eax
  6b19bb:	48 83 f8 0d          	cmp    $0xd,%rax
  6b19bf:	75 14                	jne    6b19d5 <http_parser_execute+0x24c5>
  6b19c1:	48 8b 45 f0          	mov    -0x10(%rbp),%rax
  6b19c5:	8b 08                	mov    (%rax),%ecx
  6b19c7:	81 e1 ff ff 01 ff    	and    $0xff01ffff,%ecx
  6b19cd:	81 c9 00 00 14 00    	or     $0x140000,%ecx
  6b19d3:	89 08                	mov    %ecx,(%rax)
  6b19d5:	eb 00                	jmp    6b19d7 <http_parser_execute+0x24c7>
  6b19d7:	e9 7f 01 00 00       	jmpq   6b1b5b <http_parser_execute+0x264b>
  6b19dc:	48 8b 45 f0          	mov    -0x10(%rbp),%rax
  6b19e0:	8b 08                	mov    (%rax),%ecx
  6b19e2:	c1 e9 18             	shr    $0x18,%ecx
  6b19e5:	83 e1 1f             	and    $0x1f,%ecx
  6b19e8:	83 c1 01             	add    $0x1,%ecx
  6b19eb:	8b 10                	mov    (%rax),%edx
  6b19ed:	83 e1 1f             	and    $0x1f,%ecx
  6b19f0:	c1 e1 18             	shl    $0x18,%ecx
  6b19f3:	81 e2 ff ff ff e0    	and    $0xe0ffffff,%edx
  6b19f9:	09 ca                	or     %ecx,%edx
  6b19fb:	89 10                	mov    %edx,(%rax)
  6b19fd:	48 8b 45 f0          	mov    -0x10(%rbp),%rax
  6b1a01:	8b 00                	mov    (%rax),%eax
  6b1a03:	c1 e8 18             	shr    $0x18,%eax
  6b1a06:	83 e0 1f             	and    $0x1f,%eax
  6b1a09:	89 c0                	mov    %eax,%eax
  6b1a0b:	48 83 f8 11          	cmp    $0x11,%rax
  6b1a0f:	77 1e                	ja     6b1a2f <http_parser_execute+0x251f>
  6b1a11:	0f be 45 eb          	movsbl -0x15(%rbp),%eax
  6b1a15:	48 8b 4d f0          	mov    -0x10(%rbp),%rcx
  6b1a19:	8b 09                	mov    (%rcx),%ecx
  6b1a1b:	c1 e9 18             	shr    $0x18,%ecx
  6b1a1e:	83 e1 1f             	and    $0x1f,%ecx
  6b1a21:	89 c9                	mov    %ecx,%ecx
  6b1a23:	0f be 0c 0d 77 4e 20 	movsbl 0x204e77(,%rcx,1),%ecx
  6b1a2a:	00 
  6b1a2b:	39 c8                	cmp    %ecx,%eax
  6b1a2d:	74 13                	je     6b1a42 <http_parser_execute+0x2532>
  6b1a2f:	48 8b 45 f0          	mov    -0x10(%rbp),%rax
  6b1a33:	8b 08                	mov    (%rax),%ecx
  6b1a35:	81 e1 ff ff 01 ff    	and    $0xff01ffff,%ecx
  6b1a3b:	83 c9 00             	or     $0x0,%ecx
  6b1a3e:	89 08                	mov    %ecx,(%rax)
  6b1a40:	eb 3e                	jmp    6b1a80 <http_parser_execute+0x2570>
  6b1a42:	48 8b 45 f0          	mov    -0x10(%rbp),%rax
  6b1a46:	8b 00                	mov    (%rax),%eax
  6b1a48:	c1 e8 18             	shr    $0x18,%eax
  6b1a4b:	83 e0 1f             	and    $0x1f,%eax
  6b1a4e:	89 c0                	mov    %eax,%eax
  6b1a50:	48 83 f8 10          	cmp    $0x10,%rax
  6b1a54:	75 28                	jne    6b1a7e <http_parser_execute+0x256e>
  6b1a56:	48 8b 45 f0          	mov    -0x10(%rbp),%rax
  6b1a5a:	8b 08                	mov    (%rax),%ecx
  6b1a5c:	81 e1 ff ff 01 ff    	and    $0xff01ffff,%ecx
  6b1a62:	81 c9 00 00 1a 00    	or     $0x1a0000,%ecx
  6b1a68:	89 08                	mov    %ecx,(%rax)
  6b1a6a:	48 8b 45 f0          	mov    -0x10(%rbp),%rax
  6b1a6e:	8b 08                	mov    (%rax),%ecx
  6b1a70:	81 e1 ff ff ff df    	and    $0xdfffffff,%ecx
  6b1a76:	81 c9 00 00 00 20    	or     $0x20000000,%ecx
  6b1a7c:	89 08                	mov    %ecx,(%rax)
  6b1a7e:	eb 00                	jmp    6b1a80 <http_parser_execute+0x2570>
  6b1a80:	e9 d6 00 00 00       	jmpq   6b1b5b <http_parser_execute+0x264b>
  6b1a85:	48 8b 45 f0          	mov    -0x10(%rbp),%rax
  6b1a89:	8b 08                	mov    (%rax),%ecx
  6b1a8b:	c1 e9 18             	shr    $0x18,%ecx
  6b1a8e:	83 e1 1f             	and    $0x1f,%ecx
  6b1a91:	83 c1 01             	add    $0x1,%ecx
  6b1a94:	8b 10                	mov    (%rax),%edx
  6b1a96:	83 e1 1f             	and    $0x1f,%ecx
  6b1a99:	c1 e1 18             	shl    $0x18,%ecx
  6b1a9c:	81 e2 ff ff ff e0    	and    $0xe0ffffff,%edx
  6b1aa2:	09 ca                	or     %ecx,%edx
  6b1aa4:	89 10                	mov    %edx,(%rax)
  6b1aa6:	48 8b 45 f0          	mov    -0x10(%rbp),%rax
  6b1aaa:	8b 00                	mov    (%rax),%eax
  6b1aac:	c1 e8 18             	shr    $0x18,%eax
  6b1aaf:	83 e0 1f             	and    $0x1f,%eax
  6b1ab2:	89 c0                	mov    %eax,%eax
  6b1ab4:	48 83 f8 07          	cmp    $0x7,%rax
  6b1ab8:	77 1e                	ja     6b1ad8 <http_parser_execute+0x25c8>
  6b1aba:	0f be 45 eb          	movsbl -0x15(%rbp),%eax
  6b1abe:	48 8b 4d f0          	mov    -0x10(%rbp),%rcx
  6b1ac2:	8b 09                	mov    (%rcx),%ecx
  6b1ac4:	c1 e9 18             	shr    $0x18,%ecx
  6b1ac7:	83 e1 1f             	and    $0x1f,%ecx
  6b1aca:	89 c9                	mov    %ecx,%ecx
  6b1acc:	0f be 0c 0d 79 69 20 	movsbl 0x206979(,%rcx,1),%ecx
  6b1ad3:	00 
  6b1ad4:	39 c8                	cmp    %ecx,%eax
  6b1ad6:	74 13                	je     6b1aeb <http_parser_execute+0x25db>
  6b1ad8:	48 8b 45 f0          	mov    -0x10(%rbp),%rax
  6b1adc:	8b 08                	mov    (%rax),%ecx
  6b1ade:	81 e1 ff ff 01 ff    	and    $0xff01ffff,%ecx
  6b1ae4:	83 c9 00             	or     $0x0,%ecx
  6b1ae7:	89 08                	mov    %ecx,(%rax)
  6b1ae9:	eb 2a                	jmp    6b1b15 <http_parser_execute+0x2605>
  6b1aeb:	48 8b 45 f0          	mov    -0x10(%rbp),%rax
  6b1aef:	8b 00                	mov    (%rax),%eax
  6b1af1:	c1 e8 18             	shr    $0x18,%eax
  6b1af4:	83 e0 1f             	and    $0x1f,%eax
  6b1af7:	89 c0                	mov    %eax,%eax
  6b1af9:	48 83 f8 06          	cmp    $0x6,%rax
  6b1afd:	75 14                	jne    6b1b13 <http_parser_execute+0x2603>
  6b1aff:	48 8b 45 f0          	mov    -0x10(%rbp),%rax
  6b1b03:	8b 08                	mov    (%rax),%ecx
  6b1b05:	81 e1 ff ff 01 ff    	and    $0xff01ffff,%ecx
  6b1b0b:	81 c9 00 00 1c 00    	or     $0x1c0000,%ecx
  6b1b11:	89 08                	mov    %ecx,(%rax)
  6b1b13:	eb 00                	jmp    6b1b15 <http_parser_execute+0x2605>
  6b1b15:	eb 44                	jmp    6b1b5b <http_parser_execute+0x264b>
  6b1b17:	0f be 45 ff          	movsbl -0x1(%rbp),%eax
  6b1b1b:	83 f8 20             	cmp    $0x20,%eax
  6b1b1e:	74 11                	je     6b1b31 <http_parser_execute+0x2621>
  6b1b20:	48 8b 45 f0          	mov    -0x10(%rbp),%rax
  6b1b24:	8b 08                	mov    (%rax),%ecx
  6b1b26:	81 e1 ff ff 01 ff    	and    $0xff01ffff,%ecx
  6b1b2c:	83 c9 00             	or     $0x0,%ecx
  6b1b2f:	89 08                	mov    %ecx,(%rax)
  6b1b31:	eb 28                	jmp    6b1b5b <http_parser_execute+0x264b>
  6b1b33:	48 bf 9d 6b 20 00 00 	movabs $0x206b9d,%rdi
  6b1b3a:	00 00 00 
  6b1b3d:	48 be f5 2b 20 00 00 	movabs $0x202bf5,%rsi
  6b1b44:	00 00 00 
  6b1b47:	48 b9 37 6e 20 00 00 	movabs $0x206e37,%rcx
  6b1b4e:	00 00 00 
  6b1b51:	ba 5a 05 00 00       	mov    $0x55a,%edx
  6b1b56:	e8 35 9e 00 00       	callq  6bb990 <__assert_fail@plt>
  6b1b5b:	eb 00                	jmp    6b1b5d <http_parser_execute+0x264d>
  6b1b5d:	48 8b 45 d8          	mov    -0x28(%rbp),%rax
  6b1b61:	48 83 c0 01          	add    $0x1,%rax
  6b1b65:	48 89 45 d8          	mov    %rax,-0x28(%rbp)
  6b1b69:	e9 a1 fa ff ff       	jmpq   6b160f <http_parser_execute+0x20ff>
  6b1b6e:	eb 00                	jmp    6b1b70 <http_parser_execute+0x2660>
  6b1b70:	48 8b 45 d8          	mov    -0x28(%rbp),%rax
  6b1b74:	48 8b 4d c0          	mov    -0x40(%rbp),%rcx
  6b1b78:	48 03 4d 88          	add    -0x78(%rbp),%rcx
  6b1b7c:	48 39 c8             	cmp    %rcx,%rax
  6b1b7f:	75 6c                	jne    6b1bed <http_parser_execute+0x26dd>
  6b1b81:	48 8b 45 d8          	mov    -0x28(%rbp),%rax
  6b1b85:	48 83 c0 ff          	add    $0xffffffffffffffff,%rax
  6b1b89:	48 89 45 d8          	mov    %rax,-0x28(%rbp)
  6b1b8d:	48 8b 45 d8          	mov    -0x28(%rbp),%rax
  6b1b91:	48 8b 8d 30 ff ff ff 	mov    -0xd0(%rbp),%rcx
  6b1b98:	48 29 c8             	sub    %rcx,%rax
  6b1b9b:	03 45 e4             	add    -0x1c(%rbp),%eax
  6b1b9e:	89 45 e4             	mov    %eax,-0x1c(%rbp)
  6b1ba1:	8b 45 e4             	mov    -0x1c(%rbp),%eax
  6b1ba4:	3b 04 25 70 dc 6b 00 	cmp    0x6bdc70,%eax
  6b1bab:	0f 97 c0             	seta   %al
  6b1bae:	34 ff                	xor    $0xff,%al
  6b1bb0:	34 ff                	xor    $0xff,%al
  6b1bb2:	24 01                	and    $0x1,%al
  6b1bb4:	0f b6 c0             	movzbl %al,%eax
  6b1bb7:	48 98                	cltq   
  6b1bb9:	48 83 f8 00          	cmp    $0x0,%rax
  6b1bbd:	74 27                	je     6b1be6 <http_parser_execute+0x26d6>
  6b1bbf:	eb 00                	jmp    6b1bc1 <http_parser_execute+0x26b1>
  6b1bc1:	8b 45 e4             	mov    -0x1c(%rbp),%eax
  6b1bc4:	48 8b 4d f0          	mov    -0x10(%rbp),%rcx
  6b1bc8:	89 41 04             	mov    %eax,0x4(%rcx)
  6b1bcb:	48 8b 45 f0          	mov    -0x10(%rbp),%rax
  6b1bcf:	8b 48 14             	mov    0x14(%rax),%ecx
  6b1bd2:	81 e1 ff ff ff 80    	and    $0x80ffffff,%ecx
  6b1bd8:	81 c9 00 00 00 0c    	or     $0xc000000,%ecx
  6b1bde:	89 48 14             	mov    %ecx,0x14(%rax)
  6b1be1:	e9 aa 35 00 00       	jmpq   6b5190 <http_parser_execute+0x5c80>
  6b1be6:	eb 00                	jmp    6b1be8 <http_parser_execute+0x26d8>
  6b1be8:	e9 18 2e 00 00       	jmpq   6b4a05 <http_parser_execute+0x54f5>
  6b1bed:	eb 00                	jmp    6b1bef <http_parser_execute+0x26df>
  6b1bef:	48 8b 45 d8          	mov    -0x28(%rbp),%rax
  6b1bf3:	48 8b 8d 30 ff ff ff 	mov    -0xd0(%rbp),%rcx
  6b1bfa:	48 29 c8             	sub    %rcx,%rax
  6b1bfd:	03 45 e4             	add    -0x1c(%rbp),%eax
  6b1c00:	89 45 e4             	mov    %eax,-0x1c(%rbp)
  6b1c03:	8b 45 e4             	mov    -0x1c(%rbp),%eax
  6b1c06:	3b 04 25 70 dc 6b 00 	cmp    0x6bdc70,%eax
  6b1c0d:	0f 97 c0             	seta   %al
  6b1c10:	34 ff                	xor    $0xff,%al
  6b1c12:	34 ff                	xor    $0xff,%al
  6b1c14:	24 01                	and    $0x1,%al
  6b1c16:	0f b6 c0             	movzbl %al,%eax
  6b1c19:	48 98                	cltq   
  6b1c1b:	48 83 f8 00          	cmp    $0x0,%rax
  6b1c1f:	74 27                	je     6b1c48 <http_parser_execute+0x2738>
  6b1c21:	eb 00                	jmp    6b1c23 <http_parser_execute+0x2713>
  6b1c23:	8b 45 e4             	mov    -0x1c(%rbp),%eax
  6b1c26:	48 8b 4d f0          	mov    -0x10(%rbp),%rcx
  6b1c2a:	89 41 04             	mov    %eax,0x4(%rcx)
  6b1c2d:	48 8b 45 f0          	mov    -0x10(%rbp),%rax
  6b1c31:	8b 48 14             	mov    0x14(%rax),%ecx
  6b1c34:	81 e1 ff ff ff 80    	and    $0x80ffffff,%ecx
  6b1c3a:	81 c9 00 00 00 0c    	or     $0xc000000,%ecx
  6b1c40:	89 48 14             	mov    %ecx,0x14(%rax)
  6b1c43:	e9 48 35 00 00       	jmpq   6b5190 <http_parser_execute+0x5c80>
  6b1c48:	eb 00                	jmp    6b1c4a <http_parser_execute+0x273a>
  6b1c4a:	0f be 45 ff          	movsbl -0x1(%rbp),%eax
  6b1c4e:	83 f8 3a             	cmp    $0x3a,%eax
  6b1c51:	0f 85 66 01 00 00    	jne    6b1dbd <http_parser_execute+0x28ad>
  6b1c57:	c7 45 ec 2e 00 00 00 	movl   $0x2e,-0x14(%rbp)
  6b1c5e:	48 8b 45 f0          	mov    -0x10(%rbp),%rax
  6b1c62:	8b 40 14             	mov    0x14(%rax),%eax
  6b1c65:	c1 e8 18             	shr    $0x18,%eax
  6b1c68:	83 e0 7f             	and    $0x7f,%eax
  6b1c6b:	83 f8 00             	cmp    $0x0,%eax
  6b1c6e:	75 02                	jne    6b1c72 <http_parser_execute+0x2762>
  6b1c70:	eb 28                	jmp    6b1c9a <http_parser_execute+0x278a>
  6b1c72:	48 bf 00 2e 20 00 00 	movabs $0x202e00,%rdi
  6b1c79:	00 00 00 
  6b1c7c:	48 be f5 2b 20 00 00 	movabs $0x202bf5,%rsi
  6b1c83:	00 00 00 
  6b1c86:	48 b9 37 6e 20 00 00 	movabs $0x206e37,%rcx
  6b1c8d:	00 00 00 
  6b1c90:	ba 69 05 00 00       	mov    $0x569,%edx
  6b1c95:	e8 f6 9c 00 00       	callq  6bb990 <__assert_fail@plt>
  6b1c9a:	48 83 7d 80 00       	cmpq   $0x0,-0x80(%rbp)
  6b1c9f:	0f 84 11 01 00 00    	je     6b1db6 <http_parser_execute+0x28a6>
  6b1ca5:	48 8b 45 c8          	mov    -0x38(%rbp),%rax
  6b1ca9:	48 83 78 18 00       	cmpq   $0x0,0x18(%rax)
  6b1cae:	0f 95 c0             	setne  %al
  6b1cb1:	34 ff                	xor    $0xff,%al
  6b1cb3:	34 ff                	xor    $0xff,%al
  6b1cb5:	24 01                	and    $0x1,%al
  6b1cb7:	0f b6 c0             	movzbl %al,%eax
  6b1cba:	48 98                	cltq   
  6b1cbc:	48 83 f8 00          	cmp    $0x0,%rax
  6b1cc0:	0f 84 e8 00 00 00    	je     6b1dae <http_parser_execute+0x289e>
  6b1cc6:	8b 45 ec             	mov    -0x14(%rbp),%eax
  6b1cc9:	48 8b 4d f0          	mov    -0x10(%rbp),%rcx
  6b1ccd:	8b 11                	mov    (%rcx),%edx
  6b1ccf:	83 e0 7f             	and    $0x7f,%eax
  6b1cd2:	c1 e0 0a             	shl    $0xa,%eax
  6b1cd5:	81 e2 ff 03 fe ff    	and    $0xfffe03ff,%edx
  6b1cdb:	09 c2                	or     %eax,%edx
  6b1cdd:	89 11                	mov    %edx,(%rcx)
  6b1cdf:	48 8b 45 c8          	mov    -0x38(%rbp),%rax
  6b1ce3:	48 8b 48 18          	mov    0x18(%rax),%rcx
  6b1ce7:	48 b8 40 b8 6b 00 00 	movabs $0x6bb840,%rax
  6b1cee:	00 00 00 
  6b1cf1:	48 89 ca             	mov    %rcx,%rdx
  6b1cf4:	48 29 c2             	sub    %rax,%rdx
  6b1cf7:	48 89 d0             	mov    %rdx,%rax
  6b1cfa:	48 c1 e8 03          	shr    $0x3,%rax
  6b1cfe:	48 c1 e2 3d          	shl    $0x3d,%rdx
  6b1d02:	48 09 d0             	or     %rdx,%rax
  6b1d05:	48 83 f8 0f          	cmp    $0xf,%rax
  6b1d09:	76 05                	jbe    6b1d10 <http_parser_execute+0x2800>
  6b1d0b:	67 0f b9 40 02       	ud1    0x2(%eax),%eax
  6b1d10:	48 8b 7d f0          	mov    -0x10(%rbp),%rdi
  6b1d14:	48 8b 75 80          	mov    -0x80(%rbp),%rsi
  6b1d18:	48 8b 55 d8          	mov    -0x28(%rbp),%rdx
  6b1d1c:	48 8b 45 80          	mov    -0x80(%rbp),%rax
  6b1d20:	48 29 c2             	sub    %rax,%rdx
  6b1d23:	ff d1                	callq  *%rcx
  6b1d25:	31 c9                	xor    %ecx,%ecx
  6b1d27:	39 c1                	cmp    %eax,%ecx
  6b1d29:	0f 95 c0             	setne  %al
  6b1d2c:	34 ff                	xor    $0xff,%al
  6b1d2e:	34 ff                	xor    $0xff,%al
  6b1d30:	24 01                	and    $0x1,%al
  6b1d32:	0f b6 c0             	movzbl %al,%eax
  6b1d35:	48 98                	cltq   
  6b1d37:	48 83 f8 00          	cmp    $0x0,%rax
  6b1d3b:	74 24                	je     6b1d61 <http_parser_execute+0x2851>
  6b1d3d:	eb 00                	jmp    6b1d3f <http_parser_execute+0x282f>
  6b1d3f:	8b 45 e4             	mov    -0x1c(%rbp),%eax
  6b1d42:	48 8b 4d f0          	mov    -0x10(%rbp),%rcx
  6b1d46:	89 41 04             	mov    %eax,0x4(%rcx)
  6b1d49:	48 8b 45 f0          	mov    -0x10(%rbp),%rax
  6b1d4d:	8b 48 14             	mov    0x14(%rax),%ecx
  6b1d50:	81 e1 ff ff ff 80    	and    $0x80ffffff,%ecx
  6b1d56:	81 c9 00 00 00 03    	or     $0x3000000,%ecx
  6b1d5c:	89 48 14             	mov    %ecx,0x14(%rax)
  6b1d5f:	eb 00                	jmp    6b1d61 <http_parser_execute+0x2851>
  6b1d61:	48 8b 45 f0          	mov    -0x10(%rbp),%rax
  6b1d65:	8b 00                	mov    (%rax),%eax
  6b1d67:	c1 e8 0a             	shr    $0xa,%eax
  6b1d6a:	83 e0 7f             	and    $0x7f,%eax
  6b1d6d:	89 45 ec             	mov    %eax,-0x14(%rbp)
  6b1d70:	48 8b 45 f0          	mov    -0x10(%rbp),%rax
  6b1d74:	8b 40 14             	mov    0x14(%rax),%eax
  6b1d77:	c1 e8 18             	shr    $0x18,%eax
  6b1d7a:	83 e0 7f             	and    $0x7f,%eax
  6b1d7d:	83 f8 00             	cmp    $0x0,%eax
  6b1d80:	0f 95 c0             	setne  %al
  6b1d83:	34 ff                	xor    $0xff,%al
  6b1d85:	34 ff                	xor    $0xff,%al
  6b1d87:	24 01                	and    $0x1,%al
  6b1d89:	0f b6 c0             	movzbl %al,%eax
  6b1d8c:	48 98                	cltq   
  6b1d8e:	48 83 f8 00          	cmp    $0x0,%rax
  6b1d92:	74 18                	je     6b1dac <http_parser_execute+0x289c>
  6b1d94:	48 8b 45 d8          	mov    -0x28(%rbp),%rax
  6b1d98:	48 8b 4d c0          	mov    -0x40(%rbp),%rcx
  6b1d9c:	48 29 c8             	sub    %rcx,%rax
  6b1d9f:	48 83 c0 01          	add    $0x1,%rax
  6b1da3:	48 89 45 b0          	mov    %rax,-0x50(%rbp)
  6b1da7:	e9 4e 34 00 00       	jmpq   6b51fa <http_parser_execute+0x5cea>
  6b1dac:	eb 00                	jmp    6b1dae <http_parser_execute+0x289e>
  6b1dae:	48 c7 45 80 00 00 00 	movq   $0x0,-0x80(%rbp)
  6b1db5:	00 
  6b1db6:	eb 00                	jmp    6b1db8 <http_parser_execute+0x28a8>
  6b1db8:	e9 48 2c 00 00       	jmpq   6b4a05 <http_parser_execute+0x54f5>
  6b1dbd:	eb 00                	jmp    6b1dbf <http_parser_execute+0x28af>
  6b1dbf:	8b 45 e4             	mov    -0x1c(%rbp),%eax
  6b1dc2:	48 8b 4d f0          	mov    -0x10(%rbp),%rcx
  6b1dc6:	89 41 04             	mov    %eax,0x4(%rcx)
  6b1dc9:	48 8b 45 f0          	mov    -0x10(%rbp),%rax
  6b1dcd:	8b 48 14             	mov    0x14(%rax),%ecx
  6b1dd0:	81 e1 ff ff ff 80    	and    $0x80ffffff,%ecx
  6b1dd6:	81 c9 00 00 00 18    	or     $0x18000000,%ecx
  6b1ddc:	89 48 14             	mov    %ecx,0x14(%rax)
  6b1ddf:	e9 ac 33 00 00       	jmpq   6b5190 <http_parser_execute+0x5c80>
  6b1de4:	0f be 45 ff          	movsbl -0x1(%rbp),%eax
  6b1de8:	83 f8 20             	cmp    $0x20,%eax
  6b1deb:	74 09                	je     6b1df6 <http_parser_execute+0x28e6>
  6b1ded:	0f be 45 ff          	movsbl -0x1(%rbp),%eax
  6b1df1:	83 f8 09             	cmp    $0x9,%eax
  6b1df4:	75 05                	jne    6b1dfb <http_parser_execute+0x28eb>
  6b1df6:	e9 0a 2c 00 00       	jmpq   6b4a05 <http_parser_execute+0x54f5>
  6b1dfb:	0f be 45 ff          	movsbl -0x1(%rbp),%eax
  6b1dff:	83 f8 0d             	cmp    $0xd,%eax
  6b1e02:	75 0c                	jne    6b1e10 <http_parser_execute+0x2900>
  6b1e04:	c7 45 ec 2f 00 00 00 	movl   $0x2f,-0x14(%rbp)
  6b1e0b:	e9 f5 2b 00 00       	jmpq   6b4a05 <http_parser_execute+0x54f5>
  6b1e10:	0f be 45 ff          	movsbl -0x1(%rbp),%eax
  6b1e14:	83 f8 0a             	cmp    $0xa,%eax
  6b1e17:	75 0c                	jne    6b1e25 <http_parser_execute+0x2915>
  6b1e19:	c7 45 ec 30 00 00 00 	movl   $0x30,-0x14(%rbp)
  6b1e20:	e9 e0 2b 00 00       	jmpq   6b4a05 <http_parser_execute+0x54f5>
  6b1e25:	eb 02                	jmp    6b1e29 <http_parser_execute+0x2919>
  6b1e27:	eb 00                	jmp    6b1e29 <http_parser_execute+0x2919>
  6b1e29:	eb 00                	jmp    6b1e2b <http_parser_execute+0x291b>
  6b1e2b:	48 83 7d a8 00       	cmpq   $0x0,-0x58(%rbp)
  6b1e30:	75 08                	jne    6b1e3a <http_parser_execute+0x292a>
  6b1e32:	48 8b 45 d8          	mov    -0x28(%rbp),%rax
  6b1e36:	48 89 45 a8          	mov    %rax,-0x58(%rbp)
  6b1e3a:	eb 00                	jmp    6b1e3c <http_parser_execute+0x292c>
  6b1e3c:	c7 45 ec 32 00 00 00 	movl   $0x32,-0x14(%rbp)
  6b1e43:	48 8b 45 f0          	mov    -0x10(%rbp),%rax
  6b1e47:	8b 08                	mov    (%rax),%ecx
  6b1e49:	81 e1 ff ff ff e0    	and    $0xe0ffffff,%ecx
  6b1e4f:	89 08                	mov    %ecx,(%rax)
  6b1e51:	8a 45 ff             	mov    -0x1(%rbp),%al
  6b1e54:	0c 20                	or     $0x20,%al
  6b1e56:	88 45 eb             	mov    %al,-0x15(%rbp)
  6b1e59:	48 8b 45 f0          	mov    -0x10(%rbp),%rax
  6b1e5d:	8b 00                	mov    (%rax),%eax
  6b1e5f:	c1 e8 11             	shr    $0x11,%eax
  6b1e62:	83 e0 7f             	and    $0x7f,%eax
  6b1e65:	83 c0 f7             	add    $0xfffffff7,%eax
  6b1e68:	89 c1                	mov    %eax,%ecx
  6b1e6a:	83 e9 09             	sub    $0x9,%ecx
  6b1e6d:	0f 87 e8 01 00 00    	ja     6b205b <http_parser_execute+0x2b4b>
  6b1e73:	48 8b 04 c5 a8 0c 20 	mov    0x200ca8(,%rax,8),%rax
  6b1e7a:	00 
  6b1e7b:	ff e0                	jmpq   *%rax
  6b1e7d:	48 8b 45 f0          	mov    -0x10(%rbp),%rax
  6b1e81:	8b 08                	mov    (%rax),%ecx
  6b1e83:	c1 e9 02             	shr    $0x2,%ecx
  6b1e86:	81 e1 ff 00 00 00    	and    $0xff,%ecx
  6b1e8c:	83 c9 20             	or     $0x20,%ecx
  6b1e8f:	8b 10                	mov    (%rax),%edx
  6b1e91:	81 e1 ff 00 00 00    	and    $0xff,%ecx
  6b1e97:	c1 e1 02             	shl    $0x2,%ecx
  6b1e9a:	81 e2 03 fc ff ff    	and    $0xfffffc03,%edx
  6b1ea0:	09 ca                	or     %ecx,%edx
  6b1ea2:	89 10                	mov    %edx,(%rax)
  6b1ea4:	48 8b 45 f0          	mov    -0x10(%rbp),%rax
  6b1ea8:	8b 08                	mov    (%rax),%ecx
  6b1eaa:	81 e1 ff ff 01 ff    	and    $0xff01ffff,%ecx
  6b1eb0:	83 c9 00             	or     $0x0,%ecx
  6b1eb3:	89 08                	mov    %ecx,(%rax)
  6b1eb5:	e9 b2 01 00 00       	jmpq   6b206c <http_parser_execute+0x2b5c>
  6b1eba:	0f be 45 eb          	movsbl -0x15(%rbp),%eax
  6b1ebe:	b9 63 00 00 00       	mov    $0x63,%ecx
  6b1ec3:	39 c1                	cmp    %eax,%ecx
  6b1ec5:	75 16                	jne    6b1edd <http_parser_execute+0x29cd>
  6b1ec7:	48 8b 45 f0          	mov    -0x10(%rbp),%rax
  6b1ecb:	8b 08                	mov    (%rax),%ecx
  6b1ecd:	81 e1 ff ff 01 ff    	and    $0xff01ffff,%ecx
  6b1ed3:	81 c9 00 00 20 00    	or     $0x200000,%ecx
  6b1ed9:	89 08                	mov    %ecx,(%rax)
  6b1edb:	eb 14                	jmp    6b1ef1 <http_parser_execute+0x29e1>
  6b1edd:	48 8b 45 f0          	mov    -0x10(%rbp),%rax
  6b1ee1:	8b 08                	mov    (%rax),%ecx
  6b1ee3:	81 e1 ff ff 01 ff    	and    $0xff01ffff,%ecx
  6b1ee9:	81 c9 00 00 22 00    	or     $0x220000,%ecx
  6b1eef:	89 08                	mov    %ecx,(%rax)
  6b1ef1:	e9 76 01 00 00       	jmpq   6b206c <http_parser_execute+0x2b5c>
  6b1ef6:	e9 71 01 00 00       	jmpq   6b206c <http_parser_execute+0x2b5c>
  6b1efb:	0f be 4d ff          	movsbl -0x1(%rbp),%ecx
  6b1eff:	31 c0                	xor    %eax,%eax
  6b1f01:	83 f9 30             	cmp    $0x30,%ecx
  6b1f04:	7c 0a                	jl     6b1f10 <http_parser_execute+0x2a00>
  6b1f06:	0f be 45 ff          	movsbl -0x1(%rbp),%eax
  6b1f0a:	83 f8 39             	cmp    $0x39,%eax
  6b1f0d:	0f 9e c0             	setle  %al
  6b1f10:	34 ff                	xor    $0xff,%al
  6b1f12:	34 ff                	xor    $0xff,%al
  6b1f14:	34 ff                	xor    $0xff,%al
  6b1f16:	24 01                	and    $0x1,%al
  6b1f18:	0f b6 c0             	movzbl %al,%eax
  6b1f1b:	48 98                	cltq   
  6b1f1d:	48 83 f8 00          	cmp    $0x0,%rax
  6b1f21:	74 27                	je     6b1f4a <http_parser_execute+0x2a3a>
  6b1f23:	eb 00                	jmp    6b1f25 <http_parser_execute+0x2a15>
  6b1f25:	8b 45 e4             	mov    -0x1c(%rbp),%eax
  6b1f28:	48 8b 4d f0          	mov    -0x10(%rbp),%rcx
  6b1f2c:	89 41 04             	mov    %eax,0x4(%rcx)
  6b1f2f:	48 8b 45 f0          	mov    -0x10(%rbp),%rax
  6b1f33:	8b 48 14             	mov    0x14(%rax),%ecx
  6b1f36:	81 e1 ff ff ff 80    	and    $0x80ffffff,%ecx
  6b1f3c:	81 c9 00 00 00 19    	or     $0x19000000,%ecx
  6b1f42:	89 48 14             	mov    %ecx,0x14(%rax)
  6b1f45:	e9 46 32 00 00       	jmpq   6b5190 <http_parser_execute+0x5c80>
  6b1f4a:	48 8b 45 f0          	mov    -0x10(%rbp),%rax
  6b1f4e:	8b 00                	mov    (%rax),%eax
  6b1f50:	c1 e8 02             	shr    $0x2,%eax
  6b1f53:	25 ff 00 00 00       	and    $0xff,%eax
  6b1f58:	25 80 00 00 00       	and    $0x80,%eax
  6b1f5d:	83 f8 00             	cmp    $0x0,%eax
  6b1f60:	74 27                	je     6b1f89 <http_parser_execute+0x2a79>
  6b1f62:	eb 00                	jmp    6b1f64 <http_parser_execute+0x2a54>
  6b1f64:	8b 45 e4             	mov    -0x1c(%rbp),%eax
  6b1f67:	48 8b 4d f0          	mov    -0x10(%rbp),%rcx
  6b1f6b:	89 41 04             	mov    %eax,0x4(%rcx)
  6b1f6e:	48 8b 45 f0          	mov    -0x10(%rbp),%rax
  6b1f72:	8b 48 14             	mov    0x14(%rax),%ecx
  6b1f75:	81 e1 ff ff ff 80    	and    $0x80ffffff,%ecx
  6b1f7b:	81 c9 00 00 00 1a    	or     $0x1a000000,%ecx
  6b1f81:	89 48 14             	mov    %ecx,0x14(%rax)
  6b1f84:	e9 07 32 00 00       	jmpq   6b5190 <http_parser_execute+0x5c80>
  6b1f89:	48 8b 45 f0          	mov    -0x10(%rbp),%rax
  6b1f8d:	8b 08                	mov    (%rax),%ecx
  6b1f8f:	c1 e9 02             	shr    $0x2,%ecx
  6b1f92:	81 e1 ff 00 00 00    	and    $0xff,%ecx
  6b1f98:	81 c9 80 00 00 00    	or     $0x80,%ecx
  6b1f9e:	8b 10                	mov    (%rax),%edx
  6b1fa0:	81 e1 ff 00 00 00    	and    $0xff,%ecx
  6b1fa6:	c1 e1 02             	shl    $0x2,%ecx
  6b1fa9:	81 e2 03 fc ff ff    	and    $0xfffffc03,%edx
  6b1faf:	09 ca                	or     %ecx,%edx
  6b1fb1:	89 10                	mov    %edx,(%rax)
  6b1fb3:	0f be 45 ff          	movsbl -0x1(%rbp),%eax
  6b1fb7:	83 e8 30             	sub    $0x30,%eax
  6b1fba:	48 98                	cltq   
  6b1fbc:	48 8b 4d f0          	mov    -0x10(%rbp),%rcx
  6b1fc0:	48 89 41 08          	mov    %rax,0x8(%rcx)
  6b1fc4:	48 8b 45 f0          	mov    -0x10(%rbp),%rax
  6b1fc8:	8b 08                	mov    (%rax),%ecx
  6b1fca:	81 e1 ff ff 01 ff    	and    $0xff01ffff,%ecx
  6b1fd0:	81 c9 00 00 16 00    	or     $0x160000,%ecx
  6b1fd6:	89 08                	mov    %ecx,(%rax)
  6b1fd8:	e9 8f 00 00 00       	jmpq   6b206c <http_parser_execute+0x2b5c>
  6b1fdd:	e9 8a 00 00 00       	jmpq   6b206c <http_parser_execute+0x2b5c>
  6b1fe2:	0f be 45 eb          	movsbl -0x15(%rbp),%eax
  6b1fe6:	83 f8 6b             	cmp    $0x6b,%eax
  6b1fe9:	75 16                	jne    6b2001 <http_parser_execute+0x2af1>
  6b1feb:	48 8b 45 f0          	mov    -0x10(%rbp),%rax
  6b1fef:	8b 08                	mov    (%rax),%ecx
  6b1ff1:	81 e1 ff ff 01 ff    	and    $0xff01ffff,%ecx
  6b1ff7:	81 c9 00 00 26 00    	or     $0x260000,%ecx
  6b1ffd:	89 08                	mov    %ecx,(%rax)
  6b1fff:	eb 56                	jmp    6b2057 <http_parser_execute+0x2b47>
  6b2001:	0f be 45 eb          	movsbl -0x15(%rbp),%eax
  6b2005:	83 f8 63             	cmp    $0x63,%eax
  6b2008:	75 16                	jne    6b2020 <http_parser_execute+0x2b10>
  6b200a:	48 8b 45 f0          	mov    -0x10(%rbp),%rax
  6b200e:	8b 08                	mov    (%rax),%ecx
  6b2010:	81 e1 ff ff 01 ff    	and    $0xff01ffff,%ecx
  6b2016:	81 c9 00 00 28 00    	or     $0x280000,%ecx
  6b201c:	89 08                	mov    %ecx,(%rax)
  6b201e:	eb 35                	jmp    6b2055 <http_parser_execute+0x2b45>
  6b2020:	0f be 45 eb          	movsbl -0x15(%rbp),%eax
  6b2024:	83 f8 75             	cmp    $0x75,%eax
  6b2027:	75 16                	jne    6b203f <http_parser_execute+0x2b2f>
  6b2029:	48 8b 45 f0          	mov    -0x10(%rbp),%rax
  6b202d:	8b 08                	mov    (%rax),%ecx
  6b202f:	81 e1 ff ff 01 ff    	and    $0xff01ffff,%ecx
  6b2035:	81 c9 00 00 2a 00    	or     $0x2a0000,%ecx
  6b203b:	89 08                	mov    %ecx,(%rax)
  6b203d:	eb 14                	jmp    6b2053 <http_parser_execute+0x2b43>
  6b203f:	48 8b 45 f0          	mov    -0x10(%rbp),%rax
  6b2043:	8b 08                	mov    (%rax),%ecx
  6b2045:	81 e1 ff ff 01 ff    	and    $0xff01ffff,%ecx
  6b204b:	81 c9 00 00 2c 00    	or     $0x2c0000,%ecx
  6b2051:	89 08                	mov    %ecx,(%rax)
  6b2053:	eb 00                	jmp    6b2055 <http_parser_execute+0x2b45>
  6b2055:	eb 00                	jmp    6b2057 <http_parser_execute+0x2b47>
  6b2057:	eb 13                	jmp    6b206c <http_parser_execute+0x2b5c>
  6b2059:	eb 11                	jmp    6b206c <http_parser_execute+0x2b5c>
  6b205b:	48 8b 45 f0          	mov    -0x10(%rbp),%rax
  6b205f:	8b 08                	mov    (%rax),%ecx
  6b2061:	81 e1 ff ff 01 ff    	and    $0xff01ffff,%ecx
  6b2067:	83 c9 00             	or     $0x0,%ecx
  6b206a:	89 08                	mov    %ecx,(%rax)
  6b206c:	e9 94 29 00 00       	jmpq   6b4a05 <http_parser_execute+0x54f5>
  6b2071:	48 8b 45 d8          	mov    -0x28(%rbp),%rax
  6b2075:	48 89 85 40 ff ff ff 	mov    %rax,-0xc0(%rbp)
  6b207c:	48 8b 45 f0          	mov    -0x10(%rbp),%rax
  6b2080:	8b 00                	mov    (%rax),%eax
  6b2082:	c1 e8 11             	shr    $0x11,%eax
  6b2085:	83 e0 7f             	and    $0x7f,%eax
  6b2088:	89 45 d4             	mov    %eax,-0x2c(%rbp)
  6b208b:	48 8b 45 d8          	mov    -0x28(%rbp),%rax
  6b208f:	48 8b 4d c0          	mov    -0x40(%rbp),%rcx
  6b2093:	48 03 4d 88          	add    -0x78(%rbp),%rcx
  6b2097:	48 39 c8             	cmp    %rcx,%rax
  6b209a:	0f 84 f5 0a 00 00    	je     6b2b95 <http_parser_execute+0x3685>
  6b20a0:	48 8b 45 d8          	mov    -0x28(%rbp),%rax
  6b20a4:	8a 00                	mov    (%rax),%al
  6b20a6:	88 45 ff             	mov    %al,-0x1(%rbp)
  6b20a9:	0f be 45 ff          	movsbl -0x1(%rbp),%eax
  6b20ad:	83 f8 0d             	cmp    $0xd,%eax
  6b20b0:	0f 85 7f 01 00 00    	jne    6b2235 <http_parser_execute+0x2d25>
  6b20b6:	c7 45 ec 34 00 00 00 	movl   $0x34,-0x14(%rbp)
  6b20bd:	8b 45 d4             	mov    -0x2c(%rbp),%eax
  6b20c0:	48 8b 4d f0          	mov    -0x10(%rbp),%rcx
  6b20c4:	8b 11                	mov    (%rcx),%edx
  6b20c6:	83 e0 7f             	and    $0x7f,%eax
  6b20c9:	c1 e0 11             	shl    $0x11,%eax
  6b20cc:	81 e2 ff ff 01 ff    	and    $0xff01ffff,%edx
  6b20d2:	09 c2                	or     %eax,%edx
  6b20d4:	89 11                	mov    %edx,(%rcx)
  6b20d6:	48 8b 45 f0          	mov    -0x10(%rbp),%rax
  6b20da:	8b 40 14             	mov    0x14(%rax),%eax
  6b20dd:	c1 e8 18             	shr    $0x18,%eax
  6b20e0:	83 e0 7f             	and    $0x7f,%eax
  6b20e3:	83 f8 00             	cmp    $0x0,%eax
  6b20e6:	75 02                	jne    6b20ea <http_parser_execute+0x2bda>
  6b20e8:	eb 28                	jmp    6b2112 <http_parser_execute+0x2c02>
  6b20ea:	48 bf 00 2e 20 00 00 	movabs $0x202e00,%rdi
  6b20f1:	00 00 00 
  6b20f4:	48 be f5 2b 20 00 00 	movabs $0x202bf5,%rsi
  6b20fb:	00 00 00 
  6b20fe:	48 b9 37 6e 20 00 00 	movabs $0x206e37,%rcx
  6b2105:	00 00 00 
  6b2108:	ba d3 05 00 00       	mov    $0x5d3,%edx
  6b210d:	e8 7e 98 00 00       	callq  6bb990 <__assert_fail@plt>
  6b2112:	48 83 7d a8 00       	cmpq   $0x0,-0x58(%rbp)
  6b2117:	0f 84 11 01 00 00    	je     6b222e <http_parser_execute+0x2d1e>
  6b211d:	48 8b 45 c8          	mov    -0x38(%rbp),%rax
  6b2121:	48 83 78 20 00       	cmpq   $0x0,0x20(%rax)
  6b2126:	0f 95 c0             	setne  %al
  6b2129:	34 ff                	xor    $0xff,%al
  6b212b:	34 ff                	xor    $0xff,%al
  6b212d:	24 01                	and    $0x1,%al
  6b212f:	0f b6 c0             	movzbl %al,%eax
  6b2132:	48 98                	cltq   
  6b2134:	48 83 f8 00          	cmp    $0x0,%rax
  6b2138:	0f 84 e8 00 00 00    	je     6b2226 <http_parser_execute+0x2d16>
  6b213e:	8b 45 ec             	mov    -0x14(%rbp),%eax
  6b2141:	48 8b 4d f0          	mov    -0x10(%rbp),%rcx
  6b2145:	8b 11                	mov    (%rcx),%edx
  6b2147:	83 e0 7f             	and    $0x7f,%eax
  6b214a:	c1 e0 0a             	shl    $0xa,%eax
  6b214d:	81 e2 ff 03 fe ff    	and    $0xfffe03ff,%edx
  6b2153:	09 c2                	or     %eax,%edx
  6b2155:	89 11                	mov    %edx,(%rcx)
  6b2157:	48 8b 45 c8          	mov    -0x38(%rbp),%rax
  6b215b:	48 8b 48 20          	mov    0x20(%rax),%rcx
  6b215f:	48 b8 40 b8 6b 00 00 	movabs $0x6bb840,%rax
  6b2166:	00 00 00 
  6b2169:	48 89 ca             	mov    %rcx,%rdx
  6b216c:	48 29 c2             	sub    %rax,%rdx
  6b216f:	48 89 d0             	mov    %rdx,%rax
  6b2172:	48 c1 e8 03          	shr    $0x3,%rax
  6b2176:	48 c1 e2 3d          	shl    $0x3d,%rdx
  6b217a:	48 09 d0             	or     %rdx,%rax
  6b217d:	48 83 f8 0f          	cmp    $0xf,%rax
  6b2181:	76 05                	jbe    6b2188 <http_parser_execute+0x2c78>
  6b2183:	67 0f b9 40 02       	ud1    0x2(%eax),%eax
  6b2188:	48 8b 7d f0          	mov    -0x10(%rbp),%rdi
  6b218c:	48 8b 75 a8          	mov    -0x58(%rbp),%rsi
  6b2190:	48 8b 55 d8          	mov    -0x28(%rbp),%rdx
  6b2194:	48 8b 45 a8          	mov    -0x58(%rbp),%rax
  6b2198:	48 29 c2             	sub    %rax,%rdx
  6b219b:	ff d1                	callq  *%rcx
  6b219d:	31 c9                	xor    %ecx,%ecx
  6b219f:	39 c1                	cmp    %eax,%ecx
  6b21a1:	0f 95 c0             	setne  %al
  6b21a4:	34 ff                	xor    $0xff,%al
  6b21a6:	34 ff                	xor    $0xff,%al
  6b21a8:	24 01                	and    $0x1,%al
  6b21aa:	0f b6 c0             	movzbl %al,%eax
  6b21ad:	48 98                	cltq   
  6b21af:	48 83 f8 00          	cmp    $0x0,%rax
  6b21b3:	74 24                	je     6b21d9 <http_parser_execute+0x2cc9>
  6b21b5:	eb 00                	jmp    6b21b7 <http_parser_execute+0x2ca7>
  6b21b7:	8b 45 e4             	mov    -0x1c(%rbp),%eax
  6b21ba:	48 8b 4d f0          	mov    -0x10(%rbp),%rcx
  6b21be:	89 41 04             	mov    %eax,0x4(%rcx)
  6b21c1:	48 8b 45 f0          	mov    -0x10(%rbp),%rax
  6b21c5:	8b 48 14             	mov    0x14(%rax),%ecx
  6b21c8:	81 e1 ff ff ff 80    	and    $0x80ffffff,%ecx
  6b21ce:	81 c9 00 00 00 04    	or     $0x4000000,%ecx
  6b21d4:	89 48 14             	mov    %ecx,0x14(%rax)
  6b21d7:	eb 00                	jmp    6b21d9 <http_parser_execute+0x2cc9>
  6b21d9:	48 8b 45 f0          	mov    -0x10(%rbp),%rax
  6b21dd:	8b 00                	mov    (%rax),%eax
  6b21df:	c1 e8 0a             	shr    $0xa,%eax
  6b21e2:	83 e0 7f             	and    $0x7f,%eax
  6b21e5:	89 45 ec             	mov    %eax,-0x14(%rbp)
  6b21e8:	48 8b 45 f0          	mov    -0x10(%rbp),%rax
  6b21ec:	8b 40 14             	mov    0x14(%rax),%eax
  6b21ef:	c1 e8 18             	shr    $0x18,%eax
  6b21f2:	83 e0 7f             	and    $0x7f,%eax
  6b21f5:	83 f8 00             	cmp    $0x0,%eax
  6b21f8:	0f 95 c0             	setne  %al
  6b21fb:	34 ff                	xor    $0xff,%al
  6b21fd:	34 ff                	xor    $0xff,%al
  6b21ff:	24 01                	and    $0x1,%al
  6b2201:	0f b6 c0             	movzbl %al,%eax
  6b2204:	48 98                	cltq   
  6b2206:	48 83 f8 00          	cmp    $0x0,%rax
  6b220a:	74 18                	je     6b2224 <http_parser_execute+0x2d14>
  6b220c:	48 8b 45 d8          	mov    -0x28(%rbp),%rax
  6b2210:	48 8b 4d c0          	mov    -0x40(%rbp),%rcx
  6b2214:	48 29 c8             	sub    %rcx,%rax
  6b2217:	48 83 c0 01          	add    $0x1,%rax
  6b221b:	48 89 45 b0          	mov    %rax,-0x50(%rbp)
  6b221f:	e9 d6 2f 00 00       	jmpq   6b51fa <http_parser_execute+0x5cea>
  6b2224:	eb 00                	jmp    6b2226 <http_parser_execute+0x2d16>
  6b2226:	48 c7 45 a8 00 00 00 	movq   $0x0,-0x58(%rbp)
  6b222d:	00 
  6b222e:	eb 00                	jmp    6b2230 <http_parser_execute+0x2d20>
  6b2230:	e9 62 09 00 00       	jmpq   6b2b97 <http_parser_execute+0x3687>
  6b2235:	0f be 45 ff          	movsbl -0x1(%rbp),%eax
  6b2239:	83 f8 0a             	cmp    $0xa,%eax
  6b223c:	0f 85 d6 01 00 00    	jne    6b2418 <http_parser_execute+0x2f08>
  6b2242:	c7 45 ec 34 00 00 00 	movl   $0x34,-0x14(%rbp)
  6b2249:	48 8b 45 d8          	mov    -0x28(%rbp),%rax
  6b224d:	48 8b 8d 40 ff ff ff 	mov    -0xc0(%rbp),%rcx
  6b2254:	48 29 c8             	sub    %rcx,%rax
  6b2257:	03 45 e4             	add    -0x1c(%rbp),%eax
  6b225a:	89 45 e4             	mov    %eax,-0x1c(%rbp)
  6b225d:	8b 45 e4             	mov    -0x1c(%rbp),%eax
  6b2260:	3b 04 25 70 dc 6b 00 	cmp    0x6bdc70,%eax
  6b2267:	0f 97 c0             	seta   %al
  6b226a:	34 ff                	xor    $0xff,%al
  6b226c:	34 ff                	xor    $0xff,%al
  6b226e:	24 01                	and    $0x1,%al
  6b2270:	0f b6 c0             	movzbl %al,%eax
  6b2273:	48 98                	cltq   
  6b2275:	48 83 f8 00          	cmp    $0x0,%rax
  6b2279:	74 27                	je     6b22a2 <http_parser_execute+0x2d92>
  6b227b:	eb 00                	jmp    6b227d <http_parser_execute+0x2d6d>
  6b227d:	8b 45 e4             	mov    -0x1c(%rbp),%eax
  6b2280:	48 8b 4d f0          	mov    -0x10(%rbp),%rcx
  6b2284:	89 41 04             	mov    %eax,0x4(%rcx)
  6b2287:	48 8b 45 f0          	mov    -0x10(%rbp),%rax
  6b228b:	8b 48 14             	mov    0x14(%rax),%ecx
  6b228e:	81 e1 ff ff ff 80    	and    $0x80ffffff,%ecx
  6b2294:	81 c9 00 00 00 0c    	or     $0xc000000,%ecx
  6b229a:	89 48 14             	mov    %ecx,0x14(%rax)
  6b229d:	e9 ee 2e 00 00       	jmpq   6b5190 <http_parser_execute+0x5c80>
  6b22a2:	eb 00                	jmp    6b22a4 <http_parser_execute+0x2d94>
  6b22a4:	8b 45 d4             	mov    -0x2c(%rbp),%eax
  6b22a7:	48 8b 4d f0          	mov    -0x10(%rbp),%rcx
  6b22ab:	8b 11                	mov    (%rcx),%edx
  6b22ad:	83 e0 7f             	and    $0x7f,%eax
  6b22b0:	c1 e0 11             	shl    $0x11,%eax
  6b22b3:	81 e2 ff ff 01 ff    	and    $0xff01ffff,%edx
  6b22b9:	09 c2                	or     %eax,%edx
  6b22bb:	89 11                	mov    %edx,(%rcx)
  6b22bd:	48 8b 45 f0          	mov    -0x10(%rbp),%rax
  6b22c1:	8b 40 14             	mov    0x14(%rax),%eax
  6b22c4:	c1 e8 18             	shr    $0x18,%eax
  6b22c7:	83 e0 7f             	and    $0x7f,%eax
  6b22ca:	83 f8 00             	cmp    $0x0,%eax
  6b22cd:	75 02                	jne    6b22d1 <http_parser_execute+0x2dc1>
  6b22cf:	eb 28                	jmp    6b22f9 <http_parser_execute+0x2de9>
  6b22d1:	48 bf 00 2e 20 00 00 	movabs $0x202e00,%rdi
  6b22d8:	00 00 00 
  6b22db:	48 be f5 2b 20 00 00 	movabs $0x202bf5,%rsi
  6b22e2:	00 00 00 
  6b22e5:	48 b9 37 6e 20 00 00 	movabs $0x206e37,%rcx
  6b22ec:	00 00 00 
  6b22ef:	ba db 05 00 00       	mov    $0x5db,%edx
  6b22f4:	e8 97 96 00 00       	callq  6bb990 <__assert_fail@plt>
  6b22f9:	48 83 7d a8 00       	cmpq   $0x0,-0x58(%rbp)
  6b22fe:	0f 84 0d 01 00 00    	je     6b2411 <http_parser_execute+0x2f01>
  6b2304:	48 8b 45 c8          	mov    -0x38(%rbp),%rax
  6b2308:	48 83 78 20 00       	cmpq   $0x0,0x20(%rax)
  6b230d:	0f 95 c0             	setne  %al
  6b2310:	34 ff                	xor    $0xff,%al
  6b2312:	34 ff                	xor    $0xff,%al
  6b2314:	24 01                	and    $0x1,%al
  6b2316:	0f b6 c0             	movzbl %al,%eax
  6b2319:	48 98                	cltq   
  6b231b:	48 83 f8 00          	cmp    $0x0,%rax
  6b231f:	0f 84 e4 00 00 00    	je     6b2409 <http_parser_execute+0x2ef9>
  6b2325:	8b 45 ec             	mov    -0x14(%rbp),%eax
  6b2328:	48 8b 4d f0          	mov    -0x10(%rbp),%rcx
  6b232c:	8b 11                	mov    (%rcx),%edx
  6b232e:	83 e0 7f             	and    $0x7f,%eax
  6b2331:	c1 e0 0a             	shl    $0xa,%eax
  6b2334:	81 e2 ff 03 fe ff    	and    $0xfffe03ff,%edx
  6b233a:	09 c2                	or     %eax,%edx
  6b233c:	89 11                	mov    %edx,(%rcx)
  6b233e:	48 8b 45 c8          	mov    -0x38(%rbp),%rax
  6b2342:	48 8b 48 20          	mov    0x20(%rax),%rcx
  6b2346:	48 b8 40 b8 6b 00 00 	movabs $0x6bb840,%rax
  6b234d:	00 00 00 
  6b2350:	48 89 ca             	mov    %rcx,%rdx
  6b2353:	48 29 c2             	sub    %rax,%rdx
  6b2356:	48 89 d0             	mov    %rdx,%rax
  6b2359:	48 c1 e8 03          	shr    $0x3,%rax
  6b235d:	48 c1 e2 3d          	shl    $0x3d,%rdx
  6b2361:	48 09 d0             	or     %rdx,%rax
  6b2364:	48 83 f8 0f          	cmp    $0xf,%rax
  6b2368:	76 05                	jbe    6b236f <http_parser_execute+0x2e5f>
  6b236a:	67 0f b9 40 02       	ud1    0x2(%eax),%eax
  6b236f:	48 8b 7d f0          	mov    -0x10(%rbp),%rdi
  6b2373:	48 8b 75 a8          	mov    -0x58(%rbp),%rsi
  6b2377:	48 8b 55 d8          	mov    -0x28(%rbp),%rdx
  6b237b:	48 8b 45 a8          	mov    -0x58(%rbp),%rax
  6b237f:	48 29 c2             	sub    %rax,%rdx
  6b2382:	ff d1                	callq  *%rcx
  6b2384:	31 c9                	xor    %ecx,%ecx
  6b2386:	39 c1                	cmp    %eax,%ecx
  6b2388:	0f 95 c0             	setne  %al
  6b238b:	34 ff                	xor    $0xff,%al
  6b238d:	34 ff                	xor    $0xff,%al
  6b238f:	24 01                	and    $0x1,%al
  6b2391:	0f b6 c0             	movzbl %al,%eax
  6b2394:	48 98                	cltq   
  6b2396:	48 83 f8 00          	cmp    $0x0,%rax
  6b239a:	74 24                	je     6b23c0 <http_parser_execute+0x2eb0>
  6b239c:	eb 00                	jmp    6b239e <http_parser_execute+0x2e8e>
  6b239e:	8b 45 e4             	mov    -0x1c(%rbp),%eax
  6b23a1:	48 8b 4d f0          	mov    -0x10(%rbp),%rcx
  6b23a5:	89 41 04             	mov    %eax,0x4(%rcx)
  6b23a8:	48 8b 45 f0          	mov    -0x10(%rbp),%rax
  6b23ac:	8b 48 14             	mov    0x14(%rax),%ecx
  6b23af:	81 e1 ff ff ff 80    	and    $0x80ffffff,%ecx
  6b23b5:	81 c9 00 00 00 04    	or     $0x4000000,%ecx
  6b23bb:	89 48 14             	mov    %ecx,0x14(%rax)
  6b23be:	eb 00                	jmp    6b23c0 <http_parser_execute+0x2eb0>
  6b23c0:	48 8b 45 f0          	mov    -0x10(%rbp),%rax
  6b23c4:	8b 00                	mov    (%rax),%eax
  6b23c6:	c1 e8 0a             	shr    $0xa,%eax
  6b23c9:	83 e0 7f             	and    $0x7f,%eax
  6b23cc:	89 45 ec             	mov    %eax,-0x14(%rbp)
  6b23cf:	48 8b 45 f0          	mov    -0x10(%rbp),%rax
  6b23d3:	8b 40 14             	mov    0x14(%rax),%eax
  6b23d6:	c1 e8 18             	shr    $0x18,%eax
  6b23d9:	83 e0 7f             	and    $0x7f,%eax
  6b23dc:	83 f8 00             	cmp    $0x0,%eax
  6b23df:	0f 95 c0             	setne  %al
  6b23e2:	34 ff                	xor    $0xff,%al
  6b23e4:	34 ff                	xor    $0xff,%al
  6b23e6:	24 01                	and    $0x1,%al
  6b23e8:	0f b6 c0             	movzbl %al,%eax
  6b23eb:	48 98                	cltq   
  6b23ed:	48 83 f8 00          	cmp    $0x0,%rax
  6b23f1:	74 14                	je     6b2407 <http_parser_execute+0x2ef7>
  6b23f3:	48 8b 45 d8          	mov    -0x28(%rbp),%rax
  6b23f7:	48 8b 4d c0          	mov    -0x40(%rbp),%rcx
  6b23fb:	48 29 c8             	sub    %rcx,%rax
  6b23fe:	48 89 45 b0          	mov    %rax,-0x50(%rbp)
  6b2402:	e9 f3 2d 00 00       	jmpq   6b51fa <http_parser_execute+0x5cea>
  6b2407:	eb 00                	jmp    6b2409 <http_parser_execute+0x2ef9>
  6b2409:	48 c7 45 a8 00 00 00 	movq   $0x0,-0x58(%rbp)
  6b2410:	00 
  6b2411:	eb 00                	jmp    6b2413 <http_parser_execute+0x2f03>
  6b2413:	e9 3b d6 ff ff       	jmpq   6afa53 <http_parser_execute+0x543>
  6b2418:	83 bd 7c ff ff ff 00 	cmpl   $0x0,-0x84(%rbp)
  6b241f:	75 54                	jne    6b2475 <http_parser_execute+0x2f65>
  6b2421:	0f be 45 ff          	movsbl -0x1(%rbp),%eax
  6b2425:	83 f8 0d             	cmp    $0xd,%eax
  6b2428:	74 4b                	je     6b2475 <http_parser_execute+0x2f65>
  6b242a:	0f be 45 ff          	movsbl -0x1(%rbp),%eax
  6b242e:	83 f8 0a             	cmp    $0xa,%eax
  6b2431:	74 42                	je     6b2475 <http_parser_execute+0x2f65>
  6b2433:	0f be 45 ff          	movsbl -0x1(%rbp),%eax
  6b2437:	83 f8 09             	cmp    $0x9,%eax
  6b243a:	74 39                	je     6b2475 <http_parser_execute+0x2f65>
  6b243c:	0f b6 45 ff          	movzbl -0x1(%rbp),%eax
  6b2440:	83 f8 1f             	cmp    $0x1f,%eax
  6b2443:	7e 09                	jle    6b244e <http_parser_execute+0x2f3e>
  6b2445:	0f be 45 ff          	movsbl -0x1(%rbp),%eax
  6b2449:	83 f8 7f             	cmp    $0x7f,%eax
  6b244c:	75 27                	jne    6b2475 <http_parser_execute+0x2f65>
  6b244e:	eb 00                	jmp    6b2450 <http_parser_execute+0x2f40>
  6b2450:	8b 45 e4             	mov    -0x1c(%rbp),%eax
  6b2453:	48 8b 4d f0          	mov    -0x10(%rbp),%rcx
  6b2457:	89 41 04             	mov    %eax,0x4(%rcx)
  6b245a:	48 8b 45 f0          	mov    -0x10(%rbp),%rax
  6b245e:	8b 48 14             	mov    0x14(%rax),%ecx
  6b2461:	81 e1 ff ff ff 80    	and    $0x80ffffff,%ecx
  6b2467:	81 c9 00 00 00 18    	or     $0x18000000,%ecx
  6b246d:	89 48 14             	mov    %ecx,0x14(%rax)
  6b2470:	e9 1b 2d 00 00       	jmpq   6b5190 <http_parser_execute+0x5c80>
  6b2475:	8a 45 ff             	mov    -0x1(%rbp),%al
  6b2478:	0c 20                	or     $0x20,%al
  6b247a:	88 45 eb             	mov    %al,-0x15(%rbp)
  6b247d:	8b 45 d4             	mov    -0x2c(%rbp),%eax
  6b2480:	48 89 c1             	mov    %rax,%rcx
  6b2483:	48 83 e9 1a          	sub    $0x1a,%rcx
  6b2487:	0f 87 e7 06 00 00    	ja     6b2b74 <http_parser_execute+0x3664>
  6b248d:	48 8b 04 c5 d0 0b 20 	mov    0x200bd0(,%rax,8),%rax
  6b2494:	00 
  6b2495:	ff e0                	jmpq   *%rax
  6b2497:	48 8b 45 c0          	mov    -0x40(%rbp),%rax
  6b249b:	48 03 45 88          	add    -0x78(%rbp),%rax
  6b249f:	48 8b 4d d8          	mov    -0x28(%rbp),%rcx
  6b24a3:	48 29 c8             	sub    %rcx,%rax
  6b24a6:	48 89 85 48 ff ff ff 	mov    %rax,-0xb8(%rbp)
  6b24ad:	48 8b 45 d8          	mov    -0x28(%rbp),%rax
  6b24b1:	48 8b 8d 48 ff ff ff 	mov    -0xb8(%rbp),%rcx
  6b24b8:	8b 14 25 70 dc 6b 00 	mov    0x6bdc70,%edx
  6b24bf:	48 39 d1             	cmp    %rdx,%rcx
  6b24c2:	73 09                	jae    6b24cd <http_parser_execute+0x2fbd>
  6b24c4:	48 8b 8d 48 ff ff ff 	mov    -0xb8(%rbp),%rcx
  6b24cb:	eb 07                	jmp    6b24d4 <http_parser_execute+0x2fc4>
  6b24cd:	8b 0c 25 70 dc 6b 00 	mov    0x6bdc70,%ecx
  6b24d4:	48 01 c8             	add    %rcx,%rax
  6b24d7:	48 89 85 20 ff ff ff 	mov    %rax,-0xe0(%rbp)
  6b24de:	48 8b 45 d8          	mov    -0x28(%rbp),%rax
  6b24e2:	48 3b 85 20 ff ff ff 	cmp    -0xe0(%rbp),%rax
  6b24e9:	0f 84 99 00 00 00    	je     6b2588 <http_parser_execute+0x3078>
  6b24ef:	48 8b 45 d8          	mov    -0x28(%rbp),%rax
  6b24f3:	8a 00                	mov    (%rax),%al
  6b24f5:	88 45 ff             	mov    %al,-0x1(%rbp)
  6b24f8:	0f be 45 ff          	movsbl -0x1(%rbp),%eax
  6b24fc:	83 f8 0d             	cmp    $0xd,%eax
  6b24ff:	74 09                	je     6b250a <http_parser_execute+0x2ffa>
  6b2501:	0f be 45 ff          	movsbl -0x1(%rbp),%eax
  6b2505:	83 f8 0a             	cmp    $0xa,%eax
  6b2508:	75 0e                	jne    6b2518 <http_parser_execute+0x3008>
  6b250a:	48 8b 45 d8          	mov    -0x28(%rbp),%rax
  6b250e:	48 83 c0 ff          	add    $0xffffffffffffffff,%rax
  6b2512:	48 89 45 d8          	mov    %rax,-0x28(%rbp)
  6b2516:	eb 72                	jmp    6b258a <http_parser_execute+0x307a>
  6b2518:	83 bd 7c ff ff ff 00 	cmpl   $0x0,-0x84(%rbp)
  6b251f:	75 54                	jne    6b2575 <http_parser_execute+0x3065>
  6b2521:	0f be 45 ff          	movsbl -0x1(%rbp),%eax
  6b2525:	83 f8 0d             	cmp    $0xd,%eax
  6b2528:	74 4b                	je     6b2575 <http_parser_execute+0x3065>
  6b252a:	0f be 45 ff          	movsbl -0x1(%rbp),%eax
  6b252e:	83 f8 0a             	cmp    $0xa,%eax
  6b2531:	74 42                	je     6b2575 <http_parser_execute+0x3065>
  6b2533:	0f be 45 ff          	movsbl -0x1(%rbp),%eax
  6b2537:	83 f8 09             	cmp    $0x9,%eax
  6b253a:	74 39                	je     6b2575 <http_parser_execute+0x3065>
  6b253c:	0f b6 45 ff          	movzbl -0x1(%rbp),%eax
  6b2540:	83 f8 1f             	cmp    $0x1f,%eax
  6b2543:	7e 09                	jle    6b254e <http_parser_execute+0x303e>
  6b2545:	0f be 45 ff          	movsbl -0x1(%rbp),%eax
  6b2549:	83 f8 7f             	cmp    $0x7f,%eax
  6b254c:	75 27                	jne    6b2575 <http_parser_execute+0x3065>
  6b254e:	eb 00                	jmp    6b2550 <http_parser_execute+0x3040>
  6b2550:	8b 45 e4             	mov    -0x1c(%rbp),%eax
  6b2553:	48 8b 4d f0          	mov    -0x10(%rbp),%rcx
  6b2557:	89 41 04             	mov    %eax,0x4(%rcx)
  6b255a:	48 8b 45 f0          	mov    -0x10(%rbp),%rax
  6b255e:	8b 48 14             	mov    0x14(%rax),%ecx
  6b2561:	81 e1 ff ff ff 80    	and    $0x80ffffff,%ecx
  6b2567:	81 c9 00 00 00 18    	or     $0x18000000,%ecx
  6b256d:	89 48 14             	mov    %ecx,0x14(%rax)
  6b2570:	e9 1b 2c 00 00       	jmpq   6b5190 <http_parser_execute+0x5c80>
  6b2575:	eb 00                	jmp    6b2577 <http_parser_execute+0x3067>
  6b2577:	48 8b 45 d8          	mov    -0x28(%rbp),%rax
  6b257b:	48 83 c0 01          	add    $0x1,%rax
  6b257f:	48 89 45 d8          	mov    %rax,-0x28(%rbp)
  6b2583:	e9 56 ff ff ff       	jmpq   6b24de <http_parser_execute+0x2fce>
  6b2588:	eb 00                	jmp    6b258a <http_parser_execute+0x307a>
  6b258a:	48 8b 45 d8          	mov    -0x28(%rbp),%rax
  6b258e:	48 8b 4d c0          	mov    -0x40(%rbp),%rcx
  6b2592:	48 03 4d 88          	add    -0x78(%rbp),%rcx
  6b2596:	48 39 c8             	cmp    %rcx,%rax
  6b2599:	75 0c                	jne    6b25a7 <http_parser_execute+0x3097>
  6b259b:	48 8b 45 d8          	mov    -0x28(%rbp),%rax
  6b259f:	48 83 c0 ff          	add    $0xffffffffffffffff,%rax
  6b25a3:	48 89 45 d8          	mov    %rax,-0x28(%rbp)
  6b25a7:	e9 d6 05 00 00       	jmpq   6b2b82 <http_parser_execute+0x3672>
  6b25ac:	48 bf f8 7e 20 00 00 	movabs $0x207ef8,%rdi
  6b25b3:	00 00 00 
  6b25b6:	48 be f5 2b 20 00 00 	movabs $0x202bf5,%rsi
  6b25bd:	00 00 00 
  6b25c0:	48 b9 37 6e 20 00 00 	movabs $0x206e37,%rcx
  6b25c7:	00 00 00 
  6b25ca:	ba fe 05 00 00       	mov    $0x5fe,%edx
  6b25cf:	e8 bc 93 00 00       	callq  6bb990 <__assert_fail@plt>
  6b25d4:	0f be 45 ff          	movsbl -0x1(%rbp),%eax
  6b25d8:	83 f8 20             	cmp    $0x20,%eax
  6b25db:	75 05                	jne    6b25e2 <http_parser_execute+0x30d2>
  6b25dd:	e9 a0 05 00 00       	jmpq   6b2b82 <http_parser_execute+0x3672>
  6b25e2:	c7 45 d4 0b 00 00 00 	movl   $0xb,-0x2c(%rbp)
  6b25e9:	0f be 45 ff          	movsbl -0x1(%rbp),%eax
  6b25ed:	83 f8 20             	cmp    $0x20,%eax
  6b25f0:	75 0c                	jne    6b25fe <http_parser_execute+0x30ee>
  6b25f2:	c7 45 d4 0c 00 00 00 	movl   $0xc,-0x2c(%rbp)
  6b25f9:	e9 84 05 00 00       	jmpq   6b2b82 <http_parser_execute+0x3672>
  6b25fe:	0f be 4d ff          	movsbl -0x1(%rbp),%ecx
  6b2602:	31 c0                	xor    %eax,%eax
  6b2604:	83 f9 30             	cmp    $0x30,%ecx
  6b2607:	7c 0a                	jl     6b2613 <http_parser_execute+0x3103>
  6b2609:	0f be 45 ff          	movsbl -0x1(%rbp),%eax
  6b260d:	83 f8 39             	cmp    $0x39,%eax
  6b2610:	0f 9e c0             	setle  %al
  6b2613:	34 ff                	xor    $0xff,%al
  6b2615:	34 ff                	xor    $0xff,%al
  6b2617:	34 ff                	xor    $0xff,%al
  6b2619:	24 01                	and    $0x1,%al
  6b261b:	0f b6 c0             	movzbl %al,%eax
  6b261e:	48 98                	cltq   
  6b2620:	48 83 f8 00          	cmp    $0x0,%rax
  6b2624:	74 40                	je     6b2666 <http_parser_execute+0x3156>
  6b2626:	eb 00                	jmp    6b2628 <http_parser_execute+0x3118>
  6b2628:	8b 45 e4             	mov    -0x1c(%rbp),%eax
  6b262b:	48 8b 4d f0          	mov    -0x10(%rbp),%rcx
  6b262f:	89 41 04             	mov    %eax,0x4(%rcx)
  6b2632:	48 8b 45 f0          	mov    -0x10(%rbp),%rax
  6b2636:	8b 48 14             	mov    0x14(%rax),%ecx
  6b2639:	81 e1 ff ff ff 80    	and    $0x80ffffff,%ecx
  6b263f:	81 c9 00 00 00 19    	or     $0x19000000,%ecx
  6b2645:	89 48 14             	mov    %ecx,0x14(%rax)
  6b2648:	8b 45 d4             	mov    -0x2c(%rbp),%eax
  6b264b:	48 8b 4d f0          	mov    -0x10(%rbp),%rcx
  6b264f:	8b 11                	mov    (%rcx),%edx
  6b2651:	83 e0 7f             	and    $0x7f,%eax
  6b2654:	c1 e0 11             	shl    $0x11,%eax
  6b2657:	81 e2 ff ff 01 ff    	and    $0xff01ffff,%edx
  6b265d:	09 c2                	or     %eax,%edx
  6b265f:	89 11                	mov    %edx,(%rcx)
  6b2661:	e9 2a 2b 00 00       	jmpq   6b5190 <http_parser_execute+0x5c80>
  6b2666:	48 8b 45 f0          	mov    -0x10(%rbp),%rax
  6b266a:	48 8b 40 08          	mov    0x8(%rax),%rax
  6b266e:	48 89 85 68 ff ff ff 	mov    %rax,-0x98(%rbp)
  6b2675:	48 6b 85 68 ff ff ff 	imul   $0xa,-0x98(%rbp),%rax
  6b267c:	0a 
  6b267d:	48 89 85 68 ff ff ff 	mov    %rax,-0x98(%rbp)
  6b2684:	0f be 45 ff          	movsbl -0x1(%rbp),%eax
  6b2688:	83 e8 30             	sub    $0x30,%eax
  6b268b:	48 98                	cltq   
  6b268d:	48 03 85 68 ff ff ff 	add    -0x98(%rbp),%rax
  6b2694:	48 89 85 68 ff ff ff 	mov    %rax,-0x98(%rbp)
  6b269b:	48 8b 45 f0          	mov    -0x10(%rbp),%rax
  6b269f:	48 b9 98 99 99 99 99 	movabs $0x1999999999999998,%rcx
  6b26a6:	99 99 19 
  6b26a9:	48 3b 48 08          	cmp    0x8(%rax),%rcx
  6b26ad:	0f 92 c0             	setb   %al
  6b26b0:	34 ff                	xor    $0xff,%al
  6b26b2:	34 ff                	xor    $0xff,%al
  6b26b4:	24 01                	and    $0x1,%al
  6b26b6:	0f b6 c0             	movzbl %al,%eax
  6b26b9:	48 98                	cltq   
  6b26bb:	48 83 f8 00          	cmp    $0x0,%rax
  6b26bf:	74 40                	je     6b2701 <http_parser_execute+0x31f1>
  6b26c1:	eb 00                	jmp    6b26c3 <http_parser_execute+0x31b3>
  6b26c3:	8b 45 e4             	mov    -0x1c(%rbp),%eax
  6b26c6:	48 8b 4d f0          	mov    -0x10(%rbp),%rcx
  6b26ca:	89 41 04             	mov    %eax,0x4(%rcx)
  6b26cd:	48 8b 45 f0          	mov    -0x10(%rbp),%rax
  6b26d1:	8b 48 14             	mov    0x14(%rax),%ecx
  6b26d4:	81 e1 ff ff ff 80    	and    $0x80ffffff,%ecx
  6b26da:	81 c9 00 00 00 19    	or     $0x19000000,%ecx
  6b26e0:	89 48 14             	mov    %ecx,0x14(%rax)
  6b26e3:	8b 45 d4             	mov    -0x2c(%rbp),%eax
  6b26e6:	48 8b 4d f0          	mov    -0x10(%rbp),%rcx
  6b26ea:	8b 11                	mov    (%rcx),%edx
  6b26ec:	83 e0 7f             	and    $0x7f,%eax
  6b26ef:	c1 e0 11             	shl    $0x11,%eax
  6b26f2:	81 e2 ff ff 01 ff    	and    $0xff01ffff,%edx
  6b26f8:	09 c2                	or     %eax,%edx
  6b26fa:	89 11                	mov    %edx,(%rcx)
  6b26fc:	e9 8f 2a 00 00       	jmpq   6b5190 <http_parser_execute+0x5c80>
  6b2701:	48 8b 85 68 ff ff ff 	mov    -0x98(%rbp),%rax
  6b2708:	48 8b 4d f0          	mov    -0x10(%rbp),%rcx
  6b270c:	48 89 41 08          	mov    %rax,0x8(%rcx)
  6b2710:	e9 6d 04 00 00       	jmpq   6b2b82 <http_parser_execute+0x3672>
  6b2715:	0f be 45 ff          	movsbl -0x1(%rbp),%eax
  6b2719:	83 f8 20             	cmp    $0x20,%eax
  6b271c:	75 05                	jne    6b2723 <http_parser_execute+0x3213>
  6b271e:	e9 5f 04 00 00       	jmpq   6b2b82 <http_parser_execute+0x3672>
  6b2723:	eb 00                	jmp    6b2725 <http_parser_execute+0x3215>
  6b2725:	8b 45 e4             	mov    -0x1c(%rbp),%eax
  6b2728:	48 8b 4d f0          	mov    -0x10(%rbp),%rcx
  6b272c:	89 41 04             	mov    %eax,0x4(%rcx)
  6b272f:	48 8b 45 f0          	mov    -0x10(%rbp),%rax
  6b2733:	8b 48 14             	mov    0x14(%rax),%ecx
  6b2736:	81 e1 ff ff ff 80    	and    $0x80ffffff,%ecx
  6b273c:	81 c9 00 00 00 19    	or     $0x19000000,%ecx
  6b2742:	89 48 14             	mov    %ecx,0x14(%rax)
  6b2745:	8b 45 d4             	mov    -0x2c(%rbp),%eax
  6b2748:	48 8b 4d f0          	mov    -0x10(%rbp),%rcx
  6b274c:	8b 11                	mov    (%rcx),%edx
  6b274e:	83 e0 7f             	and    $0x7f,%eax
  6b2751:	c1 e0 11             	shl    $0x11,%eax
  6b2754:	81 e2 ff ff 01 ff    	and    $0xff01ffff,%edx
  6b275a:	09 c2                	or     %eax,%edx
  6b275c:	89 11                	mov    %edx,(%rcx)
  6b275e:	e9 2d 2a 00 00       	jmpq   6b5190 <http_parser_execute+0x5c80>
  6b2763:	0f be 45 eb          	movsbl -0x15(%rbp),%eax
  6b2767:	b9 63 00 00 00       	mov    $0x63,%ecx
  6b276c:	39 c1                	cmp    %eax,%ecx
  6b276e:	75 09                	jne    6b2779 <http_parser_execute+0x3269>
  6b2770:	c7 45 d4 10 00 00 00 	movl   $0x10,-0x2c(%rbp)
  6b2777:	eb 4a                	jmp    6b27c3 <http_parser_execute+0x32b3>
  6b2779:	0f be 45 eb          	movsbl -0x15(%rbp),%eax
  6b277d:	83 f8 20             	cmp    $0x20,%eax
  6b2780:	75 08                	jne    6b278a <http_parser_execute+0x327a>
  6b2782:	31 c0                	xor    %eax,%eax
  6b2784:	a8 01                	test   $0x1,%al
  6b2786:	75 13                	jne    6b279b <http_parser_execute+0x328b>
  6b2788:	eb 1a                	jmp    6b27a4 <http_parser_execute+0x3294>
  6b278a:	0f b6 45 eb          	movzbl -0x15(%rbp),%eax
  6b278e:	0f be 04 05 a0 83 20 	movsbl 0x2083a0(,%rax,1),%eax
  6b2795:	00 
  6b2796:	83 f8 00             	cmp    $0x0,%eax
  6b2799:	74 09                	je     6b27a4 <http_parser_execute+0x3294>
  6b279b:	c7 45 d4 11 00 00 00 	movl   $0x11,-0x2c(%rbp)
  6b27a2:	eb 1d                	jmp    6b27c1 <http_parser_execute+0x32b1>
  6b27a4:	0f be 45 eb          	movsbl -0x15(%rbp),%eax
  6b27a8:	83 f8 20             	cmp    $0x20,%eax
  6b27ab:	74 09                	je     6b27b6 <http_parser_execute+0x32a6>
  6b27ad:	0f be 45 eb          	movsbl -0x15(%rbp),%eax
  6b27b1:	83 f8 09             	cmp    $0x9,%eax
  6b27b4:	75 02                	jne    6b27b8 <http_parser_execute+0x32a8>
  6b27b6:	eb 07                	jmp    6b27bf <http_parser_execute+0x32af>
  6b27b8:	c7 45 d4 00 00 00 00 	movl   $0x0,-0x2c(%rbp)
  6b27bf:	eb 00                	jmp    6b27c1 <http_parser_execute+0x32b1>
  6b27c1:	eb 00                	jmp    6b27c3 <http_parser_execute+0x32b3>
  6b27c3:	e9 ba 03 00 00       	jmpq   6b2b82 <http_parser_execute+0x3672>
  6b27c8:	48 8b 45 f0          	mov    -0x10(%rbp),%rax
  6b27cc:	8b 08                	mov    (%rax),%ecx
  6b27ce:	c1 e9 18             	shr    $0x18,%ecx
  6b27d1:	83 e1 1f             	and    $0x1f,%ecx
  6b27d4:	83 c1 01             	add    $0x1,%ecx
  6b27d7:	8b 10                	mov    (%rax),%edx
  6b27d9:	83 e1 1f             	and    $0x1f,%ecx
  6b27dc:	c1 e1 18             	shl    $0x18,%ecx
  6b27df:	81 e2 ff ff ff e0    	and    $0xe0ffffff,%edx
  6b27e5:	09 ca                	or     %ecx,%edx
  6b27e7:	89 10                	mov    %edx,(%rax)
  6b27e9:	48 8b 45 f0          	mov    -0x10(%rbp),%rax
  6b27ed:	8b 00                	mov    (%rax),%eax
  6b27ef:	c1 e8 18             	shr    $0x18,%eax
  6b27f2:	83 e0 1f             	and    $0x1f,%eax
  6b27f5:	89 c0                	mov    %eax,%eax
  6b27f7:	48 83 f8 07          	cmp    $0x7,%rax
  6b27fb:	77 1e                	ja     6b281b <http_parser_execute+0x330b>
  6b27fd:	0f be 45 eb          	movsbl -0x15(%rbp),%eax
  6b2801:	48 8b 4d f0          	mov    -0x10(%rbp),%rcx
  6b2805:	8b 09                	mov    (%rcx),%ecx
  6b2807:	c1 e9 18             	shr    $0x18,%ecx
  6b280a:	83 e1 1f             	and    $0x1f,%ecx
  6b280d:	89 c9                	mov    %ecx,%ecx
  6b280f:	0f be 0c 0d 9c 48 20 	movsbl 0x20489c(,%rcx,1),%ecx
  6b2816:	00 
  6b2817:	39 c8                	cmp    %ecx,%eax
  6b2819:	74 09                	je     6b2824 <http_parser_execute+0x3314>
  6b281b:	c7 45 d4 11 00 00 00 	movl   $0x11,-0x2c(%rbp)
  6b2822:	eb 1d                	jmp    6b2841 <http_parser_execute+0x3331>
  6b2824:	48 8b 45 f0          	mov    -0x10(%rbp),%rax
  6b2828:	8b 00                	mov    (%rax),%eax
  6b282a:	c1 e8 18             	shr    $0x18,%eax
  6b282d:	83 e0 1f             	and    $0x1f,%eax
  6b2830:	89 c0                	mov    %eax,%eax
  6b2832:	48 83 f8 06          	cmp    $0x6,%rax
  6b2836:	75 07                	jne    6b283f <http_parser_execute+0x332f>
  6b2838:	c7 45 d4 17 00 00 00 	movl   $0x17,-0x2c(%rbp)
  6b283f:	eb 00                	jmp    6b2841 <http_parser_execute+0x3331>
  6b2841:	e9 3c 03 00 00       	jmpq   6b2b82 <http_parser_execute+0x3672>
  6b2846:	0f be 45 ff          	movsbl -0x1(%rbp),%eax
  6b284a:	83 f8 2c             	cmp    $0x2c,%eax
  6b284d:	75 18                	jne    6b2867 <http_parser_execute+0x3357>
  6b284f:	c7 45 d4 0f 00 00 00 	movl   $0xf,-0x2c(%rbp)
  6b2856:	48 8b 45 f0          	mov    -0x10(%rbp),%rax
  6b285a:	8b 08                	mov    (%rax),%ecx
  6b285c:	81 e1 ff ff ff e0    	and    $0xe0ffffff,%ecx
  6b2862:	83 c9 00             	or     $0x0,%ecx
  6b2865:	89 08                	mov    %ecx,(%rax)
  6b2867:	e9 16 03 00 00       	jmpq   6b2b82 <http_parser_execute+0x3672>
  6b286c:	0f be 45 eb          	movsbl -0x15(%rbp),%eax
  6b2870:	83 f8 6b             	cmp    $0x6b,%eax
  6b2873:	75 09                	jne    6b287e <http_parser_execute+0x336e>
  6b2875:	c7 45 d4 13 00 00 00 	movl   $0x13,-0x2c(%rbp)
  6b287c:	eb 72                	jmp    6b28f0 <http_parser_execute+0x33e0>
  6b287e:	0f be 45 eb          	movsbl -0x15(%rbp),%eax
  6b2882:	83 f8 63             	cmp    $0x63,%eax
  6b2885:	75 09                	jne    6b2890 <http_parser_execute+0x3380>
  6b2887:	c7 45 d4 14 00 00 00 	movl   $0x14,-0x2c(%rbp)
  6b288e:	eb 5e                	jmp    6b28ee <http_parser_execute+0x33de>
  6b2890:	0f be 45 eb          	movsbl -0x15(%rbp),%eax
  6b2894:	83 f8 75             	cmp    $0x75,%eax
  6b2897:	75 09                	jne    6b28a2 <http_parser_execute+0x3392>
  6b2899:	c7 45 d4 15 00 00 00 	movl   $0x15,-0x2c(%rbp)
  6b28a0:	eb 4a                	jmp    6b28ec <http_parser_execute+0x33dc>
  6b28a2:	0f be 45 eb          	movsbl -0x15(%rbp),%eax
  6b28a6:	83 f8 20             	cmp    $0x20,%eax
  6b28a9:	75 08                	jne    6b28b3 <http_parser_execute+0x33a3>
  6b28ab:	31 c0                	xor    %eax,%eax
  6b28ad:	a8 01                	test   $0x1,%al
  6b28af:	75 13                	jne    6b28c4 <http_parser_execute+0x33b4>
  6b28b1:	eb 1a                	jmp    6b28cd <http_parser_execute+0x33bd>
  6b28b3:	0f b6 45 eb          	movzbl -0x15(%rbp),%eax
  6b28b7:	0f be 04 05 a0 83 20 	movsbl 0x2083a0(,%rax,1),%eax
  6b28be:	00 
  6b28bf:	83 f8 00             	cmp    $0x0,%eax
  6b28c2:	74 09                	je     6b28cd <http_parser_execute+0x33bd>
  6b28c4:	c7 45 d4 16 00 00 00 	movl   $0x16,-0x2c(%rbp)
  6b28cb:	eb 1d                	jmp    6b28ea <http_parser_execute+0x33da>
  6b28cd:	0f be 45 eb          	movsbl -0x15(%rbp),%eax
  6b28d1:	83 f8 20             	cmp    $0x20,%eax
  6b28d4:	74 09                	je     6b28df <http_parser_execute+0x33cf>
  6b28d6:	0f be 45 eb          	movsbl -0x15(%rbp),%eax
  6b28da:	83 f8 09             	cmp    $0x9,%eax
  6b28dd:	75 02                	jne    6b28e1 <http_parser_execute+0x33d1>
  6b28df:	eb 07                	jmp    6b28e8 <http_parser_execute+0x33d8>
  6b28e1:	c7 45 d4 00 00 00 00 	movl   $0x0,-0x2c(%rbp)
  6b28e8:	eb 00                	jmp    6b28ea <http_parser_execute+0x33da>
  6b28ea:	eb 00                	jmp    6b28ec <http_parser_execute+0x33dc>
  6b28ec:	eb 00                	jmp    6b28ee <http_parser_execute+0x33de>
  6b28ee:	eb 00                	jmp    6b28f0 <http_parser_execute+0x33e0>
  6b28f0:	e9 8d 02 00 00       	jmpq   6b2b82 <http_parser_execute+0x3672>
  6b28f5:	48 8b 45 f0          	mov    -0x10(%rbp),%rax
  6b28f9:	8b 08                	mov    (%rax),%ecx
  6b28fb:	c1 e9 18             	shr    $0x18,%ecx
  6b28fe:	83 e1 1f             	and    $0x1f,%ecx
  6b2901:	83 c1 01             	add    $0x1,%ecx
  6b2904:	8b 10                	mov    (%rax),%edx
  6b2906:	83 e1 1f             	and    $0x1f,%ecx
  6b2909:	c1 e1 18             	shl    $0x18,%ecx
  6b290c:	81 e2 ff ff ff e0    	and    $0xe0ffffff,%edx
  6b2912:	09 ca                	or     %ecx,%edx
  6b2914:	89 10                	mov    %edx,(%rax)
  6b2916:	48 8b 45 f0          	mov    -0x10(%rbp),%rax
  6b291a:	8b 00                	mov    (%rax),%eax
  6b291c:	c1 e8 18             	shr    $0x18,%eax
  6b291f:	83 e0 1f             	and    $0x1f,%eax
  6b2922:	89 c0                	mov    %eax,%eax
  6b2924:	48 83 f8 0a          	cmp    $0xa,%rax
  6b2928:	77 1e                	ja     6b2948 <http_parser_execute+0x3438>
  6b292a:	0f be 45 eb          	movsbl -0x15(%rbp),%eax
  6b292e:	48 8b 4d f0          	mov    -0x10(%rbp),%rcx
  6b2932:	8b 09                	mov    (%rcx),%ecx
  6b2934:	c1 e9 18             	shr    $0x18,%ecx
  6b2937:	83 e1 1f             	and    $0x1f,%ecx
  6b293a:	89 c9                	mov    %ecx,%ecx
  6b293c:	0f be 0c 0d 75 20 20 	movsbl 0x202075(,%rcx,1),%ecx
  6b2943:	00 
  6b2944:	39 c8                	cmp    %ecx,%eax
  6b2946:	74 09                	je     6b2951 <http_parser_execute+0x3441>
  6b2948:	c7 45 d4 16 00 00 00 	movl   $0x16,-0x2c(%rbp)
  6b294f:	eb 1d                	jmp    6b296e <http_parser_execute+0x345e>
  6b2951:	48 8b 45 f0          	mov    -0x10(%rbp),%rax
  6b2955:	8b 00                	mov    (%rax),%eax
  6b2957:	c1 e8 18             	shr    $0x18,%eax
  6b295a:	83 e0 1f             	and    $0x1f,%eax
  6b295d:	89 c0                	mov    %eax,%eax
  6b295f:	48 83 f8 09          	cmp    $0x9,%rax
  6b2963:	75 07                	jne    6b296c <http_parser_execute+0x345c>
  6b2965:	c7 45 d4 18 00 00 00 	movl   $0x18,-0x2c(%rbp)
  6b296c:	eb 00                	jmp    6b296e <http_parser_execute+0x345e>
  6b296e:	e9 0f 02 00 00       	jmpq   6b2b82 <http_parser_execute+0x3672>
  6b2973:	48 8b 45 f0          	mov    -0x10(%rbp),%rax
  6b2977:	8b 08                	mov    (%rax),%ecx
  6b2979:	c1 e9 18             	shr    $0x18,%ecx
  6b297c:	83 e1 1f             	and    $0x1f,%ecx
  6b297f:	83 c1 01             	add    $0x1,%ecx
  6b2982:	8b 10                	mov    (%rax),%edx
  6b2984:	83 e1 1f             	and    $0x1f,%ecx
  6b2987:	c1 e1 18             	shl    $0x18,%ecx
  6b298a:	81 e2 ff ff ff e0    	and    $0xe0ffffff,%edx
  6b2990:	09 ca                	or     %ecx,%edx
  6b2992:	89 10                	mov    %edx,(%rax)
  6b2994:	48 8b 45 f0          	mov    -0x10(%rbp),%rax
  6b2998:	8b 00                	mov    (%rax),%eax
  6b299a:	c1 e8 18             	shr    $0x18,%eax
  6b299d:	83 e0 1f             	and    $0x1f,%eax
  6b29a0:	89 c0                	mov    %eax,%eax
  6b29a2:	48 83 f8 05          	cmp    $0x5,%rax
  6b29a6:	77 1e                	ja     6b29c6 <http_parser_execute+0x34b6>
  6b29a8:	0f be 45 eb          	movsbl -0x15(%rbp),%eax
  6b29ac:	48 8b 4d f0          	mov    -0x10(%rbp),%rcx
  6b29b0:	8b 09                	mov    (%rcx),%ecx
  6b29b2:	c1 e9 18             	shr    $0x18,%ecx
  6b29b5:	83 e1 1f             	and    $0x1f,%ecx
  6b29b8:	89 c9                	mov    %ecx,%ecx
  6b29ba:	0f be 0c 0d 2f 2e 20 	movsbl 0x202e2f(,%rcx,1),%ecx
  6b29c1:	00 
  6b29c2:	39 c8                	cmp    %ecx,%eax
  6b29c4:	74 09                	je     6b29cf <http_parser_execute+0x34bf>
  6b29c6:	c7 45 d4 16 00 00 00 	movl   $0x16,-0x2c(%rbp)
  6b29cd:	eb 1d                	jmp    6b29ec <http_parser_execute+0x34dc>
  6b29cf:	48 8b 45 f0          	mov    -0x10(%rbp),%rax
  6b29d3:	8b 00                	mov    (%rax),%eax
  6b29d5:	c1 e8 18             	shr    $0x18,%eax
  6b29d8:	83 e0 1f             	and    $0x1f,%eax
  6b29db:	89 c0                	mov    %eax,%eax
  6b29dd:	48 83 f8 04          	cmp    $0x4,%rax
  6b29e1:	75 07                	jne    6b29ea <http_parser_execute+0x34da>
  6b29e3:	c7 45 d4 19 00 00 00 	movl   $0x19,-0x2c(%rbp)
  6b29ea:	eb 00                	jmp    6b29ec <http_parser_execute+0x34dc>
  6b29ec:	e9 91 01 00 00       	jmpq   6b2b82 <http_parser_execute+0x3672>
  6b29f1:	48 8b 45 f0          	mov    -0x10(%rbp),%rax
  6b29f5:	8b 08                	mov    (%rax),%ecx
  6b29f7:	c1 e9 18             	shr    $0x18,%ecx
  6b29fa:	83 e1 1f             	and    $0x1f,%ecx
  6b29fd:	83 c1 01             	add    $0x1,%ecx
  6b2a00:	8b 10                	mov    (%rax),%edx
  6b2a02:	83 e1 1f             	and    $0x1f,%ecx
  6b2a05:	c1 e1 18             	shl    $0x18,%ecx
  6b2a08:	81 e2 ff ff ff e0    	and    $0xe0ffffff,%edx
  6b2a0e:	09 ca                	or     %ecx,%edx
  6b2a10:	89 10                	mov    %edx,(%rax)
  6b2a12:	48 8b 45 f0          	mov    -0x10(%rbp),%rax
  6b2a16:	8b 00                	mov    (%rax),%eax
  6b2a18:	c1 e8 18             	shr    $0x18,%eax
  6b2a1b:	83 e0 1f             	and    $0x1f,%eax
  6b2a1e:	89 c0                	mov    %eax,%eax
  6b2a20:	48 83 f8 07          	cmp    $0x7,%rax
  6b2a24:	77 1e                	ja     6b2a44 <http_parser_execute+0x3534>
  6b2a26:	0f be 45 eb          	movsbl -0x15(%rbp),%eax
  6b2a2a:	48 8b 4d f0          	mov    -0x10(%rbp),%rcx
  6b2a2e:	8b 09                	mov    (%rcx),%ecx
  6b2a30:	c1 e9 18             	shr    $0x18,%ecx
  6b2a33:	83 e1 1f             	and    $0x1f,%ecx
  6b2a36:	89 c9                	mov    %ecx,%ecx
  6b2a38:	0f be 0c 0d 79 69 20 	movsbl 0x206979(,%rcx,1),%ecx
  6b2a3f:	00 
  6b2a40:	39 c8                	cmp    %ecx,%eax
  6b2a42:	74 09                	je     6b2a4d <http_parser_execute+0x353d>
  6b2a44:	c7 45 d4 16 00 00 00 	movl   $0x16,-0x2c(%rbp)
  6b2a4b:	eb 1d                	jmp    6b2a6a <http_parser_execute+0x355a>
  6b2a4d:	48 8b 45 f0          	mov    -0x10(%rbp),%rax
  6b2a51:	8b 00                	mov    (%rax),%eax
  6b2a53:	c1 e8 18             	shr    $0x18,%eax
  6b2a56:	83 e0 1f             	and    $0x1f,%eax
  6b2a59:	89 c0                	mov    %eax,%eax
  6b2a5b:	48 83 f8 06          	cmp    $0x6,%rax
  6b2a5f:	75 07                	jne    6b2a68 <http_parser_execute+0x3558>
  6b2a61:	c7 45 d4 1a 00 00 00 	movl   $0x1a,-0x2c(%rbp)
  6b2a68:	eb 00                	jmp    6b2a6a <http_parser_execute+0x355a>
  6b2a6a:	e9 13 01 00 00       	jmpq   6b2b82 <http_parser_execute+0x3672>
  6b2a6f:	0f be 45 ff          	movsbl -0x1(%rbp),%eax
  6b2a73:	83 f8 2c             	cmp    $0x2c,%eax
  6b2a76:	75 18                	jne    6b2a90 <http_parser_execute+0x3580>
  6b2a78:	c7 45 d4 12 00 00 00 	movl   $0x12,-0x2c(%rbp)
  6b2a7f:	48 8b 45 f0          	mov    -0x10(%rbp),%rax
  6b2a83:	8b 08                	mov    (%rax),%ecx
  6b2a85:	81 e1 ff ff ff e0    	and    $0xe0ffffff,%ecx
  6b2a8b:	83 c9 00             	or     $0x0,%ecx
  6b2a8e:	89 08                	mov    %ecx,(%rax)
  6b2a90:	e9 ed 00 00 00       	jmpq   6b2b82 <http_parser_execute+0x3672>
  6b2a95:	0f be 45 ff          	movsbl -0x1(%rbp),%eax
  6b2a99:	83 f8 20             	cmp    $0x20,%eax
  6b2a9c:	74 07                	je     6b2aa5 <http_parser_execute+0x3595>
  6b2a9e:	c7 45 d4 11 00 00 00 	movl   $0x11,-0x2c(%rbp)
  6b2aa5:	e9 d8 00 00 00       	jmpq   6b2b82 <http_parser_execute+0x3672>
  6b2aaa:	0f be 45 ff          	movsbl -0x1(%rbp),%eax
  6b2aae:	83 f8 2c             	cmp    $0x2c,%eax
  6b2ab1:	0f 85 a9 00 00 00    	jne    6b2b60 <http_parser_execute+0x3650>
  6b2ab7:	83 7d d4 18          	cmpl   $0x18,-0x2c(%rbp)
  6b2abb:	75 29                	jne    6b2ae6 <http_parser_execute+0x35d6>
  6b2abd:	48 8b 45 f0          	mov    -0x10(%rbp),%rax
  6b2ac1:	8b 08                	mov    (%rax),%ecx
  6b2ac3:	c1 e9 02             	shr    $0x2,%ecx
  6b2ac6:	81 e1 ff 00 00 00    	and    $0xff,%ecx
  6b2acc:	83 c9 02             	or     $0x2,%ecx
  6b2acf:	8b 10                	mov    (%rax),%edx
  6b2ad1:	81 e1 ff 00 00 00    	and    $0xff,%ecx
  6b2ad7:	c1 e1 02             	shl    $0x2,%ecx
  6b2ada:	81 e2 03 fc ff ff    	and    $0xfffffc03,%edx
  6b2ae0:	09 ca                	or     %ecx,%edx
  6b2ae2:	89 10                	mov    %edx,(%rax)
  6b2ae4:	eb 60                	jmp    6b2b46 <http_parser_execute+0x3636>
  6b2ae6:	83 7d d4 19          	cmpl   $0x19,-0x2c(%rbp)
  6b2aea:	75 29                	jne    6b2b15 <http_parser_execute+0x3605>
  6b2aec:	48 8b 45 f0          	mov    -0x10(%rbp),%rax
  6b2af0:	8b 08                	mov    (%rax),%ecx
  6b2af2:	c1 e9 02             	shr    $0x2,%ecx
  6b2af5:	81 e1 ff 00 00 00    	and    $0xff,%ecx
  6b2afb:	83 c9 04             	or     $0x4,%ecx
  6b2afe:	8b 10                	mov    (%rax),%edx
  6b2b00:	81 e1 ff 00 00 00    	and    $0xff,%ecx
  6b2b06:	c1 e1 02             	shl    $0x2,%ecx
  6b2b09:	81 e2 03 fc ff ff    	and    $0xfffffc03,%edx
  6b2b0f:	09 ca                	or     %ecx,%edx
  6b2b11:	89 10                	mov    %edx,(%rax)
  6b2b13:	eb 2f                	jmp    6b2b44 <http_parser_execute+0x3634>
  6b2b15:	83 7d d4 1a          	cmpl   $0x1a,-0x2c(%rbp)
  6b2b19:	75 27                	jne    6b2b42 <http_parser_execute+0x3632>
  6b2b1b:	48 8b 45 f0          	mov    -0x10(%rbp),%rax
  6b2b1f:	8b 08                	mov    (%rax),%ecx
  6b2b21:	c1 e9 02             	shr    $0x2,%ecx
  6b2b24:	81 e1 ff 00 00 00    	and    $0xff,%ecx
  6b2b2a:	83 c9 08             	or     $0x8,%ecx
  6b2b2d:	8b 10                	mov    (%rax),%edx
  6b2b2f:	81 e1 ff 00 00 00    	and    $0xff,%ecx
  6b2b35:	c1 e1 02             	shl    $0x2,%ecx
  6b2b38:	81 e2 03 fc ff ff    	and    $0xfffffc03,%edx
  6b2b3e:	09 ca                	or     %ecx,%edx
  6b2b40:	89 10                	mov    %edx,(%rax)
  6b2b42:	eb 00                	jmp    6b2b44 <http_parser_execute+0x3634>
  6b2b44:	eb 00                	jmp    6b2b46 <http_parser_execute+0x3636>
  6b2b46:	c7 45 d4 12 00 00 00 	movl   $0x12,-0x2c(%rbp)
  6b2b4d:	48 8b 45 f0          	mov    -0x10(%rbp),%rax
  6b2b51:	8b 08                	mov    (%rax),%ecx
  6b2b53:	81 e1 ff ff ff e0    	and    $0xe0ffffff,%ecx
  6b2b59:	83 c9 00             	or     $0x0,%ecx
  6b2b5c:	89 08                	mov    %ecx,(%rax)
  6b2b5e:	eb 12                	jmp    6b2b72 <http_parser_execute+0x3662>
  6b2b60:	0f be 45 ff          	movsbl -0x1(%rbp),%eax
  6b2b64:	83 f8 20             	cmp    $0x20,%eax
  6b2b67:	74 07                	je     6b2b70 <http_parser_execute+0x3660>
  6b2b69:	c7 45 d4 16 00 00 00 	movl   $0x16,-0x2c(%rbp)
  6b2b70:	eb 00                	jmp    6b2b72 <http_parser_execute+0x3662>
  6b2b72:	eb 0e                	jmp    6b2b82 <http_parser_execute+0x3672>
  6b2b74:	c7 45 ec 32 00 00 00 	movl   $0x32,-0x14(%rbp)
  6b2b7b:	c7 45 d4 00 00 00 00 	movl   $0x0,-0x2c(%rbp)
  6b2b82:	eb 00                	jmp    6b2b84 <http_parser_execute+0x3674>
  6b2b84:	48 8b 45 d8          	mov    -0x28(%rbp),%rax
  6b2b88:	48 83 c0 01          	add    $0x1,%rax
  6b2b8c:	48 89 45 d8          	mov    %rax,-0x28(%rbp)
  6b2b90:	e9 f6 f4 ff ff       	jmpq   6b208b <http_parser_execute+0x2b7b>
  6b2b95:	eb 00                	jmp    6b2b97 <http_parser_execute+0x3687>
  6b2b97:	8b 45 d4             	mov    -0x2c(%rbp),%eax
  6b2b9a:	48 8b 4d f0          	mov    -0x10(%rbp),%rcx
  6b2b9e:	8b 11                	mov    (%rcx),%edx
  6b2ba0:	83 e0 7f             	and    $0x7f,%eax
  6b2ba3:	c1 e0 11             	shl    $0x11,%eax
  6b2ba6:	81 e2 ff ff 01 ff    	and    $0xff01ffff,%edx
  6b2bac:	09 c2                	or     %eax,%edx
  6b2bae:	89 11                	mov    %edx,(%rcx)
  6b2bb0:	48 8b 45 d8          	mov    -0x28(%rbp),%rax
  6b2bb4:	48 8b 4d c0          	mov    -0x40(%rbp),%rcx
  6b2bb8:	48 03 4d 88          	add    -0x78(%rbp),%rcx
  6b2bbc:	48 39 c8             	cmp    %rcx,%rax
  6b2bbf:	75 0c                	jne    6b2bcd <http_parser_execute+0x36bd>
  6b2bc1:	48 8b 45 d8          	mov    -0x28(%rbp),%rax
  6b2bc5:	48 83 c0 ff          	add    $0xffffffffffffffff,%rax
  6b2bc9:	48 89 45 d8          	mov    %rax,-0x28(%rbp)
  6b2bcd:	eb 00                	jmp    6b2bcf <http_parser_execute+0x36bf>
  6b2bcf:	48 8b 45 d8          	mov    -0x28(%rbp),%rax
  6b2bd3:	48 8b 8d 40 ff ff ff 	mov    -0xc0(%rbp),%rcx
  6b2bda:	48 29 c8             	sub    %rcx,%rax
  6b2bdd:	03 45 e4             	add    -0x1c(%rbp),%eax
  6b2be0:	89 45 e4             	mov    %eax,-0x1c(%rbp)
  6b2be3:	8b 45 e4             	mov    -0x1c(%rbp),%eax
  6b2be6:	3b 04 25 70 dc 6b 00 	cmp    0x6bdc70,%eax
  6b2bed:	0f 97 c0             	seta   %al
  6b2bf0:	34 ff                	xor    $0xff,%al
  6b2bf2:	34 ff                	xor    $0xff,%al
  6b2bf4:	24 01                	and    $0x1,%al
  6b2bf6:	0f b6 c0             	movzbl %al,%eax
  6b2bf9:	48 98                	cltq   
  6b2bfb:	48 83 f8 00          	cmp    $0x0,%rax
  6b2bff:	74 27                	je     6b2c28 <http_parser_execute+0x3718>
  6b2c01:	eb 00                	jmp    6b2c03 <http_parser_execute+0x36f3>
  6b2c03:	8b 45 e4             	mov    -0x1c(%rbp),%eax
  6b2c06:	48 8b 4d f0          	mov    -0x10(%rbp),%rcx
  6b2c0a:	89 41 04             	mov    %eax,0x4(%rcx)
  6b2c0d:	48 8b 45 f0          	mov    -0x10(%rbp),%rax
  6b2c11:	8b 48 14             	mov    0x14(%rax),%ecx
  6b2c14:	81 e1 ff ff ff 80    	and    $0x80ffffff,%ecx
  6b2c1a:	81 c9 00 00 00 0c    	or     $0xc000000,%ecx
  6b2c20:	89 48 14             	mov    %ecx,0x14(%rax)
  6b2c23:	e9 68 25 00 00       	jmpq   6b5190 <http_parser_execute+0x5c80>
  6b2c28:	eb 00                	jmp    6b2c2a <http_parser_execute+0x371a>
  6b2c2a:	e9 d6 1d 00 00       	jmpq   6b4a05 <http_parser_execute+0x54f5>
  6b2c2f:	0f be 45 ff          	movsbl -0x1(%rbp),%eax
  6b2c33:	83 f8 0a             	cmp    $0xa,%eax
  6b2c36:	0f 95 c0             	setne  %al
  6b2c39:	34 ff                	xor    $0xff,%al
  6b2c3b:	34 ff                	xor    $0xff,%al
  6b2c3d:	24 01                	and    $0x1,%al
  6b2c3f:	0f b6 c0             	movzbl %al,%eax
  6b2c42:	48 98                	cltq   
  6b2c44:	48 83 f8 00          	cmp    $0x0,%rax
  6b2c48:	74 27                	je     6b2c71 <http_parser_execute+0x3761>
  6b2c4a:	eb 00                	jmp    6b2c4c <http_parser_execute+0x373c>
  6b2c4c:	8b 45 e4             	mov    -0x1c(%rbp),%eax
  6b2c4f:	48 8b 4d f0          	mov    -0x10(%rbp),%rcx
  6b2c53:	89 41 04             	mov    %eax,0x4(%rcx)
  6b2c56:	48 8b 45 f0          	mov    -0x10(%rbp),%rax
  6b2c5a:	8b 48 14             	mov    0x14(%rax),%ecx
  6b2c5d:	81 e1 ff ff ff 80    	and    $0x80ffffff,%ecx
  6b2c63:	81 c9 00 00 00 17    	or     $0x17000000,%ecx
  6b2c69:	89 48 14             	mov    %ecx,0x14(%rax)
  6b2c6c:	e9 1f 25 00 00       	jmpq   6b5190 <http_parser_execute+0x5c80>
  6b2c71:	c7 45 ec 33 00 00 00 	movl   $0x33,-0x14(%rbp)
  6b2c78:	e9 88 1d 00 00       	jmpq   6b4a05 <http_parser_execute+0x54f5>
  6b2c7d:	0f be 45 ff          	movsbl -0x1(%rbp),%eax
  6b2c81:	83 f8 20             	cmp    $0x20,%eax
  6b2c84:	74 09                	je     6b2c8f <http_parser_execute+0x377f>
  6b2c86:	0f be 45 ff          	movsbl -0x1(%rbp),%eax
  6b2c8a:	83 f8 09             	cmp    $0x9,%eax
  6b2c8d:	75 31                	jne    6b2cc0 <http_parser_execute+0x37b0>
  6b2c8f:	48 8b 45 f0          	mov    -0x10(%rbp),%rax
  6b2c93:	8b 00                	mov    (%rax),%eax
  6b2c95:	c1 e8 11             	shr    $0x11,%eax
  6b2c98:	83 e0 7f             	and    $0x7f,%eax
  6b2c9b:	83 f8 0b             	cmp    $0xb,%eax
  6b2c9e:	75 14                	jne    6b2cb4 <http_parser_execute+0x37a4>
  6b2ca0:	48 8b 45 f0          	mov    -0x10(%rbp),%rax
  6b2ca4:	8b 08                	mov    (%rax),%ecx
  6b2ca6:	81 e1 ff ff 01 ff    	and    $0xff01ffff,%ecx
  6b2cac:	81 c9 00 00 18 00    	or     $0x180000,%ecx
  6b2cb2:	89 08                	mov    %ecx,(%rax)
  6b2cb4:	c7 45 ec 31 00 00 00 	movl   $0x31,-0x14(%rbp)
  6b2cbb:	e9 93 cd ff ff       	jmpq   6afa53 <http_parser_execute+0x543>
  6b2cc0:	48 8b 45 f0          	mov    -0x10(%rbp),%rax
  6b2cc4:	8b 00                	mov    (%rax),%eax
  6b2cc6:	c1 e8 11             	shr    $0x11,%eax
  6b2cc9:	83 e0 7f             	and    $0x7f,%eax
  6b2ccc:	83 c0 e9             	add    $0xffffffe9,%eax
  6b2ccf:	89 c1                	mov    %eax,%ecx
  6b2cd1:	83 e9 03             	sub    $0x3,%ecx
  6b2cd4:	0f 87 ae 00 00 00    	ja     6b2d88 <http_parser_execute+0x3878>
  6b2cda:	48 8b 04 c5 b0 0b 20 	mov    0x200bb0(,%rax,8),%rax
  6b2ce1:	00 
  6b2ce2:	ff e0                	jmpq   *%rax
  6b2ce4:	48 8b 45 f0          	mov    -0x10(%rbp),%rax
  6b2ce8:	8b 08                	mov    (%rax),%ecx
  6b2cea:	c1 e9 02             	shr    $0x2,%ecx
  6b2ced:	81 e1 ff 00 00 00    	and    $0xff,%ecx
  6b2cf3:	83 c9 02             	or     $0x2,%ecx
  6b2cf6:	8b 10                	mov    (%rax),%edx
  6b2cf8:	81 e1 ff 00 00 00    	and    $0xff,%ecx
  6b2cfe:	c1 e1 02             	shl    $0x2,%ecx
  6b2d01:	81 e2 03 fc ff ff    	and    $0xfffffc03,%edx
  6b2d07:	09 ca                	or     %ecx,%edx
  6b2d09:	89 10                	mov    %edx,(%rax)
  6b2d0b:	eb 7d                	jmp    6b2d8a <http_parser_execute+0x387a>
  6b2d0d:	48 8b 45 f0          	mov    -0x10(%rbp),%rax
  6b2d11:	8b 08                	mov    (%rax),%ecx
  6b2d13:	c1 e9 02             	shr    $0x2,%ecx
  6b2d16:	81 e1 ff 00 00 00    	and    $0xff,%ecx
  6b2d1c:	83 c9 04             	or     $0x4,%ecx
  6b2d1f:	8b 10                	mov    (%rax),%edx
  6b2d21:	81 e1 ff 00 00 00    	and    $0xff,%ecx
  6b2d27:	c1 e1 02             	shl    $0x2,%ecx
  6b2d2a:	81 e2 03 fc ff ff    	and    $0xfffffc03,%edx
  6b2d30:	09 ca                	or     %ecx,%edx
  6b2d32:	89 10                	mov    %edx,(%rax)
  6b2d34:	eb 54                	jmp    6b2d8a <http_parser_execute+0x387a>
  6b2d36:	48 8b 45 f0          	mov    -0x10(%rbp),%rax
  6b2d3a:	8b 08                	mov    (%rax),%ecx
  6b2d3c:	c1 e9 02             	shr    $0x2,%ecx
  6b2d3f:	81 e1 ff 00 00 00    	and    $0xff,%ecx
  6b2d45:	83 c9 01             	or     $0x1,%ecx
  6b2d48:	8b 10                	mov    (%rax),%edx
  6b2d4a:	81 e1 ff 00 00 00    	and    $0xff,%ecx
  6b2d50:	c1 e1 02             	shl    $0x2,%ecx
  6b2d53:	81 e2 03 fc ff ff    	and    $0xfffffc03,%edx
  6b2d59:	09 ca                	or     %ecx,%edx
  6b2d5b:	89 10                	mov    %edx,(%rax)
  6b2d5d:	eb 2b                	jmp    6b2d8a <http_parser_execute+0x387a>
  6b2d5f:	48 8b 45 f0          	mov    -0x10(%rbp),%rax
  6b2d63:	8b 08                	mov    (%rax),%ecx
  6b2d65:	c1 e9 02             	shr    $0x2,%ecx
  6b2d68:	81 e1 ff 00 00 00    	and    $0xff,%ecx
  6b2d6e:	83 c9 08             	or     $0x8,%ecx
  6b2d71:	8b 10                	mov    (%rax),%edx
  6b2d73:	81 e1 ff 00 00 00    	and    $0xff,%ecx
  6b2d79:	c1 e1 02             	shl    $0x2,%ecx
  6b2d7c:	81 e2 03 fc ff ff    	and    $0xfffffc03,%edx
  6b2d82:	09 ca                	or     %ecx,%edx
  6b2d84:	89 10                	mov    %edx,(%rax)
  6b2d86:	eb 02                	jmp    6b2d8a <http_parser_execute+0x387a>
  6b2d88:	eb 00                	jmp    6b2d8a <http_parser_execute+0x387a>
  6b2d8a:	c7 45 ec 2c 00 00 00 	movl   $0x2c,-0x14(%rbp)
  6b2d91:	e9 bd cc ff ff       	jmpq   6afa53 <http_parser_execute+0x543>
  6b2d96:	eb 00                	jmp    6b2d98 <http_parser_execute+0x3888>
  6b2d98:	0f be 45 ff          	movsbl -0x1(%rbp),%eax
  6b2d9c:	83 f8 0a             	cmp    $0xa,%eax
  6b2d9f:	74 27                	je     6b2dc8 <http_parser_execute+0x38b8>
  6b2da1:	eb 00                	jmp    6b2da3 <http_parser_execute+0x3893>
  6b2da3:	8b 45 e4             	mov    -0x1c(%rbp),%eax
  6b2da6:	48 8b 4d f0          	mov    -0x10(%rbp),%rcx
  6b2daa:	89 41 04             	mov    %eax,0x4(%rcx)
  6b2dad:	48 8b 45 f0          	mov    -0x10(%rbp),%rax
  6b2db1:	8b 48 14             	mov    0x14(%rax),%ecx
  6b2db4:	81 e1 ff ff ff 80    	and    $0x80ffffff,%ecx
  6b2dba:	81 c9 00 00 00 1e    	or     $0x1e000000,%ecx
  6b2dc0:	89 48 14             	mov    %ecx,0x14(%rax)
  6b2dc3:	e9 c8 23 00 00       	jmpq   6b5190 <http_parser_execute+0x5c80>
  6b2dc8:	eb 00                	jmp    6b2dca <http_parser_execute+0x38ba>
  6b2dca:	c7 45 ec 30 00 00 00 	movl   $0x30,-0x14(%rbp)
  6b2dd1:	e9 2f 1c 00 00       	jmpq   6b4a05 <http_parser_execute+0x54f5>
  6b2dd6:	0f be 45 ff          	movsbl -0x1(%rbp),%eax
  6b2dda:	83 f8 20             	cmp    $0x20,%eax
  6b2ddd:	74 09                	je     6b2de8 <http_parser_execute+0x38d8>
  6b2ddf:	0f be 45 ff          	movsbl -0x1(%rbp),%eax
  6b2de3:	83 f8 09             	cmp    $0x9,%eax
  6b2de6:	75 0c                	jne    6b2df4 <http_parser_execute+0x38e4>
  6b2de8:	c7 45 ec 2e 00 00 00 	movl   $0x2e,-0x14(%rbp)
  6b2def:	e9 11 1c 00 00       	jmpq   6b4a05 <http_parser_execute+0x54f5>
  6b2df4:	48 8b 45 f0          	mov    -0x10(%rbp),%rax
  6b2df8:	8b 00                	mov    (%rax),%eax
  6b2dfa:	c1 e8 11             	shr    $0x11,%eax
  6b2dfd:	83 e0 7f             	and    $0x7f,%eax
  6b2e00:	83 c0 f6             	add    $0xfffffff6,%eax
  6b2e03:	89 c1                	mov    %eax,%ecx
  6b2e05:	83 e9 10             	sub    $0x10,%ecx
  6b2e08:	0f 87 d8 00 00 00    	ja     6b2ee6 <http_parser_execute+0x39d6>
  6b2e0e:	48 8b 04 c5 28 0b 20 	mov    0x200b28(,%rax,8),%rax
  6b2e15:	00 
  6b2e16:	ff e0                	jmpq   *%rax
  6b2e18:	48 8b 45 f0          	mov    -0x10(%rbp),%rax
  6b2e1c:	8b 08                	mov    (%rax),%ecx
  6b2e1e:	c1 e9 02             	shr    $0x2,%ecx
  6b2e21:	81 e1 ff 00 00 00    	and    $0xff,%ecx
  6b2e27:	83 c9 02             	or     $0x2,%ecx
  6b2e2a:	8b 10                	mov    (%rax),%edx
  6b2e2c:	81 e1 ff 00 00 00    	and    $0xff,%ecx
  6b2e32:	c1 e1 02             	shl    $0x2,%ecx
  6b2e35:	81 e2 03 fc ff ff    	and    $0xfffffc03,%edx
  6b2e3b:	09 ca                	or     %ecx,%edx
  6b2e3d:	89 10                	mov    %edx,(%rax)
  6b2e3f:	e9 a4 00 00 00       	jmpq   6b2ee8 <http_parser_execute+0x39d8>
  6b2e44:	48 8b 45 f0          	mov    -0x10(%rbp),%rax
  6b2e48:	8b 08                	mov    (%rax),%ecx
  6b2e4a:	c1 e9 02             	shr    $0x2,%ecx
  6b2e4d:	81 e1 ff 00 00 00    	and    $0xff,%ecx
  6b2e53:	83 c9 04             	or     $0x4,%ecx
  6b2e56:	8b 10                	mov    (%rax),%edx
  6b2e58:	81 e1 ff 00 00 00    	and    $0xff,%ecx
  6b2e5e:	c1 e1 02             	shl    $0x2,%ecx
  6b2e61:	81 e2 03 fc ff ff    	and    $0xfffffc03,%edx
  6b2e67:	09 ca                	or     %ecx,%edx
  6b2e69:	89 10                	mov    %edx,(%rax)
  6b2e6b:	eb 7b                	jmp    6b2ee8 <http_parser_execute+0x39d8>
  6b2e6d:	48 8b 45 f0          	mov    -0x10(%rbp),%rax
  6b2e71:	8b 08                	mov    (%rax),%ecx
  6b2e73:	c1 e9 02             	shr    $0x2,%ecx
  6b2e76:	81 e1 ff 00 00 00    	and    $0xff,%ecx
  6b2e7c:	83 c9 08             	or     $0x8,%ecx
  6b2e7f:	8b 10                	mov    (%rax),%edx
  6b2e81:	81 e1 ff 00 00 00    	and    $0xff,%ecx
  6b2e87:	c1 e1 02             	shl    $0x2,%ecx
  6b2e8a:	81 e2 03 fc ff ff    	and    $0xfffffc03,%edx
  6b2e90:	09 ca                	or     %ecx,%edx
  6b2e92:	89 10                	mov    %edx,(%rax)
  6b2e94:	eb 52                	jmp    6b2ee8 <http_parser_execute+0x39d8>
  6b2e96:	48 8b 45 f0          	mov    -0x10(%rbp),%rax
  6b2e9a:	8b 08                	mov    (%rax),%ecx
  6b2e9c:	c1 e9 02             	shr    $0x2,%ecx
  6b2e9f:	81 e1 ff 00 00 00    	and    $0xff,%ecx
  6b2ea5:	83 c9 01             	or     $0x1,%ecx
  6b2ea8:	8b 10                	mov    (%rax),%edx
  6b2eaa:	81 e1 ff 00 00 00    	and    $0xff,%ecx
  6b2eb0:	c1 e1 02             	shl    $0x2,%ecx
  6b2eb3:	81 e2 03 fc ff ff    	and    $0xfffffc03,%edx
  6b2eb9:	09 ca                	or     %ecx,%edx
  6b2ebb:	89 10                	mov    %edx,(%rax)
  6b2ebd:	eb 29                	jmp    6b2ee8 <http_parser_execute+0x39d8>
  6b2ebf:	eb 00                	jmp    6b2ec1 <http_parser_execute+0x39b1>
  6b2ec1:	8b 45 e4             	mov    -0x1c(%rbp),%eax
  6b2ec4:	48 8b 4d f0          	mov    -0x10(%rbp),%rcx
  6b2ec8:	89 41 04             	mov    %eax,0x4(%rcx)
  6b2ecb:	48 8b 45 f0          	mov    -0x10(%rbp),%rax
  6b2ecf:	8b 48 14             	mov    0x14(%rax),%ecx
  6b2ed2:	81 e1 ff ff ff 80    	and    $0x80ffffff,%ecx
  6b2ed8:	81 c9 00 00 00 19    	or     $0x19000000,%ecx
  6b2ede:	89 48 14             	mov    %ecx,0x14(%rax)
  6b2ee1:	e9 aa 22 00 00       	jmpq   6b5190 <http_parser_execute+0x5c80>
  6b2ee6:	eb 00                	jmp    6b2ee8 <http_parser_execute+0x39d8>
  6b2ee8:	eb 00                	jmp    6b2eea <http_parser_execute+0x39da>
  6b2eea:	48 83 7d a8 00       	cmpq   $0x0,-0x58(%rbp)
  6b2eef:	75 08                	jne    6b2ef9 <http_parser_execute+0x39e9>
  6b2ef1:	48 8b 45 d8          	mov    -0x28(%rbp),%rax
  6b2ef5:	48 89 45 a8          	mov    %rax,-0x58(%rbp)
  6b2ef9:	eb 00                	jmp    6b2efb <http_parser_execute+0x39eb>
  6b2efb:	c7 45 ec 2c 00 00 00 	movl   $0x2c,-0x14(%rbp)
  6b2f02:	48 8b 45 f0          	mov    -0x10(%rbp),%rax
  6b2f06:	8b 40 14             	mov    0x14(%rax),%eax
  6b2f09:	c1 e8 18             	shr    $0x18,%eax
  6b2f0c:	83 e0 7f             	and    $0x7f,%eax
  6b2f0f:	83 f8 00             	cmp    $0x0,%eax
  6b2f12:	75 02                	jne    6b2f16 <http_parser_execute+0x3a06>
  6b2f14:	eb 28                	jmp    6b2f3e <http_parser_execute+0x3a2e>
  6b2f16:	48 bf 00 2e 20 00 00 	movabs $0x202e00,%rdi
  6b2f1d:	00 00 00 
  6b2f20:	48 be f5 2b 20 00 00 	movabs $0x202bf5,%rsi
  6b2f27:	00 00 00 
  6b2f2a:	48 b9 37 6e 20 00 00 	movabs $0x206e37,%rcx
  6b2f31:	00 00 00 
  6b2f34:	ba fe 06 00 00       	mov    $0x6fe,%edx
  6b2f39:	e8 52 8a 00 00       	callq  6bb990 <__assert_fail@plt>
  6b2f3e:	48 83 7d a8 00       	cmpq   $0x0,-0x58(%rbp)
  6b2f43:	0f 84 0d 01 00 00    	je     6b3056 <http_parser_execute+0x3b46>
  6b2f49:	48 8b 45 c8          	mov    -0x38(%rbp),%rax
  6b2f4d:	48 83 78 20 00       	cmpq   $0x0,0x20(%rax)
  6b2f52:	0f 95 c0             	setne  %al
  6b2f55:	34 ff                	xor    $0xff,%al
  6b2f57:	34 ff                	xor    $0xff,%al
  6b2f59:	24 01                	and    $0x1,%al
  6b2f5b:	0f b6 c0             	movzbl %al,%eax
  6b2f5e:	48 98                	cltq   
  6b2f60:	48 83 f8 00          	cmp    $0x0,%rax
  6b2f64:	0f 84 e4 00 00 00    	je     6b304e <http_parser_execute+0x3b3e>
  6b2f6a:	8b 45 ec             	mov    -0x14(%rbp),%eax
  6b2f6d:	48 8b 4d f0          	mov    -0x10(%rbp),%rcx
  6b2f71:	8b 11                	mov    (%rcx),%edx
  6b2f73:	83 e0 7f             	and    $0x7f,%eax
  6b2f76:	c1 e0 0a             	shl    $0xa,%eax
  6b2f79:	81 e2 ff 03 fe ff    	and    $0xfffe03ff,%edx
  6b2f7f:	09 c2                	or     %eax,%edx
  6b2f81:	89 11                	mov    %edx,(%rcx)
  6b2f83:	48 8b 45 c8          	mov    -0x38(%rbp),%rax
  6b2f87:	48 8b 48 20          	mov    0x20(%rax),%rcx
  6b2f8b:	48 b8 40 b8 6b 00 00 	movabs $0x6bb840,%rax
  6b2f92:	00 00 00 
  6b2f95:	48 89 ca             	mov    %rcx,%rdx
  6b2f98:	48 29 c2             	sub    %rax,%rdx
  6b2f9b:	48 89 d0             	mov    %rdx,%rax
  6b2f9e:	48 c1 e8 03          	shr    $0x3,%rax
  6b2fa2:	48 c1 e2 3d          	shl    $0x3d,%rdx
  6b2fa6:	48 09 d0             	or     %rdx,%rax
  6b2fa9:	48 83 f8 0f          	cmp    $0xf,%rax
  6b2fad:	76 05                	jbe    6b2fb4 <http_parser_execute+0x3aa4>
  6b2faf:	67 0f b9 40 02       	ud1    0x2(%eax),%eax
  6b2fb4:	48 8b 7d f0          	mov    -0x10(%rbp),%rdi
  6b2fb8:	48 8b 75 a8          	mov    -0x58(%rbp),%rsi
  6b2fbc:	48 8b 55 d8          	mov    -0x28(%rbp),%rdx
  6b2fc0:	48 8b 45 a8          	mov    -0x58(%rbp),%rax
  6b2fc4:	48 29 c2             	sub    %rax,%rdx
  6b2fc7:	ff d1                	callq  *%rcx
  6b2fc9:	31 c9                	xor    %ecx,%ecx
  6b2fcb:	39 c1                	cmp    %eax,%ecx
  6b2fcd:	0f 95 c0             	setne  %al
  6b2fd0:	34 ff                	xor    $0xff,%al
  6b2fd2:	34 ff                	xor    $0xff,%al
  6b2fd4:	24 01                	and    $0x1,%al
  6b2fd6:	0f b6 c0             	movzbl %al,%eax
  6b2fd9:	48 98                	cltq   
  6b2fdb:	48 83 f8 00          	cmp    $0x0,%rax
  6b2fdf:	74 24                	je     6b3005 <http_parser_execute+0x3af5>
  6b2fe1:	eb 00                	jmp    6b2fe3 <http_parser_execute+0x3ad3>
  6b2fe3:	8b 45 e4             	mov    -0x1c(%rbp),%eax
  6b2fe6:	48 8b 4d f0          	mov    -0x10(%rbp),%rcx
  6b2fea:	89 41 04             	mov    %eax,0x4(%rcx)
  6b2fed:	48 8b 45 f0          	mov    -0x10(%rbp),%rax
  6b2ff1:	8b 48 14             	mov    0x14(%rax),%ecx
  6b2ff4:	81 e1 ff ff ff 80    	and    $0x80ffffff,%ecx
  6b2ffa:	81 c9 00 00 00 04    	or     $0x4000000,%ecx
  6b3000:	89 48 14             	mov    %ecx,0x14(%rax)
  6b3003:	eb 00                	jmp    6b3005 <http_parser_execute+0x3af5>
  6b3005:	48 8b 45 f0          	mov    -0x10(%rbp),%rax
  6b3009:	8b 00                	mov    (%rax),%eax
  6b300b:	c1 e8 0a             	shr    $0xa,%eax
  6b300e:	83 e0 7f             	and    $0x7f,%eax
  6b3011:	89 45 ec             	mov    %eax,-0x14(%rbp)
  6b3014:	48 8b 45 f0          	mov    -0x10(%rbp),%rax
  6b3018:	8b 40 14             	mov    0x14(%rax),%eax
  6b301b:	c1 e8 18             	shr    $0x18,%eax
  6b301e:	83 e0 7f             	and    $0x7f,%eax
  6b3021:	83 f8 00             	cmp    $0x0,%eax
  6b3024:	0f 95 c0             	setne  %al
  6b3027:	34 ff                	xor    $0xff,%al
  6b3029:	34 ff                	xor    $0xff,%al
  6b302b:	24 01                	and    $0x1,%al
  6b302d:	0f b6 c0             	movzbl %al,%eax
  6b3030:	48 98                	cltq   
  6b3032:	48 83 f8 00          	cmp    $0x0,%rax
  6b3036:	74 14                	je     6b304c <http_parser_execute+0x3b3c>
  6b3038:	48 8b 45 d8          	mov    -0x28(%rbp),%rax
  6b303c:	48 8b 4d c0          	mov    -0x40(%rbp),%rcx
  6b3040:	48 29 c8             	sub    %rcx,%rax
  6b3043:	48 89 45 b0          	mov    %rax,-0x50(%rbp)
  6b3047:	e9 ae 21 00 00       	jmpq   6b51fa <http_parser_execute+0x5cea>
  6b304c:	eb 00                	jmp    6b304e <http_parser_execute+0x3b3e>
  6b304e:	48 c7 45 a8 00 00 00 	movq   $0x0,-0x58(%rbp)
  6b3055:	00 
  6b3056:	eb 00                	jmp    6b3058 <http_parser_execute+0x3b48>
  6b3058:	e9 f6 c9 ff ff       	jmpq   6afa53 <http_parser_execute+0x543>
  6b305d:	eb 00                	jmp    6b305f <http_parser_execute+0x3b4f>
  6b305f:	0f be 45 ff          	movsbl -0x1(%rbp),%eax
  6b3063:	83 f8 0a             	cmp    $0xa,%eax
  6b3066:	74 27                	je     6b308f <http_parser_execute+0x3b7f>
  6b3068:	eb 00                	jmp    6b306a <http_parser_execute+0x3b5a>
  6b306a:	8b 45 e4             	mov    -0x1c(%rbp),%eax
  6b306d:	48 8b 4d f0          	mov    -0x10(%rbp),%rcx
  6b3071:	89 41 04             	mov    %eax,0x4(%rcx)
  6b3074:	48 8b 45 f0          	mov    -0x10(%rbp),%rax
  6b3078:	8b 48 14             	mov    0x14(%rax),%ecx
  6b307b:	81 e1 ff ff ff 80    	and    $0x80ffffff,%ecx
  6b3081:	81 c9 00 00 00 1e    	or     $0x1e000000,%ecx
  6b3087:	89 48 14             	mov    %ecx,0x14(%rax)
  6b308a:	e9 01 21 00 00       	jmpq   6b5190 <http_parser_execute+0x5c80>
  6b308f:	eb 00                	jmp    6b3091 <http_parser_execute+0x3b81>
  6b3091:	48 8b 45 f0          	mov    -0x10(%rbp),%rax
  6b3095:	8b 00                	mov    (%rax),%eax
  6b3097:	c1 e8 02             	shr    $0x2,%eax
  6b309a:	25 ff 00 00 00       	and    $0xff,%eax
  6b309f:	83 e0 10             	and    $0x10,%eax
  6b30a2:	83 f8 00             	cmp    $0x0,%eax
  6b30a5:	0f 84 40 01 00 00    	je     6b31eb <http_parser_execute+0x3cdb>
  6b30ab:	c7 45 ec 40 00 00 00 	movl   $0x40,-0x14(%rbp)
  6b30b2:	48 8b 45 f0          	mov    -0x10(%rbp),%rax
  6b30b6:	8b 40 14             	mov    0x14(%rax),%eax
  6b30b9:	c1 e8 18             	shr    $0x18,%eax
  6b30bc:	83 e0 7f             	and    $0x7f,%eax
  6b30bf:	83 f8 00             	cmp    $0x0,%eax
  6b30c2:	75 02                	jne    6b30c6 <http_parser_execute+0x3bb6>
  6b30c4:	eb 28                	jmp    6b30ee <http_parser_execute+0x3bde>
  6b30c6:	48 bf 00 2e 20 00 00 	movabs $0x202e00,%rdi
  6b30cd:	00 00 00 
  6b30d0:	48 be f5 2b 20 00 00 	movabs $0x202bf5,%rsi
  6b30d7:	00 00 00 
  6b30da:	48 b9 37 6e 20 00 00 	movabs $0x206e37,%rcx
  6b30e1:	00 00 00 
