
test_g:     file format elf64-x86-64


Disassembly of section .init:

0000000000401000 <_init>:
  401000:	f3 0f 1e fa          	endbr64 
  401004:	48 83 ec 08          	sub    $0x8,%rsp
  401008:	48 8b 05 e9 cf 4b 00 	mov    0x4bcfe9(%rip),%rax        # 8bdff8 <__gmon_start__>
  40100f:	48 85 c0             	test   %rax,%rax
  401012:	74 02                	je     401016 <_init+0x16>
  401014:	ff d0                	callq  *%rax
  401016:	48 83 c4 08          	add    $0x8,%rsp
  40101a:	c3                   	retq   

Disassembly of section .plt:

0000000000401020 <.plt>:
  401020:	ff 35 e2 cf 4b 00    	pushq  0x4bcfe2(%rip)        # 8be008 <_GLOBAL_OFFSET_TABLE_+0x8>
  401026:	ff 25 e4 cf 4b 00    	jmpq   *0x4bcfe4(%rip)        # 8be010 <_GLOBAL_OFFSET_TABLE_+0x10>
  40102c:	0f 1f 40 00          	nopl   0x0(%rax)

0000000000401030 <free@plt>:
  401030:	ff 25 e2 cf 4b 00    	jmpq   *0x4bcfe2(%rip)        # 8be018 <free@GLIBC_2.2.5>
  401036:	68 00 00 00 00       	pushq  $0x0
  40103b:	e9 e0 ff ff ff       	jmpq   401020 <.plt>

0000000000401040 <abort@plt>:
  401040:	ff 25 da cf 4b 00    	jmpq   *0x4bcfda(%rip)        # 8be020 <abort@GLIBC_2.2.5>
  401046:	68 01 00 00 00       	pushq  $0x1
  40104b:	e9 d0 ff ff ff       	jmpq   401020 <.plt>

0000000000401050 <strcpy@plt>:
  401050:	ff 25 d2 cf 4b 00    	jmpq   *0x4bcfd2(%rip)        # 8be028 <strcpy@GLIBC_2.2.5>
  401056:	68 02 00 00 00       	pushq  $0x2
  40105b:	e9 c0 ff ff ff       	jmpq   401020 <.plt>

0000000000401060 <puts@plt>:
  401060:	ff 25 ca cf 4b 00    	jmpq   *0x4bcfca(%rip)        # 8be030 <puts@GLIBC_2.2.5>
  401066:	68 03 00 00 00       	pushq  $0x3
  40106b:	e9 b0 ff ff ff       	jmpq   401020 <.plt>

0000000000401070 <strlen@plt>:
  401070:	ff 25 c2 cf 4b 00    	jmpq   *0x4bcfc2(%rip)        # 8be038 <strlen@GLIBC_2.2.5>
  401076:	68 04 00 00 00       	pushq  $0x4
  40107b:	e9 a0 ff ff ff       	jmpq   401020 <.plt>

0000000000401080 <printf@plt>:
  401080:	ff 25 ba cf 4b 00    	jmpq   *0x4bcfba(%rip)        # 8be040 <printf@GLIBC_2.2.5>
  401086:	68 05 00 00 00       	pushq  $0x5
  40108b:	e9 90 ff ff ff       	jmpq   401020 <.plt>

0000000000401090 <__assert_fail@plt>:
  401090:	ff 25 b2 cf 4b 00    	jmpq   *0x4bcfb2(%rip)        # 8be048 <__assert_fail@GLIBC_2.2.5>
  401096:	68 06 00 00 00       	pushq  $0x6
  40109b:	e9 80 ff ff ff       	jmpq   401020 <.plt>

00000000004010a0 <memset@plt>:
  4010a0:	ff 25 aa cf 4b 00    	jmpq   *0x4bcfaa(%rip)        # 8be050 <memset@GLIBC_2.2.5>
  4010a6:	68 07 00 00 00       	pushq  $0x7
  4010ab:	e9 70 ff ff ff       	jmpq   401020 <.plt>

00000000004010b0 <fputc@plt>:
  4010b0:	ff 25 a2 cf 4b 00    	jmpq   *0x4bcfa2(%rip)        # 8be058 <fputc@GLIBC_2.2.5>
  4010b6:	68 08 00 00 00       	pushq  $0x8
  4010bb:	e9 60 ff ff ff       	jmpq   401020 <.plt>

00000000004010c0 <memchr@plt>:
  4010c0:	ff 25 9a cf 4b 00    	jmpq   *0x4bcf9a(%rip)        # 8be060 <memchr@GLIBC_2.2.5>
  4010c6:	68 09 00 00 00       	pushq  $0x9
  4010cb:	e9 50 ff ff ff       	jmpq   401020 <.plt>

00000000004010d0 <memcmp@plt>:
  4010d0:	ff 25 92 cf 4b 00    	jmpq   *0x4bcf92(%rip)        # 8be068 <memcmp@GLIBC_2.2.5>
  4010d6:	68 0a 00 00 00       	pushq  $0xa
  4010db:	e9 40 ff ff ff       	jmpq   401020 <.plt>

00000000004010e0 <strcmp@plt>:
  4010e0:	ff 25 8a cf 4b 00    	jmpq   *0x4bcf8a(%rip)        # 8be070 <strcmp@GLIBC_2.2.5>
  4010e6:	68 0b 00 00 00       	pushq  $0xb
  4010eb:	e9 30 ff ff ff       	jmpq   401020 <.plt>

00000000004010f0 <fprintf@plt>:
  4010f0:	ff 25 82 cf 4b 00    	jmpq   *0x4bcf82(%rip)        # 8be078 <fprintf@GLIBC_2.2.5>
  4010f6:	68 0c 00 00 00       	pushq  $0xc
  4010fb:	e9 20 ff ff ff       	jmpq   401020 <.plt>

0000000000401100 <memcpy@plt>:
  401100:	ff 25 7a cf 4b 00    	jmpq   *0x4bcf7a(%rip)        # 8be080 <memcpy@GLIBC_2.14>
  401106:	68 0d 00 00 00       	pushq  $0xd
  40110b:	e9 10 ff ff ff       	jmpq   401020 <.plt>

0000000000401110 <malloc@plt>:
  401110:	ff 25 72 cf 4b 00    	jmpq   *0x4bcf72(%rip)        # 8be088 <malloc@GLIBC_2.2.5>
  401116:	68 0e 00 00 00       	pushq  $0xe
  40111b:	e9 00 ff ff ff       	jmpq   401020 <.plt>

0000000000401120 <fflush@plt>:
  401120:	ff 25 6a cf 4b 00    	jmpq   *0x4bcf6a(%rip)        # 8be090 <fflush@GLIBC_2.2.5>
  401126:	68 0f 00 00 00       	pushq  $0xf
  40112b:	e9 f0 fe ff ff       	jmpq   401020 <.plt>

0000000000401130 <strcat@plt>:
  401130:	ff 25 62 cf 4b 00    	jmpq   *0x4bcf62(%rip)        # 8be098 <strcat@GLIBC_2.2.5>
  401136:	68 10 00 00 00       	pushq  $0x10
  40113b:	e9 e0 fe ff ff       	jmpq   401020 <.plt>

0000000000401140 <sprintf@plt>:
  401140:	ff 25 5a cf 4b 00    	jmpq   *0x4bcf5a(%rip)        # 8be0a0 <sprintf@GLIBC_2.2.5>
  401146:	68 11 00 00 00       	pushq  $0x11
  40114b:	e9 d0 fe ff ff       	jmpq   401020 <.plt>

0000000000401150 <exit@plt>:
  401150:	ff 25 52 cf 4b 00    	jmpq   *0x4bcf52(%rip)        # 8be0a8 <exit@GLIBC_2.2.5>
  401156:	68 12 00 00 00       	pushq  $0x12
  40115b:	e9 c0 fe ff ff       	jmpq   401020 <.plt>

Disassembly of section .text:

0000000000401160 <_start>:
  401160:	f3 0f 1e fa          	endbr64 
  401164:	31 ed                	xor    %ebp,%ebp
  401166:	49 89 d1             	mov    %rdx,%r9
  401169:	5e                   	pop    %rsi
  40116a:	48 89 e2             	mov    %rsp,%rdx
  40116d:	48 83 e4 f0          	and    $0xfffffffffffffff0,%rsp
  401171:	50                   	push   %rax
  401172:	54                   	push   %rsp
  401173:	49 c7 c0 c0 eb 40 00 	mov    $0x40ebc0,%r8
  40117a:	48 c7 c1 50 eb 40 00 	mov    $0x40eb50,%rcx
  401181:	48 c7 c7 c0 e0 40 00 	mov    $0x40e0c0,%rdi
  401188:	ff 15 62 ce 4b 00    	callq  *0x4bce62(%rip)        # 8bdff0 <__libc_start_main@GLIBC_2.2.5>
  40118e:	f4                   	hlt    
  40118f:	90                   	nop

0000000000401190 <_dl_relocate_static_pie>:
  401190:	f3 0f 1e fa          	endbr64 
  401194:	c3                   	retq   
  401195:	66 2e 0f 1f 84 00 00 	nopw   %cs:0x0(%rax,%rax,1)
  40119c:	00 00 00 
  40119f:	90                   	nop

00000000004011a0 <deregister_tm_clones>:
  4011a0:	b8 08 b7 8c 00       	mov    $0x8cb708,%eax
  4011a5:	48 3d 08 b7 8c 00    	cmp    $0x8cb708,%rax
  4011ab:	74 13                	je     4011c0 <deregister_tm_clones+0x20>
  4011ad:	b8 00 00 00 00       	mov    $0x0,%eax
  4011b2:	48 85 c0             	test   %rax,%rax
  4011b5:	74 09                	je     4011c0 <deregister_tm_clones+0x20>
  4011b7:	bf 08 b7 8c 00       	mov    $0x8cb708,%edi
  4011bc:	ff e0                	jmpq   *%rax
  4011be:	66 90                	xchg   %ax,%ax
  4011c0:	c3                   	retq   
  4011c1:	66 66 2e 0f 1f 84 00 	data16 nopw %cs:0x0(%rax,%rax,1)
  4011c8:	00 00 00 00 
  4011cc:	0f 1f 40 00          	nopl   0x0(%rax)

00000000004011d0 <register_tm_clones>:
  4011d0:	be 08 b7 8c 00       	mov    $0x8cb708,%esi
  4011d5:	48 81 ee 08 b7 8c 00 	sub    $0x8cb708,%rsi
  4011dc:	48 89 f0             	mov    %rsi,%rax
  4011df:	48 c1 ee 3f          	shr    $0x3f,%rsi
  4011e3:	48 c1 f8 03          	sar    $0x3,%rax
  4011e7:	48 01 c6             	add    %rax,%rsi
  4011ea:	48 d1 fe             	sar    %rsi
  4011ed:	74 11                	je     401200 <register_tm_clones+0x30>
  4011ef:	b8 00 00 00 00       	mov    $0x0,%eax
  4011f4:	48 85 c0             	test   %rax,%rax
  4011f7:	74 07                	je     401200 <register_tm_clones+0x30>
  4011f9:	bf 08 b7 8c 00       	mov    $0x8cb708,%edi
  4011fe:	ff e0                	jmpq   *%rax
  401200:	c3                   	retq   
  401201:	66 66 2e 0f 1f 84 00 	data16 nopw %cs:0x0(%rax,%rax,1)
  401208:	00 00 00 00 
  40120c:	0f 1f 40 00          	nopl   0x0(%rax)

0000000000401210 <__do_global_dtors_aux>:
  401210:	f3 0f 1e fa          	endbr64 
  401214:	80 3d 2d a5 4c 00 00 	cmpb   $0x0,0x4ca52d(%rip)        # 8cb748 <completed.8061>
  40121b:	75 13                	jne    401230 <__do_global_dtors_aux+0x20>
  40121d:	55                   	push   %rbp
  40121e:	48 89 e5             	mov    %rsp,%rbp
  401221:	e8 7a ff ff ff       	callq  4011a0 <deregister_tm_clones>
  401226:	c6 05 1b a5 4c 00 01 	movb   $0x1,0x4ca51b(%rip)        # 8cb748 <completed.8061>
  40122d:	5d                   	pop    %rbp
  40122e:	c3                   	retq   
  40122f:	90                   	nop
  401230:	c3                   	retq   
  401231:	66 66 2e 0f 1f 84 00 	data16 nopw %cs:0x0(%rax,%rax,1)
  401238:	00 00 00 00 
  40123c:	0f 1f 40 00          	nopl   0x0(%rax)

0000000000401240 <frame_dummy>:
  401240:	f3 0f 1e fa          	endbr64 
  401244:	eb 8a                	jmp    4011d0 <register_tm_clones>
  401246:	66 2e 0f 1f 84 00 00 	nopw   %cs:0x0(%rax,%rax,1)
  40124d:	00 00 00 

0000000000401250 <http_parser_execute>:
  401250:	55                   	push   %rbp
  401251:	48 89 e5             	mov    %rsp,%rbp
  401254:	48 81 ec d0 01 00 00 	sub    $0x1d0,%rsp
  40125b:	48 89 7d f0          	mov    %rdi,-0x10(%rbp)
  40125f:	48 89 75 e8          	mov    %rsi,-0x18(%rbp)
  401263:	48 89 55 e0          	mov    %rdx,-0x20(%rbp)
  401267:	48 89 4d d8          	mov    %rcx,-0x28(%rbp)
  40126b:	48 8b 45 e0          	mov    -0x20(%rbp),%rax
  40126f:	48 89 45 c8          	mov    %rax,-0x38(%rbp)
  401273:	48 c7 45 c0 00 00 00 	movq   $0x0,-0x40(%rbp)
  40127a:	00 
  40127b:	48 c7 45 b8 00 00 00 	movq   $0x0,-0x48(%rbp)
  401282:	00 
  401283:	48 c7 45 b0 00 00 00 	movq   $0x0,-0x50(%rbp)
  40128a:	00 
  40128b:	48 c7 45 a8 00 00 00 	movq   $0x0,-0x58(%rbp)
  401292:	00 
  401293:	48 c7 45 a0 00 00 00 	movq   $0x0,-0x60(%rbp)
  40129a:	00 
  40129b:	48 8b 45 f0          	mov    -0x10(%rbp),%rax
  40129f:	8b 00                	mov    (%rax),%eax
  4012a1:	c1 e8 0a             	shr    $0xa,%eax
  4012a4:	83 e0 7f             	and    $0x7f,%eax
  4012a7:	89 45 9c             	mov    %eax,-0x64(%rbp)
  4012aa:	48 8b 45 f0          	mov    -0x10(%rbp),%rax
  4012ae:	8b 00                	mov    (%rax),%eax
  4012b0:	c1 e8 1f             	shr    $0x1f,%eax
  4012b3:	89 45 98             	mov    %eax,-0x68(%rbp)
  4012b6:	48 8b 45 f0          	mov    -0x10(%rbp),%rax
  4012ba:	8b 00                	mov    (%rax),%eax
  4012bc:	c1 e8 1e             	shr    $0x1e,%eax
  4012bf:	83 e0 01             	and    $0x1,%eax
  4012c2:	89 45 94             	mov    %eax,-0x6c(%rbp)
  4012c5:	48 8b 45 f0          	mov    -0x10(%rbp),%rax
  4012c9:	8b 40 04             	mov    0x4(%rax),%eax
  4012cc:	89 45 90             	mov    %eax,-0x70(%rbp)
  4012cf:	48 8b 45 f0          	mov    -0x10(%rbp),%rax
  4012d3:	8b 40 14             	mov    0x14(%rax),%eax
  4012d6:	c1 e8 18             	shr    $0x18,%eax
  4012d9:	83 e0 7f             	and    $0x7f,%eax
  4012dc:	83 f8 00             	cmp    $0x0,%eax
  4012df:	0f 84 0d 00 00 00    	je     4012f2 <http_parser_execute+0xa2>
  4012e5:	48 c7 45 f8 00 00 00 	movq   $0x0,-0x8(%rbp)
  4012ec:	00 
  4012ed:	e9 c1 65 00 00       	jmpq   4078b3 <http_parser_execute+0x6663>
  4012f2:	48 83 7d d8 00       	cmpq   $0x0,-0x28(%rbp)
  4012f7:	0f 85 cf 01 00 00    	jne    4014cc <http_parser_execute+0x27c>
  4012fd:	8b 45 9c             	mov    -0x64(%rbp),%eax
  401300:	89 85 24 ff ff ff    	mov    %eax,-0xdc(%rbp)
  401306:	83 c0 ff             	add    $0xffffffff,%eax
  401309:	83 e8 02             	sub    $0x2,%eax
  40130c:	0f 82 7b 01 00 00    	jb     40148d <http_parser_execute+0x23d>
  401312:	e9 00 00 00 00       	jmpq   401317 <http_parser_execute+0xc7>
  401317:	8b 85 24 ff ff ff    	mov    -0xdc(%rbp),%eax
  40131d:	83 e8 04             	sub    $0x4,%eax
  401320:	0f 84 67 01 00 00    	je     40148d <http_parser_execute+0x23d>
  401326:	e9 00 00 00 00       	jmpq   40132b <http_parser_execute+0xdb>
  40132b:	8b 85 24 ff ff ff    	mov    -0xdc(%rbp),%eax
  401331:	83 e8 12             	sub    $0x12,%eax
  401334:	0f 84 53 01 00 00    	je     40148d <http_parser_execute+0x23d>
  40133a:	e9 00 00 00 00       	jmpq   40133f <http_parser_execute+0xef>
  40133f:	8b 85 24 ff ff ff    	mov    -0xdc(%rbp),%eax
  401345:	83 e8 3f             	sub    $0x3f,%eax
  401348:	0f 85 4c 01 00 00    	jne    40149a <http_parser_execute+0x24a>
  40134e:	e9 00 00 00 00       	jmpq   401353 <http_parser_execute+0x103>
  401353:	e9 00 00 00 00       	jmpq   401358 <http_parser_execute+0x108>
  401358:	48 8b 45 f0          	mov    -0x10(%rbp),%rax
  40135c:	8b 40 14             	mov    0x14(%rax),%eax
  40135f:	c1 e8 18             	shr    $0x18,%eax
  401362:	83 e0 7f             	and    $0x7f,%eax
  401365:	83 f8 00             	cmp    $0x0,%eax
  401368:	0f 85 05 00 00 00    	jne    401373 <http_parser_execute+0x123>
  40136e:	e9 28 00 00 00       	jmpq   40139b <http_parser_execute+0x14b>
  401373:	48 bf a0 06 41 00 00 	movabs $0x4106a0,%rdi
  40137a:	00 00 00 
  40137d:	48 be c4 06 41 00 00 	movabs $0x4106c4,%rsi
  401384:	00 00 00 
  401387:	ba 9f 02 00 00       	mov    $0x29f,%edx
  40138c:	48 b9 d2 06 41 00 00 	movabs $0x4106d2,%rcx
  401393:	00 00 00 
  401396:	e8 f5 fc ff ff       	callq  401090 <__assert_fail@plt>
  40139b:	48 8b 45 e8          	mov    -0x18(%rbp),%rax
  40139f:	48 83 78 38 00       	cmpq   $0x0,0x38(%rax)
  4013a4:	0f 95 c0             	setne  %al
  4013a7:	34 ff                	xor    $0xff,%al
  4013a9:	34 ff                	xor    $0xff,%al
  4013ab:	24 01                	and    $0x1,%al
  4013ad:	0f b6 c0             	movzbl %al,%eax
  4013b0:	48 98                	cltq   
  4013b2:	48 83 f8 00          	cmp    $0x0,%rax
  4013b6:	0f 84 bf 00 00 00    	je     40147b <http_parser_execute+0x22b>
  4013bc:	8b 55 9c             	mov    -0x64(%rbp),%edx
  4013bf:	48 8b 45 f0          	mov    -0x10(%rbp),%rax
  4013c3:	8b 08                	mov    (%rax),%ecx
  4013c5:	83 e2 7f             	and    $0x7f,%edx
  4013c8:	c1 e2 0a             	shl    $0xa,%edx
  4013cb:	81 e1 ff 03 fe ff    	and    $0xfffe03ff,%ecx
  4013d1:	09 d1                	or     %edx,%ecx
  4013d3:	89 08                	mov    %ecx,(%rax)
  4013d5:	48 8b 45 e8          	mov    -0x18(%rbp),%rax
  4013d9:	48 8b 40 38          	mov    0x38(%rax),%rax
  4013dd:	48 8b 7d f0          	mov    -0x10(%rbp),%rdi
  4013e1:	ff d0                	callq  *%rax
  4013e3:	89 c1                	mov    %eax,%ecx
  4013e5:	31 c0                	xor    %eax,%eax
  4013e7:	39 c8                	cmp    %ecx,%eax
  4013e9:	0f 95 c0             	setne  %al
  4013ec:	34 ff                	xor    $0xff,%al
  4013ee:	34 ff                	xor    $0xff,%al
  4013f0:	24 01                	and    $0x1,%al
  4013f2:	0f b6 c0             	movzbl %al,%eax
  4013f5:	48 98                	cltq   
  4013f7:	48 83 f8 00          	cmp    $0x0,%rax
  4013fb:	0f 84 2a 00 00 00    	je     40142b <http_parser_execute+0x1db>
  401401:	e9 00 00 00 00       	jmpq   401406 <http_parser_execute+0x1b6>
  401406:	8b 4d 90             	mov    -0x70(%rbp),%ecx
  401409:	48 8b 45 f0          	mov    -0x10(%rbp),%rax
  40140d:	89 48 04             	mov    %ecx,0x4(%rax)
  401410:	48 8b 45 f0          	mov    -0x10(%rbp),%rax
  401414:	8b 48 14             	mov    0x14(%rax),%ecx
  401417:	81 e1 ff ff ff 80    	and    $0x80ffffff,%ecx
  40141d:	81 c9 00 00 00 07    	or     $0x7000000,%ecx
  401423:	89 48 14             	mov    %ecx,0x14(%rax)
  401426:	e9 00 00 00 00       	jmpq   40142b <http_parser_execute+0x1db>
  40142b:	48 8b 45 f0          	mov    -0x10(%rbp),%rax
  40142f:	8b 00                	mov    (%rax),%eax
  401431:	c1 e8 0a             	shr    $0xa,%eax
  401434:	83 e0 7f             	and    $0x7f,%eax
  401437:	89 45 9c             	mov    %eax,-0x64(%rbp)
  40143a:	48 8b 45 f0          	mov    -0x10(%rbp),%rax
  40143e:	8b 40 14             	mov    0x14(%rax),%eax
  401441:	c1 e8 18             	shr    $0x18,%eax
  401444:	83 e0 7f             	and    $0x7f,%eax
  401447:	83 f8 00             	cmp    $0x0,%eax
  40144a:	0f 95 c0             	setne  %al
  40144d:	34 ff                	xor    $0xff,%al
  40144f:	34 ff                	xor    $0xff,%al
  401451:	24 01                	and    $0x1,%al
  401453:	0f b6 c0             	movzbl %al,%eax
  401456:	48 98                	cltq   
  401458:	48 83 f8 00          	cmp    $0x0,%rax
  40145c:	0f 84 14 00 00 00    	je     401476 <http_parser_execute+0x226>
  401462:	48 8b 45 c8          	mov    -0x38(%rbp),%rax
  401466:	48 8b 4d e0          	mov    -0x20(%rbp),%rcx
  40146a:	48 29 c8             	sub    %rcx,%rax
  40146d:	48 89 45 f8          	mov    %rax,-0x8(%rbp)
  401471:	e9 3d 64 00 00       	jmpq   4078b3 <http_parser_execute+0x6663>
  401476:	e9 00 00 00 00       	jmpq   40147b <http_parser_execute+0x22b>
  40147b:	e9 00 00 00 00       	jmpq   401480 <http_parser_execute+0x230>
  401480:	48 c7 45 f8 00 00 00 	movq   $0x0,-0x8(%rbp)
  401487:	00 
  401488:	e9 26 64 00 00       	jmpq   4078b3 <http_parser_execute+0x6663>
  40148d:	48 c7 45 f8 00 00 00 	movq   $0x0,-0x8(%rbp)
  401494:	00 
  401495:	e9 19 64 00 00       	jmpq   4078b3 <http_parser_execute+0x6663>
  40149a:	e9 00 00 00 00       	jmpq   40149f <http_parser_execute+0x24f>
  40149f:	8b 4d 90             	mov    -0x70(%rbp),%ecx
  4014a2:	48 8b 45 f0          	mov    -0x10(%rbp),%rax
  4014a6:	89 48 04             	mov    %ecx,0x4(%rax)
  4014a9:	48 8b 45 f0          	mov    -0x10(%rbp),%rax
  4014ad:	8b 48 14             	mov    0x14(%rax),%ecx
  4014b0:	81 e1 ff ff ff 80    	and    $0x80ffffff,%ecx
  4014b6:	81 c9 00 00 00 0b    	or     $0xb000000,%ecx
  4014bc:	89 48 14             	mov    %ecx,0x14(%rax)
  4014bf:	48 c7 45 f8 01 00 00 	movq   $0x1,-0x8(%rbp)
  4014c6:	00 
  4014c7:	e9 e7 63 00 00       	jmpq   4078b3 <http_parser_execute+0x6663>
  4014cc:	83 7d 9c 2d          	cmpl   $0x2d,-0x64(%rbp)
  4014d0:	0f 85 08 00 00 00    	jne    4014de <http_parser_execute+0x28e>
  4014d6:	48 8b 45 e0          	mov    -0x20(%rbp),%rax
  4014da:	48 89 45 c0          	mov    %rax,-0x40(%rbp)
  4014de:	83 7d 9c 32          	cmpl   $0x32,-0x64(%rbp)
  4014e2:	0f 85 08 00 00 00    	jne    4014f0 <http_parser_execute+0x2a0>
  4014e8:	48 8b 45 e0          	mov    -0x20(%rbp),%rax
  4014ec:	48 89 45 b8          	mov    %rax,-0x48(%rbp)
  4014f0:	8b 45 9c             	mov    -0x64(%rbp),%eax
  4014f3:	89 85 20 ff ff ff    	mov    %eax,-0xe0(%rbp)
  4014f9:	83 e8 10             	sub    $0x10,%eax
  4014fc:	0f 84 29 00 00 00    	je     40152b <http_parser_execute+0x2db>
  401502:	e9 00 00 00 00       	jmpq   401507 <http_parser_execute+0x2b7>
  401507:	8b 85 20 ff ff ff    	mov    -0xe0(%rbp),%eax
  40150d:	83 c0 eb             	add    $0xffffffeb,%eax
  401510:	83 e8 0a             	sub    $0xa,%eax
  401513:	0f 87 1f 00 00 00    	ja     401538 <http_parser_execute+0x2e8>
  401519:	e9 00 00 00 00       	jmpq   40151e <http_parser_execute+0x2ce>
  40151e:	48 8b 45 e0          	mov    -0x20(%rbp),%rax
  401522:	48 89 45 b0          	mov    %rax,-0x50(%rbp)
  401526:	e9 12 00 00 00       	jmpq   40153d <http_parser_execute+0x2ed>
  40152b:	48 8b 45 e0          	mov    -0x20(%rbp),%rax
  40152f:	48 89 45 a0          	mov    %rax,-0x60(%rbp)
  401533:	e9 05 00 00 00       	jmpq   40153d <http_parser_execute+0x2ed>
  401538:	e9 00 00 00 00       	jmpq   40153d <http_parser_execute+0x2ed>
  40153d:	48 8b 45 e0          	mov    -0x20(%rbp),%rax
  401541:	48 89 45 c8          	mov    %rax,-0x38(%rbp)
  401545:	48 8b 45 c8          	mov    -0x38(%rbp),%rax
  401549:	48 8b 4d e0          	mov    -0x20(%rbp),%rcx
  40154d:	48 03 4d d8          	add    -0x28(%rbp),%rcx
  401551:	48 39 c8             	cmp    %rcx,%rax
  401554:	0f 84 8a 5b 00 00    	je     4070e4 <http_parser_execute+0x5e94>
  40155a:	48 8b 45 c8          	mov    -0x38(%rbp),%rax
  40155e:	8a 00                	mov    (%rax),%al
  401560:	88 45 d6             	mov    %al,-0x2a(%rbp)
  401563:	83 7d 9c 3a          	cmpl   $0x3a,-0x64(%rbp)
  401567:	0f 87 64 00 00 00    	ja     4015d1 <http_parser_execute+0x381>
  40156d:	e9 00 00 00 00       	jmpq   401572 <http_parser_execute+0x322>
  401572:	8b 45 90             	mov    -0x70(%rbp),%eax
  401575:	83 c0 01             	add    $0x1,%eax
  401578:	89 45 90             	mov    %eax,-0x70(%rbp)
  40157b:	8b 45 90             	mov    -0x70(%rbp),%eax
  40157e:	3b 04 25 c0 e0 8b 00 	cmp    0x8be0c0,%eax
  401585:	0f 97 c0             	seta   %al
  401588:	34 ff                	xor    $0xff,%al
  40158a:	34 ff                	xor    $0xff,%al
  40158c:	24 01                	and    $0x1,%al
  40158e:	0f b6 c0             	movzbl %al,%eax
  401591:	48 98                	cltq   
  401593:	48 83 f8 00          	cmp    $0x0,%rax
  401597:	0f 84 2a 00 00 00    	je     4015c7 <http_parser_execute+0x377>
  40159d:	e9 00 00 00 00       	jmpq   4015a2 <http_parser_execute+0x352>
  4015a2:	8b 4d 90             	mov    -0x70(%rbp),%ecx
  4015a5:	48 8b 45 f0          	mov    -0x10(%rbp),%rax
  4015a9:	89 48 04             	mov    %ecx,0x4(%rax)
  4015ac:	48 8b 45 f0          	mov    -0x10(%rbp),%rax
  4015b0:	8b 48 14             	mov    0x14(%rax),%ecx
  4015b3:	81 e1 ff ff ff 80    	and    $0x80ffffff,%ecx
  4015b9:	81 c9 00 00 00 0c    	or     $0xc000000,%ecx
  4015bf:	89 48 14             	mov    %ecx,0x14(%rax)
  4015c2:	e9 75 62 00 00       	jmpq   40783c <http_parser_execute+0x65ec>
  4015c7:	e9 00 00 00 00       	jmpq   4015cc <http_parser_execute+0x37c>
  4015cc:	e9 00 00 00 00       	jmpq   4015d1 <http_parser_execute+0x381>
  4015d1:	e9 00 00 00 00       	jmpq   4015d6 <http_parser_execute+0x386>
  4015d6:	8b 45 9c             	mov    -0x64(%rbp),%eax
  4015d9:	83 c0 ff             	add    $0xffffffff,%eax
  4015dc:	89 c1                	mov    %eax,%ecx
  4015de:	48 89 8d 18 ff ff ff 	mov    %rcx,-0xe8(%rbp)
  4015e5:	83 e8 3f             	sub    $0x3f,%eax
  4015e8:	0f 87 b8 5a 00 00    	ja     4070a6 <http_parser_execute+0x5e56>
  4015ee:	48 8b 85 18 ff ff ff 	mov    -0xe8(%rbp),%rax
  4015f5:	48 8b 04 c5 10 f0 40 	mov    0x40f010(,%rax,8),%rax
  4015fc:	00 
  4015fd:	ff e0                	jmpq   *%rax
  4015ff:	0f be 4d d6          	movsbl -0x2a(%rbp),%ecx
  401603:	b0 01                	mov    $0x1,%al
  401605:	83 f9 0d             	cmp    $0xd,%ecx
  401608:	88 85 17 ff ff ff    	mov    %al,-0xe9(%rbp)
  40160e:	0f 84 10 00 00 00    	je     401624 <http_parser_execute+0x3d4>
  401614:	0f be 45 d6          	movsbl -0x2a(%rbp),%eax
  401618:	83 f8 0a             	cmp    $0xa,%eax
  40161b:	0f 94 c0             	sete   %al
  40161e:	88 85 17 ff ff ff    	mov    %al,-0xe9(%rbp)
  401624:	8a 85 17 ff ff ff    	mov    -0xe9(%rbp),%al
  40162a:	34 ff                	xor    $0xff,%al
  40162c:	34 ff                	xor    $0xff,%al
  40162e:	24 01                	and    $0x1,%al
  401630:	0f b6 c0             	movzbl %al,%eax
  401633:	48 98                	cltq   
  401635:	48 83 f8 00          	cmp    $0x0,%rax
  401639:	0f 84 05 00 00 00    	je     401644 <http_parser_execute+0x3f4>
  40163f:	e9 8a 5a 00 00       	jmpq   4070ce <http_parser_execute+0x5e7e>
  401644:	e9 00 00 00 00       	jmpq   401649 <http_parser_execute+0x3f9>
  401649:	8b 4d 90             	mov    -0x70(%rbp),%ecx
  40164c:	48 8b 45 f0          	mov    -0x10(%rbp),%rax
  401650:	89 48 04             	mov    %ecx,0x4(%rax)
  401653:	48 8b 45 f0          	mov    -0x10(%rbp),%rax
  401657:	8b 48 14             	mov    0x14(%rax),%ecx
  40165a:	81 e1 ff ff ff 80    	and    $0x80ffffff,%ecx
  401660:	81 c9 00 00 00 0d    	or     $0xd000000,%ecx
  401666:	89 48 14             	mov    %ecx,0x14(%rax)
  401669:	e9 ce 61 00 00       	jmpq   40783c <http_parser_execute+0x65ec>
  40166e:	0f be 45 d6          	movsbl -0x2a(%rbp),%eax
  401672:	83 f8 0d             	cmp    $0xd,%eax
  401675:	0f 84 0d 00 00 00    	je     401688 <http_parser_execute+0x438>
  40167b:	0f be 45 d6          	movsbl -0x2a(%rbp),%eax
  40167f:	83 f8 0a             	cmp    $0xa,%eax
  401682:	0f 85 05 00 00 00    	jne    40168d <http_parser_execute+0x43d>
  401688:	e9 41 5a 00 00       	jmpq   4070ce <http_parser_execute+0x5e7e>
  40168d:	48 8b 45 f0          	mov    -0x10(%rbp),%rax
  401691:	8b 08                	mov    (%rax),%ecx
  401693:	81 e1 03 fc ff ff    	and    $0xfffffc03,%ecx
  401699:	83 c9 00             	or     $0x0,%ecx
  40169c:	89 08                	mov    %ecx,(%rax)
  40169e:	48 8b 45 f0          	mov    -0x10(%rbp),%rax
  4016a2:	8b 08                	mov    (%rax),%ecx
  4016a4:	81 e1 ff ff ff df    	and    $0xdfffffff,%ecx
  4016aa:	83 c9 00             	or     $0x0,%ecx
  4016ad:	89 08                	mov    %ecx,(%rax)
  4016af:	48 8b 45 f0          	mov    -0x10(%rbp),%rax
  4016b3:	48 c7 40 08 ff ff ff 	movq   $0xffffffffffffffff,0x8(%rax)
  4016ba:	ff 
  4016bb:	0f be 45 d6          	movsbl -0x2a(%rbp),%eax
  4016bf:	83 f8 48             	cmp    $0x48,%eax
  4016c2:	0f 85 36 01 00 00    	jne    4017fe <http_parser_execute+0x5ae>
  4016c8:	c7 45 9c 03 00 00 00 	movl   $0x3,-0x64(%rbp)
  4016cf:	48 8b 45 f0          	mov    -0x10(%rbp),%rax
  4016d3:	8b 40 14             	mov    0x14(%rax),%eax
  4016d6:	c1 e8 18             	shr    $0x18,%eax
  4016d9:	83 e0 7f             	and    $0x7f,%eax
  4016dc:	83 f8 00             	cmp    $0x0,%eax
  4016df:	0f 85 05 00 00 00    	jne    4016ea <http_parser_execute+0x49a>
  4016e5:	e9 28 00 00 00       	jmpq   401712 <http_parser_execute+0x4c2>
  4016ea:	48 bf a0 06 41 00 00 	movabs $0x4106a0,%rdi
  4016f1:	00 00 00 
  4016f4:	48 be c4 06 41 00 00 	movabs $0x4106c4,%rsi
  4016fb:	00 00 00 
  4016fe:	ba e6 02 00 00       	mov    $0x2e6,%edx
  401703:	48 b9 d2 06 41 00 00 	movabs $0x4106d2,%rcx
  40170a:	00 00 00 
  40170d:	e8 7e f9 ff ff       	callq  401090 <__assert_fail@plt>
  401712:	48 8b 45 e8          	mov    -0x18(%rbp),%rax
  401716:	48 83 38 00          	cmpq   $0x0,(%rax)
  40171a:	0f 95 c0             	setne  %al
  40171d:	34 ff                	xor    $0xff,%al
  40171f:	34 ff                	xor    $0xff,%al
  401721:	24 01                	and    $0x1,%al
  401723:	0f b6 c0             	movzbl %al,%eax
  401726:	48 98                	cltq   
  401728:	48 83 f8 00          	cmp    $0x0,%rax
  40172c:	0f 84 c2 00 00 00    	je     4017f4 <http_parser_execute+0x5a4>
  401732:	8b 55 9c             	mov    -0x64(%rbp),%edx
  401735:	48 8b 45 f0          	mov    -0x10(%rbp),%rax
  401739:	8b 08                	mov    (%rax),%ecx
  40173b:	83 e2 7f             	and    $0x7f,%edx
  40173e:	c1 e2 0a             	shl    $0xa,%edx
  401741:	81 e1 ff 03 fe ff    	and    $0xfffe03ff,%ecx
  401747:	09 d1                	or     %edx,%ecx
  401749:	89 08                	mov    %ecx,(%rax)
  40174b:	48 8b 45 e8          	mov    -0x18(%rbp),%rax
  40174f:	48 8b 00             	mov    (%rax),%rax
  401752:	48 8b 7d f0          	mov    -0x10(%rbp),%rdi
  401756:	ff d0                	callq  *%rax
  401758:	89 c1                	mov    %eax,%ecx
  40175a:	31 c0                	xor    %eax,%eax
  40175c:	39 c8                	cmp    %ecx,%eax
  40175e:	0f 95 c0             	setne  %al
  401761:	34 ff                	xor    $0xff,%al
  401763:	34 ff                	xor    $0xff,%al
  401765:	24 01                	and    $0x1,%al
  401767:	0f b6 c0             	movzbl %al,%eax
  40176a:	48 98                	cltq   
  40176c:	48 83 f8 00          	cmp    $0x0,%rax
  401770:	0f 84 2a 00 00 00    	je     4017a0 <http_parser_execute+0x550>
  401776:	e9 00 00 00 00       	jmpq   40177b <http_parser_execute+0x52b>
  40177b:	8b 4d 90             	mov    -0x70(%rbp),%ecx
  40177e:	48 8b 45 f0          	mov    -0x10(%rbp),%rax
  401782:	89 48 04             	mov    %ecx,0x4(%rax)
  401785:	48 8b 45 f0          	mov    -0x10(%rbp),%rax
  401789:	8b 48 14             	mov    0x14(%rax),%ecx
  40178c:	81 e1 ff ff ff 80    	and    $0x80ffffff,%ecx
  401792:	81 c9 00 00 00 01    	or     $0x1000000,%ecx
  401798:	89 48 14             	mov    %ecx,0x14(%rax)
  40179b:	e9 00 00 00 00       	jmpq   4017a0 <http_parser_execute+0x550>
  4017a0:	48 8b 45 f0          	mov    -0x10(%rbp),%rax
  4017a4:	8b 00                	mov    (%rax),%eax
  4017a6:	c1 e8 0a             	shr    $0xa,%eax
  4017a9:	83 e0 7f             	and    $0x7f,%eax
  4017ac:	89 45 9c             	mov    %eax,-0x64(%rbp)
  4017af:	48 8b 45 f0          	mov    -0x10(%rbp),%rax
  4017b3:	8b 40 14             	mov    0x14(%rax),%eax
  4017b6:	c1 e8 18             	shr    $0x18,%eax
  4017b9:	83 e0 7f             	and    $0x7f,%eax
  4017bc:	83 f8 00             	cmp    $0x0,%eax
  4017bf:	0f 95 c0             	setne  %al
  4017c2:	34 ff                	xor    $0xff,%al
  4017c4:	34 ff                	xor    $0xff,%al
  4017c6:	24 01                	and    $0x1,%al
  4017c8:	0f b6 c0             	movzbl %al,%eax
  4017cb:	48 98                	cltq   
  4017cd:	48 83 f8 00          	cmp    $0x0,%rax
  4017d1:	0f 84 18 00 00 00    	je     4017ef <http_parser_execute+0x59f>
  4017d7:	48 8b 45 c8          	mov    -0x38(%rbp),%rax
  4017db:	48 8b 4d e0          	mov    -0x20(%rbp),%rcx
  4017df:	48 29 c8             	sub    %rcx,%rax
  4017e2:	48 83 c0 01          	add    $0x1,%rax
  4017e6:	48 89 45 f8          	mov    %rax,-0x8(%rbp)
  4017ea:	e9 c4 60 00 00       	jmpq   4078b3 <http_parser_execute+0x6663>
  4017ef:	e9 00 00 00 00       	jmpq   4017f4 <http_parser_execute+0x5a4>
  4017f4:	e9 00 00 00 00       	jmpq   4017f9 <http_parser_execute+0x5a9>
  4017f9:	e9 1a 00 00 00       	jmpq   401818 <http_parser_execute+0x5c8>
  4017fe:	48 8b 45 f0          	mov    -0x10(%rbp),%rax
  401802:	8b 08                	mov    (%rax),%ecx
  401804:	83 e1 fc             	and    $0xfffffffc,%ecx
  401807:	83 c9 00             	or     $0x0,%ecx
  40180a:	89 08                	mov    %ecx,(%rax)
  40180c:	c7 45 9c 12 00 00 00 	movl   $0x12,-0x64(%rbp)
  401813:	e9 be fd ff ff       	jmpq   4015d6 <http_parser_execute+0x386>
  401818:	e9 b1 58 00 00       	jmpq   4070ce <http_parser_execute+0x5e7e>
  40181d:	0f be 45 d6          	movsbl -0x2a(%rbp),%eax
  401821:	83 f8 54             	cmp    $0x54,%eax
  401824:	0f 85 1a 00 00 00    	jne    401844 <http_parser_execute+0x5f4>
  40182a:	48 8b 45 f0          	mov    -0x10(%rbp),%rax
  40182e:	8b 08                	mov    (%rax),%ecx
  401830:	83 e1 fc             	and    $0xfffffffc,%ecx
  401833:	83 c9 01             	or     $0x1,%ecx
  401836:	89 08                	mov    %ecx,(%rax)
  401838:	c7 45 9c 06 00 00 00 	movl   $0x6,-0x64(%rbp)
  40183f:	e9 88 00 00 00       	jmpq   4018cc <http_parser_execute+0x67c>
  401844:	0f be 45 d6          	movsbl -0x2a(%rbp),%eax
  401848:	83 f8 45             	cmp    $0x45,%eax
  40184b:	0f 95 c0             	setne  %al
  40184e:	34 ff                	xor    $0xff,%al
  401850:	34 ff                	xor    $0xff,%al
  401852:	24 01                	and    $0x1,%al
  401854:	0f b6 c0             	movzbl %al,%eax
  401857:	48 98                	cltq   
  401859:	48 83 f8 00          	cmp    $0x0,%rax
  40185d:	0f 84 2a 00 00 00    	je     40188d <http_parser_execute+0x63d>
  401863:	e9 00 00 00 00       	jmpq   401868 <http_parser_execute+0x618>
  401868:	8b 4d 90             	mov    -0x70(%rbp),%ecx
  40186b:	48 8b 45 f0          	mov    -0x10(%rbp),%rax
  40186f:	89 48 04             	mov    %ecx,0x4(%rax)
  401872:	48 8b 45 f0          	mov    -0x10(%rbp),%rax
  401876:	8b 48 14             	mov    0x14(%rax),%ecx
  401879:	81 e1 ff ff ff 80    	and    $0x80ffffff,%ecx
  40187f:	81 c9 00 00 00 1c    	or     $0x1c000000,%ecx
  401885:	89 48 14             	mov    %ecx,0x14(%rax)
  401888:	e9 af 5f 00 00       	jmpq   40783c <http_parser_execute+0x65ec>
  40188d:	48 8b 45 f0          	mov    -0x10(%rbp),%rax
  401891:	8b 08                	mov    (%rax),%ecx
  401893:	83 e1 fc             	and    $0xfffffffc,%ecx
  401896:	83 c9 00             	or     $0x0,%ecx
  401899:	89 08                	mov    %ecx,(%rax)
  40189b:	48 8b 45 f0          	mov    -0x10(%rbp),%rax
  40189f:	8b 48 14             	mov    0x14(%rax),%ecx
  4018a2:	81 e1 ff ff 00 ff    	and    $0xff00ffff,%ecx
  4018a8:	81 c9 00 00 02 00    	or     $0x20000,%ecx
  4018ae:	89 48 14             	mov    %ecx,0x14(%rax)
  4018b1:	48 8b 45 f0          	mov    -0x10(%rbp),%rax
  4018b5:	8b 08                	mov    (%rax),%ecx
  4018b7:	81 e1 ff ff ff e0    	and    $0xe0ffffff,%ecx
  4018bd:	81 c9 00 00 00 02    	or     $0x2000000,%ecx
  4018c3:	89 08                	mov    %ecx,(%rax)
  4018c5:	c7 45 9c 13 00 00 00 	movl   $0x13,-0x64(%rbp)
  4018cc:	e9 fd 57 00 00       	jmpq   4070ce <http_parser_execute+0x5e7e>
  4018d1:	0f be 45 d6          	movsbl -0x2a(%rbp),%eax
  4018d5:	83 f8 0d             	cmp    $0xd,%eax
  4018d8:	0f 84 0d 00 00 00    	je     4018eb <http_parser_execute+0x69b>
  4018de:	0f be 45 d6          	movsbl -0x2a(%rbp),%eax
  4018e2:	83 f8 0a             	cmp    $0xa,%eax
  4018e5:	0f 85 05 00 00 00    	jne    4018f0 <http_parser_execute+0x6a0>
  4018eb:	e9 de 57 00 00       	jmpq   4070ce <http_parser_execute+0x5e7e>
  4018f0:	48 8b 45 f0          	mov    -0x10(%rbp),%rax
  4018f4:	8b 08                	mov    (%rax),%ecx
  4018f6:	81 e1 03 fc ff ff    	and    $0xfffffc03,%ecx
  4018fc:	83 c9 00             	or     $0x0,%ecx
  4018ff:	89 08                	mov    %ecx,(%rax)
  401901:	48 8b 45 f0          	mov    -0x10(%rbp),%rax
  401905:	8b 08                	mov    (%rax),%ecx
  401907:	81 e1 ff ff ff df    	and    $0xdfffffff,%ecx
  40190d:	83 c9 00             	or     $0x0,%ecx
  401910:	89 08                	mov    %ecx,(%rax)
  401912:	48 8b 45 f0          	mov    -0x10(%rbp),%rax
  401916:	48 c7 40 08 ff ff ff 	movq   $0xffffffffffffffff,0x8(%rax)
  40191d:	ff 
  40191e:	0f be 45 d6          	movsbl -0x2a(%rbp),%eax
  401922:	83 f8 48             	cmp    $0x48,%eax
  401925:	0f 85 0c 00 00 00    	jne    401937 <http_parser_execute+0x6e7>
  40192b:	c7 45 9c 05 00 00 00 	movl   $0x5,-0x64(%rbp)
  401932:	e9 2a 00 00 00       	jmpq   401961 <http_parser_execute+0x711>
  401937:	e9 00 00 00 00       	jmpq   40193c <http_parser_execute+0x6ec>
  40193c:	8b 4d 90             	mov    -0x70(%rbp),%ecx
  40193f:	48 8b 45 f0          	mov    -0x10(%rbp),%rax
  401943:	89 48 04             	mov    %ecx,0x4(%rax)
  401946:	48 8b 45 f0          	mov    -0x10(%rbp),%rax
  40194a:	8b 48 14             	mov    0x14(%rax),%ecx
  40194d:	81 e1 ff ff ff 80    	and    $0x80ffffff,%ecx
  401953:	81 c9 00 00 00 1c    	or     $0x1c000000,%ecx
  401959:	89 48 14             	mov    %ecx,0x14(%rax)
  40195c:	e9 db 5e 00 00       	jmpq   40783c <http_parser_execute+0x65ec>
  401961:	e9 00 00 00 00       	jmpq   401966 <http_parser_execute+0x716>
  401966:	48 8b 45 f0          	mov    -0x10(%rbp),%rax
  40196a:	8b 40 14             	mov    0x14(%rax),%eax
  40196d:	c1 e8 18             	shr    $0x18,%eax
  401970:	83 e0 7f             	and    $0x7f,%eax
  401973:	83 f8 00             	cmp    $0x0,%eax
  401976:	0f 85 05 00 00 00    	jne    401981 <http_parser_execute+0x731>
  40197c:	e9 28 00 00 00       	jmpq   4019a9 <http_parser_execute+0x759>
  401981:	48 bf a0 06 41 00 00 	movabs $0x4106a0,%rdi
  401988:	00 00 00 
  40198b:	48 be c4 06 41 00 00 	movabs $0x4106c4,%rsi
  401992:	00 00 00 
  401995:	ba 10 03 00 00       	mov    $0x310,%edx
  40199a:	48 b9 d2 06 41 00 00 	movabs $0x4106d2,%rcx
  4019a1:	00 00 00 
  4019a4:	e8 e7 f6 ff ff       	callq  401090 <__assert_fail@plt>
  4019a9:	48 8b 45 e8          	mov    -0x18(%rbp),%rax
  4019ad:	48 83 38 00          	cmpq   $0x0,(%rax)
  4019b1:	0f 95 c0             	setne  %al
  4019b4:	34 ff                	xor    $0xff,%al
  4019b6:	34 ff                	xor    $0xff,%al
  4019b8:	24 01                	and    $0x1,%al
  4019ba:	0f b6 c0             	movzbl %al,%eax
  4019bd:	48 98                	cltq   
  4019bf:	48 83 f8 00          	cmp    $0x0,%rax
  4019c3:	0f 84 c2 00 00 00    	je     401a8b <http_parser_execute+0x83b>
  4019c9:	8b 55 9c             	mov    -0x64(%rbp),%edx
  4019cc:	48 8b 45 f0          	mov    -0x10(%rbp),%rax
  4019d0:	8b 08                	mov    (%rax),%ecx
  4019d2:	83 e2 7f             	and    $0x7f,%edx
  4019d5:	c1 e2 0a             	shl    $0xa,%edx
  4019d8:	81 e1 ff 03 fe ff    	and    $0xfffe03ff,%ecx
  4019de:	09 d1                	or     %edx,%ecx
  4019e0:	89 08                	mov    %ecx,(%rax)
  4019e2:	48 8b 45 e8          	mov    -0x18(%rbp),%rax
  4019e6:	48 8b 00             	mov    (%rax),%rax
  4019e9:	48 8b 7d f0          	mov    -0x10(%rbp),%rdi
  4019ed:	ff d0                	callq  *%rax
  4019ef:	89 c1                	mov    %eax,%ecx
  4019f1:	31 c0                	xor    %eax,%eax
  4019f3:	39 c8                	cmp    %ecx,%eax
  4019f5:	0f 95 c0             	setne  %al
  4019f8:	34 ff                	xor    $0xff,%al
  4019fa:	34 ff                	xor    $0xff,%al
  4019fc:	24 01                	and    $0x1,%al
  4019fe:	0f b6 c0             	movzbl %al,%eax
  401a01:	48 98                	cltq   
  401a03:	48 83 f8 00          	cmp    $0x0,%rax
  401a07:	0f 84 2a 00 00 00    	je     401a37 <http_parser_execute+0x7e7>
  401a0d:	e9 00 00 00 00       	jmpq   401a12 <http_parser_execute+0x7c2>
  401a12:	8b 4d 90             	mov    -0x70(%rbp),%ecx
  401a15:	48 8b 45 f0          	mov    -0x10(%rbp),%rax
  401a19:	89 48 04             	mov    %ecx,0x4(%rax)
  401a1c:	48 8b 45 f0          	mov    -0x10(%rbp),%rax
  401a20:	8b 48 14             	mov    0x14(%rax),%ecx
  401a23:	81 e1 ff ff ff 80    	and    $0x80ffffff,%ecx
  401a29:	81 c9 00 00 00 01    	or     $0x1000000,%ecx
  401a2f:	89 48 14             	mov    %ecx,0x14(%rax)
  401a32:	e9 00 00 00 00       	jmpq   401a37 <http_parser_execute+0x7e7>
  401a37:	48 8b 45 f0          	mov    -0x10(%rbp),%rax
  401a3b:	8b 00                	mov    (%rax),%eax
  401a3d:	c1 e8 0a             	shr    $0xa,%eax
  401a40:	83 e0 7f             	and    $0x7f,%eax
  401a43:	89 45 9c             	mov    %eax,-0x64(%rbp)
  401a46:	48 8b 45 f0          	mov    -0x10(%rbp),%rax
  401a4a:	8b 40 14             	mov    0x14(%rax),%eax
  401a4d:	c1 e8 18             	shr    $0x18,%eax
  401a50:	83 e0 7f             	and    $0x7f,%eax
  401a53:	83 f8 00             	cmp    $0x0,%eax
  401a56:	0f 95 c0             	setne  %al
  401a59:	34 ff                	xor    $0xff,%al
  401a5b:	34 ff                	xor    $0xff,%al
  401a5d:	24 01                	and    $0x1,%al
  401a5f:	0f b6 c0             	movzbl %al,%eax
  401a62:	48 98                	cltq   
  401a64:	48 83 f8 00          	cmp    $0x0,%rax
  401a68:	0f 84 18 00 00 00    	je     401a86 <http_parser_execute+0x836>
  401a6e:	48 8b 45 c8          	mov    -0x38(%rbp),%rax
  401a72:	48 8b 4d e0          	mov    -0x20(%rbp),%rcx
  401a76:	48 29 c8             	sub    %rcx,%rax
  401a79:	48 83 c0 01          	add    $0x1,%rax
  401a7d:	48 89 45 f8          	mov    %rax,-0x8(%rbp)
  401a81:	e9 2d 5e 00 00       	jmpq   4078b3 <http_parser_execute+0x6663>
  401a86:	e9 00 00 00 00       	jmpq   401a8b <http_parser_execute+0x83b>
  401a8b:	e9 00 00 00 00       	jmpq   401a90 <http_parser_execute+0x840>
  401a90:	e9 39 56 00 00       	jmpq   4070ce <http_parser_execute+0x5e7e>
  401a95:	e9 00 00 00 00       	jmpq   401a9a <http_parser_execute+0x84a>
  401a9a:	0f be 45 d6          	movsbl -0x2a(%rbp),%eax
  401a9e:	83 f8 54             	cmp    $0x54,%eax
  401aa1:	0f 84 2a 00 00 00    	je     401ad1 <http_parser_execute+0x881>
  401aa7:	e9 00 00 00 00       	jmpq   401aac <http_parser_execute+0x85c>
  401aac:	8b 4d 90             	mov    -0x70(%rbp),%ecx
  401aaf:	48 8b 45 f0          	mov    -0x10(%rbp),%rax
  401ab3:	89 48 04             	mov    %ecx,0x4(%rax)
  401ab6:	48 8b 45 f0          	mov    -0x10(%rbp),%rax
  401aba:	8b 48 14             	mov    0x14(%rax),%ecx
  401abd:	81 e1 ff ff ff 80    	and    $0x80ffffff,%ecx
  401ac3:	81 c9 00 00 00 1e    	or     $0x1e000000,%ecx
  401ac9:	89 48 14             	mov    %ecx,0x14(%rax)
  401acc:	e9 6b 5d 00 00       	jmpq   40783c <http_parser_execute+0x65ec>
  401ad1:	e9 00 00 00 00       	jmpq   401ad6 <http_parser_execute+0x886>
  401ad6:	c7 45 9c 06 00 00 00 	movl   $0x6,-0x64(%rbp)
  401add:	e9 ec 55 00 00       	jmpq   4070ce <http_parser_execute+0x5e7e>
  401ae2:	e9 00 00 00 00       	jmpq   401ae7 <http_parser_execute+0x897>
  401ae7:	0f be 45 d6          	movsbl -0x2a(%rbp),%eax
  401aeb:	83 f8 54             	cmp    $0x54,%eax
  401aee:	0f 84 2a 00 00 00    	je     401b1e <http_parser_execute+0x8ce>
  401af4:	e9 00 00 00 00       	jmpq   401af9 <http_parser_execute+0x8a9>
  401af9:	8b 4d 90             	mov    -0x70(%rbp),%ecx
  401afc:	48 8b 45 f0          	mov    -0x10(%rbp),%rax
  401b00:	89 48 04             	mov    %ecx,0x4(%rax)
  401b03:	48 8b 45 f0          	mov    -0x10(%rbp),%rax
  401b07:	8b 48 14             	mov    0x14(%rax),%ecx
  401b0a:	81 e1 ff ff ff 80    	and    $0x80ffffff,%ecx
  401b10:	81 c9 00 00 00 1e    	or     $0x1e000000,%ecx
  401b16:	89 48 14             	mov    %ecx,0x14(%rax)
  401b19:	e9 1e 5d 00 00       	jmpq   40783c <http_parser_execute+0x65ec>
  401b1e:	e9 00 00 00 00       	jmpq   401b23 <http_parser_execute+0x8d3>
  401b23:	c7 45 9c 07 00 00 00 	movl   $0x7,-0x64(%rbp)
  401b2a:	e9 9f 55 00 00       	jmpq   4070ce <http_parser_execute+0x5e7e>
  401b2f:	e9 00 00 00 00       	jmpq   401b34 <http_parser_execute+0x8e4>
  401b34:	0f be 45 d6          	movsbl -0x2a(%rbp),%eax
  401b38:	83 f8 50             	cmp    $0x50,%eax
  401b3b:	0f 84 2a 00 00 00    	je     401b6b <http_parser_execute+0x91b>
  401b41:	e9 00 00 00 00       	jmpq   401b46 <http_parser_execute+0x8f6>
  401b46:	8b 4d 90             	mov    -0x70(%rbp),%ecx
  401b49:	48 8b 45 f0          	mov    -0x10(%rbp),%rax
  401b4d:	89 48 04             	mov    %ecx,0x4(%rax)
  401b50:	48 8b 45 f0          	mov    -0x10(%rbp),%rax
  401b54:	8b 48 14             	mov    0x14(%rax),%ecx
  401b57:	81 e1 ff ff ff 80    	and    $0x80ffffff,%ecx
  401b5d:	81 c9 00 00 00 1e    	or     $0x1e000000,%ecx
  401b63:	89 48 14             	mov    %ecx,0x14(%rax)
  401b66:	e9 d1 5c 00 00       	jmpq   40783c <http_parser_execute+0x65ec>
  401b6b:	e9 00 00 00 00       	jmpq   401b70 <http_parser_execute+0x920>
  401b70:	c7 45 9c 08 00 00 00 	movl   $0x8,-0x64(%rbp)
  401b77:	e9 52 55 00 00       	jmpq   4070ce <http_parser_execute+0x5e7e>
  401b7c:	e9 00 00 00 00       	jmpq   401b81 <http_parser_execute+0x931>
  401b81:	0f be 45 d6          	movsbl -0x2a(%rbp),%eax
  401b85:	83 f8 2f             	cmp    $0x2f,%eax
  401b88:	0f 84 2a 00 00 00    	je     401bb8 <http_parser_execute+0x968>
  401b8e:	e9 00 00 00 00       	jmpq   401b93 <http_parser_execute+0x943>
  401b93:	8b 4d 90             	mov    -0x70(%rbp),%ecx
  401b96:	48 8b 45 f0          	mov    -0x10(%rbp),%rax
  401b9a:	89 48 04             	mov    %ecx,0x4(%rax)
  401b9d:	48 8b 45 f0          	mov    -0x10(%rbp),%rax
  401ba1:	8b 48 14             	mov    0x14(%rax),%ecx
  401ba4:	81 e1 ff ff ff 80    	and    $0x80ffffff,%ecx
  401baa:	81 c9 00 00 00 1e    	or     $0x1e000000,%ecx
  401bb0:	89 48 14             	mov    %ecx,0x14(%rax)
  401bb3:	e9 84 5c 00 00       	jmpq   40783c <http_parser_execute+0x65ec>
  401bb8:	e9 00 00 00 00       	jmpq   401bbd <http_parser_execute+0x96d>
  401bbd:	c7 45 9c 09 00 00 00 	movl   $0x9,-0x64(%rbp)
  401bc4:	e9 05 55 00 00       	jmpq   4070ce <http_parser_execute+0x5e7e>
  401bc9:	0f be 4d d6          	movsbl -0x2a(%rbp),%ecx
  401bcd:	31 c0                	xor    %eax,%eax
  401bcf:	83 f9 30             	cmp    $0x30,%ecx
  401bd2:	88 85 16 ff ff ff    	mov    %al,-0xea(%rbp)
  401bd8:	0f 8c 10 00 00 00    	jl     401bee <http_parser_execute+0x99e>
  401bde:	0f be 45 d6          	movsbl -0x2a(%rbp),%eax
  401be2:	83 f8 39             	cmp    $0x39,%eax
  401be5:	0f 9e c0             	setle  %al
  401be8:	88 85 16 ff ff ff    	mov    %al,-0xea(%rbp)
  401bee:	8a 85 16 ff ff ff    	mov    -0xea(%rbp),%al
  401bf4:	34 ff                	xor    $0xff,%al
  401bf6:	34 ff                	xor    $0xff,%al
  401bf8:	34 ff                	xor    $0xff,%al
  401bfa:	24 01                	and    $0x1,%al
  401bfc:	0f b6 c0             	movzbl %al,%eax
  401bff:	48 98                	cltq   
  401c01:	48 83 f8 00          	cmp    $0x0,%rax
  401c05:	0f 84 2a 00 00 00    	je     401c35 <http_parser_execute+0x9e5>
  401c0b:	e9 00 00 00 00       	jmpq   401c10 <http_parser_execute+0x9c0>
  401c10:	8b 4d 90             	mov    -0x70(%rbp),%ecx
  401c13:	48 8b 45 f0          	mov    -0x10(%rbp),%rax
  401c17:	89 48 04             	mov    %ecx,0x4(%rax)
  401c1a:	48 8b 45 f0          	mov    -0x10(%rbp),%rax
  401c1e:	8b 48 14             	mov    0x14(%rax),%ecx
  401c21:	81 e1 ff ff ff 80    	and    $0x80ffffff,%ecx
  401c27:	81 c9 00 00 00 0e    	or     $0xe000000,%ecx
  401c2d:	89 48 14             	mov    %ecx,0x14(%rax)
  401c30:	e9 07 5c 00 00       	jmpq   40783c <http_parser_execute+0x65ec>
  401c35:	0f be 45 d6          	movsbl -0x2a(%rbp),%eax
  401c39:	83 e8 30             	sub    $0x30,%eax
  401c3c:	66 89 c1             	mov    %ax,%cx
  401c3f:	48 8b 45 f0          	mov    -0x10(%rbp),%rax
  401c43:	66 89 48 10          	mov    %cx,0x10(%rax)
  401c47:	c7 45 9c 0a 00 00 00 	movl   $0xa,-0x64(%rbp)
  401c4e:	e9 7b 54 00 00       	jmpq   4070ce <http_parser_execute+0x5e7e>
  401c53:	0f be 45 d6          	movsbl -0x2a(%rbp),%eax
  401c57:	83 f8 2e             	cmp    $0x2e,%eax
  401c5a:	0f 95 c0             	setne  %al
  401c5d:	34 ff                	xor    $0xff,%al
  401c5f:	34 ff                	xor    $0xff,%al
  401c61:	24 01                	and    $0x1,%al
  401c63:	0f b6 c0             	movzbl %al,%eax
  401c66:	48 98                	cltq   
  401c68:	48 83 f8 00          	cmp    $0x0,%rax
  401c6c:	0f 84 2a 00 00 00    	je     401c9c <http_parser_execute+0xa4c>
  401c72:	e9 00 00 00 00       	jmpq   401c77 <http_parser_execute+0xa27>
  401c77:	8b 4d 90             	mov    -0x70(%rbp),%ecx
  401c7a:	48 8b 45 f0          	mov    -0x10(%rbp),%rax
  401c7e:	89 48 04             	mov    %ecx,0x4(%rax)
  401c81:	48 8b 45 f0          	mov    -0x10(%rbp),%rax
  401c85:	8b 48 14             	mov    0x14(%rax),%ecx
  401c88:	81 e1 ff ff ff 80    	and    $0x80ffffff,%ecx
  401c8e:	81 c9 00 00 00 0e    	or     $0xe000000,%ecx
  401c94:	89 48 14             	mov    %ecx,0x14(%rax)
  401c97:	e9 a0 5b 00 00       	jmpq   40783c <http_parser_execute+0x65ec>
  401c9c:	c7 45 9c 0b 00 00 00 	movl   $0xb,-0x64(%rbp)
  401ca3:	e9 26 54 00 00       	jmpq   4070ce <http_parser_execute+0x5e7e>
  401ca8:	0f be 4d d6          	movsbl -0x2a(%rbp),%ecx
  401cac:	31 c0                	xor    %eax,%eax
  401cae:	83 f9 30             	cmp    $0x30,%ecx
  401cb1:	88 85 15 ff ff ff    	mov    %al,-0xeb(%rbp)
  401cb7:	0f 8c 10 00 00 00    	jl     401ccd <http_parser_execute+0xa7d>
  401cbd:	0f be 45 d6          	movsbl -0x2a(%rbp),%eax
  401cc1:	83 f8 39             	cmp    $0x39,%eax
  401cc4:	0f 9e c0             	setle  %al
  401cc7:	88 85 15 ff ff ff    	mov    %al,-0xeb(%rbp)
  401ccd:	8a 85 15 ff ff ff    	mov    -0xeb(%rbp),%al
  401cd3:	34 ff                	xor    $0xff,%al
  401cd5:	34 ff                	xor    $0xff,%al
  401cd7:	34 ff                	xor    $0xff,%al
  401cd9:	24 01                	and    $0x1,%al
  401cdb:	0f b6 c0             	movzbl %al,%eax
  401cde:	48 98                	cltq   
  401ce0:	48 83 f8 00          	cmp    $0x0,%rax
  401ce4:	0f 84 2a 00 00 00    	je     401d14 <http_parser_execute+0xac4>
  401cea:	e9 00 00 00 00       	jmpq   401cef <http_parser_execute+0xa9f>
  401cef:	8b 4d 90             	mov    -0x70(%rbp),%ecx
  401cf2:	48 8b 45 f0          	mov    -0x10(%rbp),%rax
  401cf6:	89 48 04             	mov    %ecx,0x4(%rax)
  401cf9:	48 8b 45 f0          	mov    -0x10(%rbp),%rax
  401cfd:	8b 48 14             	mov    0x14(%rax),%ecx
  401d00:	81 e1 ff ff ff 80    	and    $0x80ffffff,%ecx
  401d06:	81 c9 00 00 00 0e    	or     $0xe000000,%ecx
  401d0c:	89 48 14             	mov    %ecx,0x14(%rax)
  401d0f:	e9 28 5b 00 00       	jmpq   40783c <http_parser_execute+0x65ec>
  401d14:	0f be 45 d6          	movsbl -0x2a(%rbp),%eax
  401d18:	83 e8 30             	sub    $0x30,%eax
  401d1b:	66 89 c1             	mov    %ax,%cx
  401d1e:	48 8b 45 f0          	mov    -0x10(%rbp),%rax
  401d22:	66 89 48 12          	mov    %cx,0x12(%rax)
  401d26:	c7 45 9c 0c 00 00 00 	movl   $0xc,-0x64(%rbp)
  401d2d:	e9 9c 53 00 00       	jmpq   4070ce <http_parser_execute+0x5e7e>
  401d32:	0f be 45 d6          	movsbl -0x2a(%rbp),%eax
  401d36:	83 f8 20             	cmp    $0x20,%eax
  401d39:	0f 95 c0             	setne  %al
  401d3c:	34 ff                	xor    $0xff,%al
  401d3e:	34 ff                	xor    $0xff,%al
  401d40:	24 01                	and    $0x1,%al
  401d42:	0f b6 c0             	movzbl %al,%eax
  401d45:	48 98                	cltq   
  401d47:	48 83 f8 00          	cmp    $0x0,%rax
  401d4b:	0f 84 2a 00 00 00    	je     401d7b <http_parser_execute+0xb2b>
  401d51:	e9 00 00 00 00       	jmpq   401d56 <http_parser_execute+0xb06>
  401d56:	8b 4d 90             	mov    -0x70(%rbp),%ecx
  401d59:	48 8b 45 f0          	mov    -0x10(%rbp),%rax
  401d5d:	89 48 04             	mov    %ecx,0x4(%rax)
  401d60:	48 8b 45 f0          	mov    -0x10(%rbp),%rax
  401d64:	8b 48 14             	mov    0x14(%rax),%ecx
  401d67:	81 e1 ff ff ff 80    	and    $0x80ffffff,%ecx
  401d6d:	81 c9 00 00 00 0e    	or     $0xe000000,%ecx
  401d73:	89 48 14             	mov    %ecx,0x14(%rax)
  401d76:	e9 c1 5a 00 00       	jmpq   40783c <http_parser_execute+0x65ec>
  401d7b:	c7 45 9c 0d 00 00 00 	movl   $0xd,-0x64(%rbp)
  401d82:	e9 47 53 00 00       	jmpq   4070ce <http_parser_execute+0x5e7e>
  401d87:	0f be 45 d6          	movsbl -0x2a(%rbp),%eax
  401d8b:	83 f8 30             	cmp    $0x30,%eax
  401d8e:	0f 8c 0d 00 00 00    	jl     401da1 <http_parser_execute+0xb51>
  401d94:	0f be 45 d6          	movsbl -0x2a(%rbp),%eax
  401d98:	83 f8 39             	cmp    $0x39,%eax
  401d9b:	0f 8e 3c 00 00 00    	jle    401ddd <http_parser_execute+0xb8d>
  401da1:	0f be 45 d6          	movsbl -0x2a(%rbp),%eax
  401da5:	83 f8 20             	cmp    $0x20,%eax
  401da8:	0f 85 05 00 00 00    	jne    401db3 <http_parser_execute+0xb63>
  401dae:	e9 1b 53 00 00       	jmpq   4070ce <http_parser_execute+0x5e7e>
  401db3:	e9 00 00 00 00       	jmpq   401db8 <http_parser_execute+0xb68>
  401db8:	8b 4d 90             	mov    -0x70(%rbp),%ecx
  401dbb:	48 8b 45 f0          	mov    -0x10(%rbp),%rax
  401dbf:	89 48 04             	mov    %ecx,0x4(%rax)
  401dc2:	48 8b 45 f0          	mov    -0x10(%rbp),%rax
  401dc6:	8b 48 14             	mov    0x14(%rax),%ecx
  401dc9:	81 e1 ff ff ff 80    	and    $0x80ffffff,%ecx
  401dcf:	81 c9 00 00 00 0f    	or     $0xf000000,%ecx
  401dd5:	89 48 14             	mov    %ecx,0x14(%rax)
  401dd8:	e9 5f 5a 00 00       	jmpq   40783c <http_parser_execute+0x65ec>
  401ddd:	0f be 55 d6          	movsbl -0x2a(%rbp),%edx
  401de1:	83 ea 30             	sub    $0x30,%edx
  401de4:	48 8b 45 f0          	mov    -0x10(%rbp),%rax
  401de8:	8b 48 14             	mov    0x14(%rax),%ecx
  401deb:	81 e2 ff ff 00 00    	and    $0xffff,%edx
  401df1:	81 e1 00 00 ff ff    	and    $0xffff0000,%ecx
  401df7:	09 d1                	or     %edx,%ecx
  401df9:	89 48 14             	mov    %ecx,0x14(%rax)
  401dfc:	c7 45 9c 0e 00 00 00 	movl   $0xe,-0x64(%rbp)
  401e03:	e9 c6 52 00 00       	jmpq   4070ce <http_parser_execute+0x5e7e>
  401e08:	0f be 45 d6          	movsbl -0x2a(%rbp),%eax
  401e0c:	83 f8 30             	cmp    $0x30,%eax
  401e0f:	0f 8c 0d 00 00 00    	jl     401e22 <http_parser_execute+0xbd2>
  401e15:	0f be 45 d6          	movsbl -0x2a(%rbp),%eax
  401e19:	83 f8 39             	cmp    $0x39,%eax
  401e1c:	0f 8e 87 00 00 00    	jle    401ea9 <http_parser_execute+0xc59>
  401e22:	0f be 45 d6          	movsbl -0x2a(%rbp),%eax
  401e26:	89 85 10 ff ff ff    	mov    %eax,-0xf0(%rbp)
  401e2c:	83 e8 0a             	sub    $0xa,%eax
  401e2f:	0f 84 39 00 00 00    	je     401e6e <http_parser_execute+0xc1e>
  401e35:	e9 00 00 00 00       	jmpq   401e3a <http_parser_execute+0xbea>
  401e3a:	8b 85 10 ff ff ff    	mov    -0xf0(%rbp),%eax
  401e40:	83 e8 0d             	sub    $0xd,%eax
  401e43:	0f 84 25 00 00 00    	je     401e6e <http_parser_execute+0xc1e>
  401e49:	e9 00 00 00 00       	jmpq   401e4e <http_parser_execute+0xbfe>
  401e4e:	8b 85 10 ff ff ff    	mov    -0xf0(%rbp),%eax
  401e54:	83 e8 20             	sub    $0x20,%eax
  401e57:	0f 85 1d 00 00 00    	jne    401e7a <http_parser_execute+0xc2a>
  401e5d:	e9 00 00 00 00       	jmpq   401e62 <http_parser_execute+0xc12>
  401e62:	c7 45 9c 0f 00 00 00 	movl   $0xf,-0x64(%rbp)
  401e69:	e9 36 00 00 00       	jmpq   401ea4 <http_parser_execute+0xc54>
  401e6e:	c7 45 9c 0f 00 00 00 	movl   $0xf,-0x64(%rbp)
  401e75:	e9 5c f7 ff ff       	jmpq   4015d6 <http_parser_execute+0x386>
  401e7a:	e9 00 00 00 00       	jmpq   401e7f <http_parser_execute+0xc2f>
  401e7f:	8b 4d 90             	mov    -0x70(%rbp),%ecx
  401e82:	48 8b 45 f0          	mov    -0x10(%rbp),%rax
  401e86:	89 48 04             	mov    %ecx,0x4(%rax)
  401e89:	48 8b 45 f0          	mov    -0x10(%rbp),%rax
  401e8d:	8b 48 14             	mov    0x14(%rax),%ecx
  401e90:	81 e1 ff ff ff 80    	and    $0x80ffffff,%ecx
  401e96:	81 c9 00 00 00 0f    	or     $0xf000000,%ecx
  401e9c:	89 48 14             	mov    %ecx,0x14(%rax)
  401e9f:	e9 98 59 00 00       	jmpq   40783c <http_parser_execute+0x65ec>
  401ea4:	e9 25 52 00 00       	jmpq   4070ce <http_parser_execute+0x5e7e>
  401ea9:	48 8b 45 f0          	mov    -0x10(%rbp),%rax
  401ead:	8b 48 14             	mov    0x14(%rax),%ecx
  401eb0:	81 e1 ff ff 00 00    	and    $0xffff,%ecx
  401eb6:	6b d1 0a             	imul   $0xa,%ecx,%edx
  401eb9:	8b 48 14             	mov    0x14(%rax),%ecx
  401ebc:	81 e2 ff ff 00 00    	and    $0xffff,%edx
  401ec2:	81 e1 00 00 ff ff    	and    $0xffff0000,%ecx
  401ec8:	09 d1                	or     %edx,%ecx
  401eca:	89 48 14             	mov    %ecx,0x14(%rax)
  401ecd:	0f be 4d d6          	movsbl -0x2a(%rbp),%ecx
  401ed1:	83 e9 30             	sub    $0x30,%ecx
  401ed4:	48 8b 45 f0          	mov    -0x10(%rbp),%rax
  401ed8:	8b 50 14             	mov    0x14(%rax),%edx
  401edb:	81 e2 ff ff 00 00    	and    $0xffff,%edx
  401ee1:	01 ca                	add    %ecx,%edx
  401ee3:	8b 48 14             	mov    0x14(%rax),%ecx
  401ee6:	81 e2 ff ff 00 00    	and    $0xffff,%edx
  401eec:	81 e1 00 00 ff ff    	and    $0xffff0000,%ecx
  401ef2:	09 d1                	or     %edx,%ecx
  401ef4:	89 48 14             	mov    %ecx,0x14(%rax)
  401ef7:	48 8b 45 f0          	mov    -0x10(%rbp),%rax
  401efb:	8b 40 14             	mov    0x14(%rax),%eax
  401efe:	25 ff ff 00 00       	and    $0xffff,%eax
  401f03:	3d e7 03 00 00       	cmp    $0x3e7,%eax
  401f08:	0f 9f c0             	setg   %al
  401f0b:	34 ff                	xor    $0xff,%al
  401f0d:	34 ff                	xor    $0xff,%al
  401f0f:	24 01                	and    $0x1,%al
  401f11:	0f b6 c0             	movzbl %al,%eax
  401f14:	48 98                	cltq   
  401f16:	48 83 f8 00          	cmp    $0x0,%rax
  401f1a:	0f 84 2a 00 00 00    	je     401f4a <http_parser_execute+0xcfa>
  401f20:	e9 00 00 00 00       	jmpq   401f25 <http_parser_execute+0xcd5>
  401f25:	8b 4d 90             	mov    -0x70(%rbp),%ecx
  401f28:	48 8b 45 f0          	mov    -0x10(%rbp),%rax
  401f2c:	89 48 04             	mov    %ecx,0x4(%rax)
  401f2f:	48 8b 45 f0          	mov    -0x10(%rbp),%rax
  401f33:	8b 48 14             	mov    0x14(%rax),%ecx
  401f36:	81 e1 ff ff ff 80    	and    $0x80ffffff,%ecx
  401f3c:	81 c9 00 00 00 0f    	or     $0xf000000,%ecx
  401f42:	89 48 14             	mov    %ecx,0x14(%rax)
  401f45:	e9 f2 58 00 00       	jmpq   40783c <http_parser_execute+0x65ec>
  401f4a:	e9 7f 51 00 00       	jmpq   4070ce <http_parser_execute+0x5e7e>
  401f4f:	e9 00 00 00 00       	jmpq   401f54 <http_parser_execute+0xd04>
  401f54:	48 83 7d a0 00       	cmpq   $0x0,-0x60(%rbp)
  401f59:	0f 85 08 00 00 00    	jne    401f67 <http_parser_execute+0xd17>
  401f5f:	48 8b 45 c8          	mov    -0x38(%rbp),%rax
  401f63:	48 89 45 a0          	mov    %rax,-0x60(%rbp)
  401f67:	e9 00 00 00 00       	jmpq   401f6c <http_parser_execute+0xd1c>
  401f6c:	c7 45 9c 10 00 00 00 	movl   $0x10,-0x64(%rbp)
  401f73:	48 8b 45 f0          	mov    -0x10(%rbp),%rax
  401f77:	8b 08                	mov    (%rax),%ecx
  401f79:	81 e1 ff ff ff e0    	and    $0xe0ffffff,%ecx
  401f7f:	83 c9 00             	or     $0x0,%ecx
  401f82:	89 08                	mov    %ecx,(%rax)
  401f84:	0f be 45 d6          	movsbl -0x2a(%rbp),%eax
  401f88:	83 f8 0d             	cmp    $0xd,%eax
  401f8b:	0f 84 0d 00 00 00    	je     401f9e <http_parser_execute+0xd4e>
  401f91:	0f be 45 d6          	movsbl -0x2a(%rbp),%eax
  401f95:	83 f8 0a             	cmp    $0xa,%eax
  401f98:	0f 85 05 00 00 00    	jne    401fa3 <http_parser_execute+0xd53>
  401f9e:	e9 33 f6 ff ff       	jmpq   4015d6 <http_parser_execute+0x386>
  401fa3:	e9 26 51 00 00       	jmpq   4070ce <http_parser_execute+0x5e7e>
  401fa8:	0f be 45 d6          	movsbl -0x2a(%rbp),%eax
  401fac:	83 f8 0d             	cmp    $0xd,%eax
  401faf:	0f 85 5a 01 00 00    	jne    40210f <http_parser_execute+0xebf>
  401fb5:	c7 45 9c 11 00 00 00 	movl   $0x11,-0x64(%rbp)
  401fbc:	48 8b 45 f0          	mov    -0x10(%rbp),%rax
  401fc0:	8b 40 14             	mov    0x14(%rax),%eax
  401fc3:	c1 e8 18             	shr    $0x18,%eax
  401fc6:	83 e0 7f             	and    $0x7f,%eax
  401fc9:	83 f8 00             	cmp    $0x0,%eax
  401fcc:	0f 85 05 00 00 00    	jne    401fd7 <http_parser_execute+0xd87>
  401fd2:	e9 28 00 00 00       	jmpq   401fff <http_parser_execute+0xdaf>
  401fd7:	48 bf a0 06 41 00 00 	movabs $0x4106a0,%rdi
  401fde:	00 00 00 
  401fe1:	48 be c4 06 41 00 00 	movabs $0x4106c4,%rsi
  401fe8:	00 00 00 
  401feb:	ba 8e 03 00 00       	mov    $0x38e,%edx
  401ff0:	48 b9 d2 06 41 00 00 	movabs $0x4106d2,%rcx
  401ff7:	00 00 00 
  401ffa:	e8 91 f0 ff ff       	callq  401090 <__assert_fail@plt>
  401fff:	48 83 7d a0 00       	cmpq   $0x0,-0x60(%rbp)
  402004:	0f 84 fb 00 00 00    	je     402105 <http_parser_execute+0xeb5>
  40200a:	48 8b 45 e8          	mov    -0x18(%rbp),%rax
  40200e:	48 83 78 10 00       	cmpq   $0x0,0x10(%rax)
  402013:	0f 95 c0             	setne  %al
  402016:	34 ff                	xor    $0xff,%al
  402018:	34 ff                	xor    $0xff,%al
  40201a:	24 01                	and    $0x1,%al
  40201c:	0f b6 c0             	movzbl %al,%eax
  40201f:	48 98                	cltq   
  402021:	48 83 f8 00          	cmp    $0x0,%rax
  402025:	0f 84 d2 00 00 00    	je     4020fd <http_parser_execute+0xead>
  40202b:	8b 55 9c             	mov    -0x64(%rbp),%edx
  40202e:	48 8b 45 f0          	mov    -0x10(%rbp),%rax
  402032:	8b 08                	mov    (%rax),%ecx
  402034:	83 e2 7f             	and    $0x7f,%edx
  402037:	c1 e2 0a             	shl    $0xa,%edx
  40203a:	81 e1 ff 03 fe ff    	and    $0xfffe03ff,%ecx
  402040:	09 d1                	or     %edx,%ecx
  402042:	89 08                	mov    %ecx,(%rax)
  402044:	48 8b 45 e8          	mov    -0x18(%rbp),%rax
  402048:	48 8b 40 10          	mov    0x10(%rax),%rax
  40204c:	48 8b 7d f0          	mov    -0x10(%rbp),%rdi
  402050:	48 8b 75 a0          	mov    -0x60(%rbp),%rsi
  402054:	48 8b 55 c8          	mov    -0x38(%rbp),%rdx
  402058:	48 8b 4d a0          	mov    -0x60(%rbp),%rcx
  40205c:	48 29 ca             	sub    %rcx,%rdx
  40205f:	ff d0                	callq  *%rax
  402061:	89 c1                	mov    %eax,%ecx
  402063:	31 c0                	xor    %eax,%eax
  402065:	39 c8                	cmp    %ecx,%eax
  402067:	0f 95 c0             	setne  %al
  40206a:	34 ff                	xor    $0xff,%al
  40206c:	34 ff                	xor    $0xff,%al
  40206e:	24 01                	and    $0x1,%al
  402070:	0f b6 c0             	movzbl %al,%eax
  402073:	48 98                	cltq   
  402075:	48 83 f8 00          	cmp    $0x0,%rax
  402079:	0f 84 2a 00 00 00    	je     4020a9 <http_parser_execute+0xe59>
  40207f:	e9 00 00 00 00       	jmpq   402084 <http_parser_execute+0xe34>
  402084:	8b 4d 90             	mov    -0x70(%rbp),%ecx
  402087:	48 8b 45 f0          	mov    -0x10(%rbp),%rax
  40208b:	89 48 04             	mov    %ecx,0x4(%rax)
  40208e:	48 8b 45 f0          	mov    -0x10(%rbp),%rax
  402092:	8b 48 14             	mov    0x14(%rax),%ecx
  402095:	81 e1 ff ff ff 80    	and    $0x80ffffff,%ecx
  40209b:	81 c9 00 00 00 08    	or     $0x8000000,%ecx
  4020a1:	89 48 14             	mov    %ecx,0x14(%rax)
  4020a4:	e9 00 00 00 00       	jmpq   4020a9 <http_parser_execute+0xe59>
  4020a9:	48 8b 45 f0          	mov    -0x10(%rbp),%rax
  4020ad:	8b 00                	mov    (%rax),%eax
  4020af:	c1 e8 0a             	shr    $0xa,%eax
  4020b2:	83 e0 7f             	and    $0x7f,%eax
  4020b5:	89 45 9c             	mov    %eax,-0x64(%rbp)
  4020b8:	48 8b 45 f0          	mov    -0x10(%rbp),%rax
  4020bc:	8b 40 14             	mov    0x14(%rax),%eax
  4020bf:	c1 e8 18             	shr    $0x18,%eax
  4020c2:	83 e0 7f             	and    $0x7f,%eax
  4020c5:	83 f8 00             	cmp    $0x0,%eax
  4020c8:	0f 95 c0             	setne  %al
  4020cb:	34 ff                	xor    $0xff,%al
  4020cd:	34 ff                	xor    $0xff,%al
  4020cf:	24 01                	and    $0x1,%al
  4020d1:	0f b6 c0             	movzbl %al,%eax
  4020d4:	48 98                	cltq   
  4020d6:	48 83 f8 00          	cmp    $0x0,%rax
  4020da:	0f 84 18 00 00 00    	je     4020f8 <http_parser_execute+0xea8>
  4020e0:	48 8b 45 c8          	mov    -0x38(%rbp),%rax
  4020e4:	48 8b 4d e0          	mov    -0x20(%rbp),%rcx
  4020e8:	48 29 c8             	sub    %rcx,%rax
  4020eb:	48 83 c0 01          	add    $0x1,%rax
  4020ef:	48 89 45 f8          	mov    %rax,-0x8(%rbp)
  4020f3:	e9 bb 57 00 00       	jmpq   4078b3 <http_parser_execute+0x6663>
  4020f8:	e9 00 00 00 00       	jmpq   4020fd <http_parser_execute+0xead>
  4020fd:	48 c7 45 a0 00 00 00 	movq   $0x0,-0x60(%rbp)
  402104:	00 
  402105:	e9 00 00 00 00       	jmpq   40210a <http_parser_execute+0xeba>
  40210a:	e9 bf 4f 00 00       	jmpq   4070ce <http_parser_execute+0x5e7e>
  40210f:	0f be 45 d6          	movsbl -0x2a(%rbp),%eax
  402113:	83 f8 0a             	cmp    $0xa,%eax
  402116:	0f 85 5a 01 00 00    	jne    402276 <http_parser_execute+0x1026>
  40211c:	c7 45 9c 2c 00 00 00 	movl   $0x2c,-0x64(%rbp)
  402123:	48 8b 45 f0          	mov    -0x10(%rbp),%rax
  402127:	8b 40 14             	mov    0x14(%rax),%eax
  40212a:	c1 e8 18             	shr    $0x18,%eax
  40212d:	83 e0 7f             	and    $0x7f,%eax
  402130:	83 f8 00             	cmp    $0x0,%eax
  402133:	0f 85 05 00 00 00    	jne    40213e <http_parser_execute+0xeee>
  402139:	e9 28 00 00 00       	jmpq   402166 <http_parser_execute+0xf16>
  40213e:	48 bf a0 06 41 00 00 	movabs $0x4106a0,%rdi
  402145:	00 00 00 
  402148:	48 be c4 06 41 00 00 	movabs $0x4106c4,%rsi
  40214f:	00 00 00 
  402152:	ba 94 03 00 00       	mov    $0x394,%edx
  402157:	48 b9 d2 06 41 00 00 	movabs $0x4106d2,%rcx
  40215e:	00 00 00 
  402161:	e8 2a ef ff ff       	callq  401090 <__assert_fail@plt>
  402166:	48 83 7d a0 00       	cmpq   $0x0,-0x60(%rbp)
  40216b:	0f 84 fb 00 00 00    	je     40226c <http_parser_execute+0x101c>
  402171:	48 8b 45 e8          	mov    -0x18(%rbp),%rax
  402175:	48 83 78 10 00       	cmpq   $0x0,0x10(%rax)
  40217a:	0f 95 c0             	setne  %al
  40217d:	34 ff                	xor    $0xff,%al
  40217f:	34 ff                	xor    $0xff,%al
  402181:	24 01                	and    $0x1,%al
  402183:	0f b6 c0             	movzbl %al,%eax
  402186:	48 98                	cltq   
  402188:	48 83 f8 00          	cmp    $0x0,%rax
  40218c:	0f 84 d2 00 00 00    	je     402264 <http_parser_execute+0x1014>
  402192:	8b 55 9c             	mov    -0x64(%rbp),%edx
  402195:	48 8b 45 f0          	mov    -0x10(%rbp),%rax
  402199:	8b 08                	mov    (%rax),%ecx
  40219b:	83 e2 7f             	and    $0x7f,%edx
  40219e:	c1 e2 0a             	shl    $0xa,%edx
  4021a1:	81 e1 ff 03 fe ff    	and    $0xfffe03ff,%ecx
  4021a7:	09 d1                	or     %edx,%ecx
  4021a9:	89 08                	mov    %ecx,(%rax)
  4021ab:	48 8b 45 e8          	mov    -0x18(%rbp),%rax
  4021af:	48 8b 40 10          	mov    0x10(%rax),%rax
  4021b3:	48 8b 7d f0          	mov    -0x10(%rbp),%rdi
  4021b7:	48 8b 75 a0          	mov    -0x60(%rbp),%rsi
  4021bb:	48 8b 55 c8          	mov    -0x38(%rbp),%rdx
  4021bf:	48 8b 4d a0          	mov    -0x60(%rbp),%rcx
  4021c3:	48 29 ca             	sub    %rcx,%rdx
  4021c6:	ff d0                	callq  *%rax
  4021c8:	89 c1                	mov    %eax,%ecx
  4021ca:	31 c0                	xor    %eax,%eax
  4021cc:	39 c8                	cmp    %ecx,%eax
  4021ce:	0f 95 c0             	setne  %al
  4021d1:	34 ff                	xor    $0xff,%al
  4021d3:	34 ff                	xor    $0xff,%al
  4021d5:	24 01                	and    $0x1,%al
  4021d7:	0f b6 c0             	movzbl %al,%eax
  4021da:	48 98                	cltq   
  4021dc:	48 83 f8 00          	cmp    $0x0,%rax
  4021e0:	0f 84 2a 00 00 00    	je     402210 <http_parser_execute+0xfc0>
  4021e6:	e9 00 00 00 00       	jmpq   4021eb <http_parser_execute+0xf9b>
  4021eb:	8b 4d 90             	mov    -0x70(%rbp),%ecx
  4021ee:	48 8b 45 f0          	mov    -0x10(%rbp),%rax
  4021f2:	89 48 04             	mov    %ecx,0x4(%rax)
  4021f5:	48 8b 45 f0          	mov    -0x10(%rbp),%rax
  4021f9:	8b 48 14             	mov    0x14(%rax),%ecx
  4021fc:	81 e1 ff ff ff 80    	and    $0x80ffffff,%ecx
  402202:	81 c9 00 00 00 08    	or     $0x8000000,%ecx
  402208:	89 48 14             	mov    %ecx,0x14(%rax)
  40220b:	e9 00 00 00 00       	jmpq   402210 <http_parser_execute+0xfc0>
  402210:	48 8b 45 f0          	mov    -0x10(%rbp),%rax
  402214:	8b 00                	mov    (%rax),%eax
  402216:	c1 e8 0a             	shr    $0xa,%eax
  402219:	83 e0 7f             	and    $0x7f,%eax
  40221c:	89 45 9c             	mov    %eax,-0x64(%rbp)
  40221f:	48 8b 45 f0          	mov    -0x10(%rbp),%rax
  402223:	8b 40 14             	mov    0x14(%rax),%eax
  402226:	c1 e8 18             	shr    $0x18,%eax
  402229:	83 e0 7f             	and    $0x7f,%eax
  40222c:	83 f8 00             	cmp    $0x0,%eax
  40222f:	0f 95 c0             	setne  %al
  402232:	34 ff                	xor    $0xff,%al
  402234:	34 ff                	xor    $0xff,%al
  402236:	24 01                	and    $0x1,%al
  402238:	0f b6 c0             	movzbl %al,%eax
  40223b:	48 98                	cltq   
  40223d:	48 83 f8 00          	cmp    $0x0,%rax
  402241:	0f 84 18 00 00 00    	je     40225f <http_parser_execute+0x100f>
  402247:	48 8b 45 c8          	mov    -0x38(%rbp),%rax
  40224b:	48 8b 4d e0          	mov    -0x20(%rbp),%rcx
  40224f:	48 29 c8             	sub    %rcx,%rax
  402252:	48 83 c0 01          	add    $0x1,%rax
  402256:	48 89 45 f8          	mov    %rax,-0x8(%rbp)
  40225a:	e9 54 56 00 00       	jmpq   4078b3 <http_parser_execute+0x6663>
  40225f:	e9 00 00 00 00       	jmpq   402264 <http_parser_execute+0x1014>
  402264:	48 c7 45 a0 00 00 00 	movq   $0x0,-0x60(%rbp)
  40226b:	00 
  40226c:	e9 00 00 00 00       	jmpq   402271 <http_parser_execute+0x1021>
  402271:	e9 58 4e 00 00       	jmpq   4070ce <http_parser_execute+0x5e7e>
  402276:	e9 53 4e 00 00       	jmpq   4070ce <http_parser_execute+0x5e7e>
  40227b:	e9 00 00 00 00       	jmpq   402280 <http_parser_execute+0x1030>
  402280:	0f be 45 d6          	movsbl -0x2a(%rbp),%eax
  402284:	83 f8 0a             	cmp    $0xa,%eax
  402287:	0f 84 2a 00 00 00    	je     4022b7 <http_parser_execute+0x1067>
  40228d:	e9 00 00 00 00       	jmpq   402292 <http_parser_execute+0x1042>
  402292:	8b 4d 90             	mov    -0x70(%rbp),%ecx
  402295:	48 8b 45 f0          	mov    -0x10(%rbp),%rax
  402299:	89 48 04             	mov    %ecx,0x4(%rax)
  40229c:	48 8b 45 f0          	mov    -0x10(%rbp),%rax
  4022a0:	8b 48 14             	mov    0x14(%rax),%ecx
  4022a3:	81 e1 ff ff ff 80    	and    $0x80ffffff,%ecx
  4022a9:	81 c9 00 00 00 1e    	or     $0x1e000000,%ecx
  4022af:	89 48 14             	mov    %ecx,0x14(%rax)
  4022b2:	e9 85 55 00 00       	jmpq   40783c <http_parser_execute+0x65ec>
  4022b7:	e9 00 00 00 00       	jmpq   4022bc <http_parser_execute+0x106c>
  4022bc:	c7 45 9c 2c 00 00 00 	movl   $0x2c,-0x64(%rbp)
  4022c3:	e9 06 4e 00 00       	jmpq   4070ce <http_parser_execute+0x5e7e>
  4022c8:	0f be 45 d6          	movsbl -0x2a(%rbp),%eax
  4022cc:	83 f8 0d             	cmp    $0xd,%eax
  4022cf:	0f 84 0d 00 00 00    	je     4022e2 <http_parser_execute+0x1092>
  4022d5:	0f be 45 d6          	movsbl -0x2a(%rbp),%eax
  4022d9:	83 f8 0a             	cmp    $0xa,%eax
  4022dc:	0f 85 05 00 00 00    	jne    4022e7 <http_parser_execute+0x1097>
  4022e2:	e9 e7 4d 00 00       	jmpq   4070ce <http_parser_execute+0x5e7e>
  4022e7:	48 8b 45 f0          	mov    -0x10(%rbp),%rax
  4022eb:	8b 08                	mov    (%rax),%ecx
  4022ed:	81 e1 03 fc ff ff    	and    $0xfffffc03,%ecx
  4022f3:	83 c9 00             	or     $0x0,%ecx
  4022f6:	89 08                	mov    %ecx,(%rax)
  4022f8:	48 8b 45 f0          	mov    -0x10(%rbp),%rax
  4022fc:	8b 08                	mov    (%rax),%ecx
  4022fe:	81 e1 ff ff ff df    	and    $0xdfffffff,%ecx
  402304:	83 c9 00             	or     $0x0,%ecx
  402307:	89 08                	mov    %ecx,(%rax)
  402309:	48 8b 45 f0          	mov    -0x10(%rbp),%rax
  40230d:	48 c7 40 08 ff ff ff 	movq   $0xffffffffffffffff,0x8(%rax)
  402314:	ff 
  402315:	0f be 45 d6          	movsbl -0x2a(%rbp),%eax
  402319:	83 c8 20             	or     $0x20,%eax
  40231c:	0f b6 c8             	movzbl %al,%ecx
  40231f:	31 c0                	xor    %eax,%eax
  402321:	83 f9 61             	cmp    $0x61,%ecx
  402324:	88 85 0f ff ff ff    	mov    %al,-0xf1(%rbp)
  40232a:	0f 8c 16 00 00 00    	jl     402346 <http_parser_execute+0x10f6>
  402330:	0f be 45 d6          	movsbl -0x2a(%rbp),%eax
  402334:	83 c8 20             	or     $0x20,%eax
  402337:	0f b6 c0             	movzbl %al,%eax
  40233a:	83 f8 7a             	cmp    $0x7a,%eax
  40233d:	0f 9e c0             	setle  %al
  402340:	88 85 0f ff ff ff    	mov    %al,-0xf1(%rbp)
  402346:	8a 85 0f ff ff ff    	mov    -0xf1(%rbp),%al
  40234c:	34 ff                	xor    $0xff,%al
  40234e:	34 ff                	xor    $0xff,%al
  402350:	34 ff                	xor    $0xff,%al
  402352:	24 01                	and    $0x1,%al
  402354:	0f b6 c0             	movzbl %al,%eax
  402357:	48 98                	cltq   
  402359:	48 83 f8 00          	cmp    $0x0,%rax
  40235d:	0f 84 2a 00 00 00    	je     40238d <http_parser_execute+0x113d>
  402363:	e9 00 00 00 00       	jmpq   402368 <http_parser_execute+0x1118>
  402368:	8b 4d 90             	mov    -0x70(%rbp),%ecx
  40236b:	48 8b 45 f0          	mov    -0x10(%rbp),%rax
  40236f:	89 48 04             	mov    %ecx,0x4(%rax)
  402372:	48 8b 45 f0          	mov    -0x10(%rbp),%rax
  402376:	8b 48 14             	mov    0x14(%rax),%ecx
  402379:	81 e1 ff ff ff 80    	and    $0x80ffffff,%ecx
  40237f:	81 c9 00 00 00 10    	or     $0x10000000,%ecx
  402385:	89 48 14             	mov    %ecx,0x14(%rax)
  402388:	e9 af 54 00 00       	jmpq   40783c <http_parser_execute+0x65ec>
  40238d:	48 8b 45 f0          	mov    -0x10(%rbp),%rax
  402391:	8b 48 14             	mov    0x14(%rax),%ecx
  402394:	81 e1 ff ff 00 ff    	and    $0xff00ffff,%ecx
  40239a:	89 48 14             	mov    %ecx,0x14(%rax)
  40239d:	48 8b 45 f0          	mov    -0x10(%rbp),%rax
  4023a1:	8b 08                	mov    (%rax),%ecx
  4023a3:	81 e1 ff ff ff e0    	and    $0xe0ffffff,%ecx
  4023a9:	81 c9 00 00 00 01    	or     $0x1000000,%ecx
  4023af:	89 08                	mov    %ecx,(%rax)
  4023b1:	0f be 45 d6          	movsbl -0x2a(%rbp),%eax
  4023b5:	83 c0 bf             	add    $0xffffffbf,%eax
  4023b8:	89 c1                	mov    %eax,%ecx
  4023ba:	48 89 8d 00 ff ff ff 	mov    %rcx,-0x100(%rbp)
  4023c1:	83 e8 14             	sub    $0x14,%eax
  4023c4:	0f 87 a3 01 00 00    	ja     40256d <http_parser_execute+0x131d>
  4023ca:	48 8b 85 00 ff ff ff 	mov    -0x100(%rbp),%rax
  4023d1:	48 8b 04 c5 f0 f4 40 	mov    0x40f4f0(,%rax,8),%rax
  4023d8:	00 
  4023d9:	ff e0                	jmpq   *%rax
  4023db:	48 8b 45 f0          	mov    -0x10(%rbp),%rax
  4023df:	8b 48 14             	mov    0x14(%rax),%ecx
  4023e2:	81 e1 ff ff 00 ff    	and    $0xff00ffff,%ecx
  4023e8:	81 c9 00 00 13 00    	or     $0x130000,%ecx
  4023ee:	89 48 14             	mov    %ecx,0x14(%rax)
  4023f1:	e9 a1 01 00 00       	jmpq   402597 <http_parser_execute+0x1347>
  4023f6:	48 8b 45 f0          	mov    -0x10(%rbp),%rax
  4023fa:	8b 48 14             	mov    0x14(%rax),%ecx
  4023fd:	81 e1 ff ff 00 ff    	and    $0xff00ffff,%ecx
  402403:	81 c9 00 00 10 00    	or     $0x100000,%ecx
  402409:	89 48 14             	mov    %ecx,0x14(%rax)
  40240c:	e9 86 01 00 00       	jmpq   402597 <http_parser_execute+0x1347>
  402411:	48 8b 45 f0          	mov    -0x10(%rbp),%rax
  402415:	8b 48 14             	mov    0x14(%rax),%ecx
  402418:	81 e1 ff ff 00 ff    	and    $0xff00ffff,%ecx
  40241e:	81 c9 00 00 05 00    	or     $0x50000,%ecx
  402424:	89 48 14             	mov    %ecx,0x14(%rax)
  402427:	e9 6b 01 00 00       	jmpq   402597 <http_parser_execute+0x1347>
  40242c:	48 8b 45 f0          	mov    -0x10(%rbp),%rax
  402430:	8b 48 14             	mov    0x14(%rax),%ecx
  402433:	81 e1 ff ff 00 ff    	and    $0xff00ffff,%ecx
  402439:	83 c9 00             	or     $0x0,%ecx
  40243c:	89 48 14             	mov    %ecx,0x14(%rax)
  40243f:	e9 53 01 00 00       	jmpq   402597 <http_parser_execute+0x1347>
  402444:	48 8b 45 f0          	mov    -0x10(%rbp),%rax
  402448:	8b 48 14             	mov    0x14(%rax),%ecx
  40244b:	81 e1 ff ff 00 ff    	and    $0xff00ffff,%ecx
  402451:	81 c9 00 00 01 00    	or     $0x10000,%ecx
  402457:	89 48 14             	mov    %ecx,0x14(%rax)
  40245a:	e9 38 01 00 00       	jmpq   402597 <http_parser_execute+0x1347>
  40245f:	48 8b 45 f0          	mov    -0x10(%rbp),%rax
  402463:	8b 48 14             	mov    0x14(%rax),%ecx
  402466:	81 e1 ff ff 00 ff    	and    $0xff00ffff,%ecx
  40246c:	81 c9 00 00 02 00    	or     $0x20000,%ecx
  402472:	89 48 14             	mov    %ecx,0x14(%rax)
  402475:	e9 1d 01 00 00       	jmpq   402597 <http_parser_execute+0x1347>
  40247a:	48 8b 45 f0          	mov    -0x10(%rbp),%rax
  40247e:	8b 48 14             	mov    0x14(%rax),%ecx
  402481:	81 e1 ff ff 00 ff    	and    $0xff00ffff,%ecx
  402487:	81 c9 00 00 09 00    	or     $0x90000,%ecx
  40248d:	89 48 14             	mov    %ecx,0x14(%rax)
  402490:	e9 02 01 00 00       	jmpq   402597 <http_parser_execute+0x1347>
  402495:	48 8b 45 f0          	mov    -0x10(%rbp),%rax
  402499:	8b 48 14             	mov    0x14(%rax),%ecx
  40249c:	81 e1 ff ff 00 ff    	and    $0xff00ffff,%ecx
  4024a2:	81 c9 00 00 0a 00    	or     $0xa0000,%ecx
  4024a8:	89 48 14             	mov    %ecx,0x14(%rax)
  4024ab:	e9 e7 00 00 00       	jmpq   402597 <http_parser_execute+0x1347>
  4024b0:	48 8b 45 f0          	mov    -0x10(%rbp),%rax
  4024b4:	8b 48 14             	mov    0x14(%rax),%ecx
  4024b7:	81 e1 ff ff 00 ff    	and    $0xff00ffff,%ecx
  4024bd:	81 c9 00 00 19 00    	or     $0x190000,%ecx
  4024c3:	89 48 14             	mov    %ecx,0x14(%rax)
  4024c6:	e9 cc 00 00 00       	jmpq   402597 <http_parser_execute+0x1347>
  4024cb:	48 8b 45 f0          	mov    -0x10(%rbp),%rax
  4024cf:	8b 48 14             	mov    0x14(%rax),%ecx
  4024d2:	81 e1 ff ff 00 ff    	and    $0xff00ffff,%ecx
  4024d8:	81 c9 00 00 06 00    	or     $0x60000,%ecx
  4024de:	89 48 14             	mov    %ecx,0x14(%rax)
  4024e1:	e9 b1 00 00 00       	jmpq   402597 <http_parser_execute+0x1347>
  4024e6:	48 8b 45 f0          	mov    -0x10(%rbp),%rax
  4024ea:	8b 48 14             	mov    0x14(%rax),%ecx
  4024ed:	81 e1 ff ff 00 ff    	and    $0xff00ffff,%ecx
  4024f3:	81 c9 00 00 03 00    	or     $0x30000,%ecx
  4024f9:	89 48 14             	mov    %ecx,0x14(%rax)
  4024fc:	e9 96 00 00 00       	jmpq   402597 <http_parser_execute+0x1347>
  402501:	48 8b 45 f0          	mov    -0x10(%rbp),%rax
  402505:	8b 48 14             	mov    0x14(%rax),%ecx
  402508:	81 e1 ff ff 00 ff    	and    $0xff00ffff,%ecx
  40250e:	81 c9 00 00 14 00    	or     $0x140000,%ecx
  402514:	89 48 14             	mov    %ecx,0x14(%rax)
  402517:	e9 7b 00 00 00       	jmpq   402597 <http_parser_execute+0x1347>
  40251c:	48 8b 45 f0          	mov    -0x10(%rbp),%rax
  402520:	8b 48 14             	mov    0x14(%rax),%ecx
  402523:	81 e1 ff ff 00 ff    	and    $0xff00ffff,%ecx
  402529:	81 c9 00 00 1a 00    	or     $0x1a0000,%ecx
  40252f:	89 48 14             	mov    %ecx,0x14(%rax)
  402532:	e9 60 00 00 00       	jmpq   402597 <http_parser_execute+0x1347>
  402537:	48 8b 45 f0          	mov    -0x10(%rbp),%rax
  40253b:	8b 48 14             	mov    0x14(%rax),%ecx
  40253e:	81 e1 ff ff 00 ff    	and    $0xff00ffff,%ecx
  402544:	81 c9 00 00 07 00    	or     $0x70000,%ecx
  40254a:	89 48 14             	mov    %ecx,0x14(%rax)
  40254d:	e9 45 00 00 00       	jmpq   402597 <http_parser_execute+0x1347>
  402552:	48 8b 45 f0          	mov    -0x10(%rbp),%rax
  402556:	8b 48 14             	mov    0x14(%rax),%ecx
  402559:	81 e1 ff ff 00 ff    	and    $0xff00ffff,%ecx
  40255f:	81 c9 00 00 0f 00    	or     $0xf0000,%ecx
  402565:	89 48 14             	mov    %ecx,0x14(%rax)
  402568:	e9 2a 00 00 00       	jmpq   402597 <http_parser_execute+0x1347>
  40256d:	e9 00 00 00 00       	jmpq   402572 <http_parser_execute+0x1322>
  402572:	8b 4d 90             	mov    -0x70(%rbp),%ecx
  402575:	48 8b 45 f0          	mov    -0x10(%rbp),%rax
  402579:	89 48 04             	mov    %ecx,0x4(%rax)
  40257c:	48 8b 45 f0          	mov    -0x10(%rbp),%rax
  402580:	8b 48 14             	mov    0x14(%rax),%ecx
  402583:	81 e1 ff ff ff 80    	and    $0x80ffffff,%ecx
  402589:	81 c9 00 00 00 10    	or     $0x10000000,%ecx
  40258f:	89 48 14             	mov    %ecx,0x14(%rax)
  402592:	e9 a5 52 00 00       	jmpq   40783c <http_parser_execute+0x65ec>
  402597:	c7 45 9c 13 00 00 00 	movl   $0x13,-0x64(%rbp)
  40259e:	48 8b 45 f0          	mov    -0x10(%rbp),%rax
  4025a2:	8b 40 14             	mov    0x14(%rax),%eax
  4025a5:	c1 e8 18             	shr    $0x18,%eax
  4025a8:	83 e0 7f             	and    $0x7f,%eax
  4025ab:	83 f8 00             	cmp    $0x0,%eax
  4025ae:	0f 85 05 00 00 00    	jne    4025b9 <http_parser_execute+0x1369>
  4025b4:	e9 28 00 00 00       	jmpq   4025e1 <http_parser_execute+0x1391>
  4025b9:	48 bf a0 06 41 00 00 	movabs $0x4106a0,%rdi
  4025c0:	00 00 00 
  4025c3:	48 be c4 06 41 00 00 	movabs $0x4106c4,%rsi
  4025ca:	00 00 00 
  4025cd:	ba c6 03 00 00       	mov    $0x3c6,%edx
  4025d2:	48 b9 d2 06 41 00 00 	movabs $0x4106d2,%rcx
  4025d9:	00 00 00 
  4025dc:	e8 af ea ff ff       	callq  401090 <__assert_fail@plt>
  4025e1:	48 8b 45 e8          	mov    -0x18(%rbp),%rax
  4025e5:	48 83 38 00          	cmpq   $0x0,(%rax)
  4025e9:	0f 95 c0             	setne  %al
  4025ec:	34 ff                	xor    $0xff,%al
  4025ee:	34 ff                	xor    $0xff,%al
  4025f0:	24 01                	and    $0x1,%al
  4025f2:	0f b6 c0             	movzbl %al,%eax
  4025f5:	48 98                	cltq   
  4025f7:	48 83 f8 00          	cmp    $0x0,%rax
  4025fb:	0f 84 c2 00 00 00    	je     4026c3 <http_parser_execute+0x1473>
  402601:	8b 55 9c             	mov    -0x64(%rbp),%edx
  402604:	48 8b 45 f0          	mov    -0x10(%rbp),%rax
  402608:	8b 08                	mov    (%rax),%ecx
  40260a:	83 e2 7f             	and    $0x7f,%edx
  40260d:	c1 e2 0a             	shl    $0xa,%edx
  402610:	81 e1 ff 03 fe ff    	and    $0xfffe03ff,%ecx
  402616:	09 d1                	or     %edx,%ecx
  402618:	89 08                	mov    %ecx,(%rax)
  40261a:	48 8b 45 e8          	mov    -0x18(%rbp),%rax
  40261e:	48 8b 00             	mov    (%rax),%rax
  402621:	48 8b 7d f0          	mov    -0x10(%rbp),%rdi
  402625:	ff d0                	callq  *%rax
  402627:	89 c1                	mov    %eax,%ecx
  402629:	31 c0                	xor    %eax,%eax
  40262b:	39 c8                	cmp    %ecx,%eax
  40262d:	0f 95 c0             	setne  %al
  402630:	34 ff                	xor    $0xff,%al
  402632:	34 ff                	xor    $0xff,%al
  402634:	24 01                	and    $0x1,%al
  402636:	0f b6 c0             	movzbl %al,%eax
  402639:	48 98                	cltq   
  40263b:	48 83 f8 00          	cmp    $0x0,%rax
  40263f:	0f 84 2a 00 00 00    	je     40266f <http_parser_execute+0x141f>
  402645:	e9 00 00 00 00       	jmpq   40264a <http_parser_execute+0x13fa>
  40264a:	8b 4d 90             	mov    -0x70(%rbp),%ecx
  40264d:	48 8b 45 f0          	mov    -0x10(%rbp),%rax
  402651:	89 48 04             	mov    %ecx,0x4(%rax)
  402654:	48 8b 45 f0          	mov    -0x10(%rbp),%rax
  402658:	8b 48 14             	mov    0x14(%rax),%ecx
  40265b:	81 e1 ff ff ff 80    	and    $0x80ffffff,%ecx
  402661:	81 c9 00 00 00 01    	or     $0x1000000,%ecx
  402667:	89 48 14             	mov    %ecx,0x14(%rax)
  40266a:	e9 00 00 00 00       	jmpq   40266f <http_parser_execute+0x141f>
  40266f:	48 8b 45 f0          	mov    -0x10(%rbp),%rax
  402673:	8b 00                	mov    (%rax),%eax
  402675:	c1 e8 0a             	shr    $0xa,%eax
  402678:	83 e0 7f             	and    $0x7f,%eax
  40267b:	89 45 9c             	mov    %eax,-0x64(%rbp)
  40267e:	48 8b 45 f0          	mov    -0x10(%rbp),%rax
  402682:	8b 40 14             	mov    0x14(%rax),%eax
  402685:	c1 e8 18             	shr    $0x18,%eax
  402688:	83 e0 7f             	and    $0x7f,%eax
  40268b:	83 f8 00             	cmp    $0x0,%eax
  40268e:	0f 95 c0             	setne  %al
  402691:	34 ff                	xor    $0xff,%al
  402693:	34 ff                	xor    $0xff,%al
  402695:	24 01                	and    $0x1,%al
  402697:	0f b6 c0             	movzbl %al,%eax
  40269a:	48 98                	cltq   
  40269c:	48 83 f8 00          	cmp    $0x0,%rax
  4026a0:	0f 84 18 00 00 00    	je     4026be <http_parser_execute+0x146e>
  4026a6:	48 8b 45 c8          	mov    -0x38(%rbp),%rax
  4026aa:	48 8b 4d e0          	mov    -0x20(%rbp),%rcx
  4026ae:	48 29 c8             	sub    %rcx,%rax
  4026b1:	48 83 c0 01          	add    $0x1,%rax
  4026b5:	48 89 45 f8          	mov    %rax,-0x8(%rbp)
  4026b9:	e9 f5 51 00 00       	jmpq   4078b3 <http_parser_execute+0x6663>
  4026be:	e9 00 00 00 00       	jmpq   4026c3 <http_parser_execute+0x1473>
  4026c3:	e9 00 00 00 00       	jmpq   4026c8 <http_parser_execute+0x1478>
  4026c8:	e9 01 4a 00 00       	jmpq   4070ce <http_parser_execute+0x5e7e>
  4026cd:	0f be 45 d6          	movsbl -0x2a(%rbp),%eax
  4026d1:	83 f8 00             	cmp    $0x0,%eax
  4026d4:	0f 94 c0             	sete   %al
  4026d7:	34 ff                	xor    $0xff,%al
  4026d9:	34 ff                	xor    $0xff,%al
  4026db:	24 01                	and    $0x1,%al
  4026dd:	0f b6 c0             	movzbl %al,%eax
  4026e0:	48 98                	cltq   
  4026e2:	48 83 f8 00          	cmp    $0x0,%rax
  4026e6:	0f 84 2a 00 00 00    	je     402716 <http_parser_execute+0x14c6>
  4026ec:	e9 00 00 00 00       	jmpq   4026f1 <http_parser_execute+0x14a1>
  4026f1:	8b 4d 90             	mov    -0x70(%rbp),%ecx
  4026f4:	48 8b 45 f0          	mov    -0x10(%rbp),%rax
  4026f8:	89 48 04             	mov    %ecx,0x4(%rax)
  4026fb:	48 8b 45 f0          	mov    -0x10(%rbp),%rax
  4026ff:	8b 48 14             	mov    0x14(%rax),%ecx
  402702:	81 e1 ff ff ff 80    	and    $0x80ffffff,%ecx
  402708:	81 c9 00 00 00 10    	or     $0x10000000,%ecx
  40270e:	89 48 14             	mov    %ecx,0x14(%rax)
  402711:	e9 26 51 00 00       	jmpq   40783c <http_parser_execute+0x65ec>
  402716:	48 8b 45 f0          	mov    -0x10(%rbp),%rax
  40271a:	8b 40 14             	mov    0x14(%rax),%eax
  40271d:	c1 e8 10             	shr    $0x10,%eax
  402720:	25 ff 00 00 00       	and    $0xff,%eax
  402725:	89 c0                	mov    %eax,%eax
  402727:	48 8b 04 c5 d0 e0 8b 	mov    0x8be0d0(,%rax,8),%rax
  40272e:	00 
  40272f:	48 89 45 88          	mov    %rax,-0x78(%rbp)
  402733:	0f be 45 d6          	movsbl -0x2a(%rbp),%eax
  402737:	83 f8 20             	cmp    $0x20,%eax
  40273a:	0f 85 2b 00 00 00    	jne    40276b <http_parser_execute+0x151b>
  402740:	48 8b 45 88          	mov    -0x78(%rbp),%rax
  402744:	48 8b 4d f0          	mov    -0x10(%rbp),%rcx
  402748:	8b 09                	mov    (%rcx),%ecx
  40274a:	c1 e9 18             	shr    $0x18,%ecx
  40274d:	83 e1 1f             	and    $0x1f,%ecx
  402750:	89 c9                	mov    %ecx,%ecx
  402752:	0f be 04 08          	movsbl (%rax,%rcx,1),%eax
  402756:	83 f8 00             	cmp    $0x0,%eax
  402759:	0f 85 0c 00 00 00    	jne    40276b <http_parser_execute+0x151b>
  40275f:	c7 45 9c 14 00 00 00 	movl   $0x14,-0x64(%rbp)
  402766:	e9 70 04 00 00       	jmpq   402bdb <http_parser_execute+0x198b>
  40276b:	0f be 45 d6          	movsbl -0x2a(%rbp),%eax
  40276f:	48 8b 4d 88          	mov    -0x78(%rbp),%rcx
  402773:	48 8b 55 f0          	mov    -0x10(%rbp),%rdx
  402777:	8b 12                	mov    (%rdx),%edx
  402779:	c1 ea 18             	shr    $0x18,%edx
  40277c:	83 e2 1f             	and    $0x1f,%edx
  40277f:	89 d2                	mov    %edx,%edx
  402781:	0f be 0c 11          	movsbl (%rcx,%rdx,1),%ecx
  402785:	39 c8                	cmp    %ecx,%eax
  402787:	0f 85 05 00 00 00    	jne    402792 <http_parser_execute+0x1542>
  40278d:	e9 44 04 00 00       	jmpq   402bd6 <http_parser_execute+0x1986>
  402792:	0f be 45 d6          	movsbl -0x2a(%rbp),%eax
  402796:	83 f8 41             	cmp    $0x41,%eax
  402799:	0f 8c 0d 00 00 00    	jl     4027ac <http_parser_execute+0x155c>
  40279f:	0f be 45 d6          	movsbl -0x2a(%rbp),%eax
  4027a3:	83 f8 5a             	cmp    $0x5a,%eax
  4027a6:	0f 8e 0d 00 00 00    	jle    4027b9 <http_parser_execute+0x1569>
  4027ac:	0f be 45 d6          	movsbl -0x2a(%rbp),%eax
  4027b0:	83 f8 2d             	cmp    $0x2d,%eax
  4027b3:	0f 85 ee 03 00 00    	jne    402ba7 <http_parser_execute+0x1957>
  4027b9:	48 8b 4d f0          	mov    -0x10(%rbp),%rcx
  4027bd:	0f b7 41 16          	movzwl 0x16(%rcx),%eax
  4027c1:	c1 e0 10             	shl    $0x10,%eax
  4027c4:	0f b7 49 02          	movzwl 0x2(%rcx),%ecx
  4027c8:	09 c8                	or     %ecx,%eax
  4027ca:	25 00 1f ff 00       	and    $0xff1f00,%eax
  4027cf:	0f be 4d d6          	movsbl -0x2a(%rbp),%ecx
  4027d3:	09 c8                	or     %ecx,%eax
  4027d5:	89 85 fc fe ff ff    	mov    %eax,-0x104(%rbp)
  4027db:	2d 41 01 03 00       	sub    $0x30141,%eax
  4027e0:	0f 84 ac 01 00 00    	je     402992 <http_parser_execute+0x1742>
  4027e6:	e9 00 00 00 00       	jmpq   4027eb <http_parser_execute+0x159b>
  4027eb:	8b 85 fc fe ff ff    	mov    -0x104(%rbp),%eax
  4027f1:	2d 52 01 03 00       	sub    $0x30152,%eax
  4027f6:	0f 84 b1 01 00 00    	je     4029ad <http_parser_execute+0x175d>
  4027fc:	e9 00 00 00 00       	jmpq   402801 <http_parser_execute+0x15b1>
  402801:	8b 85 fc fe ff ff    	mov    -0x104(%rbp),%eax
  402807:	2d 55 01 03 00       	sub    $0x30155,%eax
  40280c:	0f 84 65 01 00 00    	je     402977 <http_parser_execute+0x1727>
  402812:	e9 00 00 00 00       	jmpq   402817 <http_parser_execute+0x15c7>
  402817:	8b 85 fc fe ff ff    	mov    -0x104(%rbp),%eax
  40281d:	2d 52 02 04 00       	sub    $0x40252,%eax
  402822:	0f 84 a0 01 00 00    	je     4029c8 <http_parser_execute+0x1778>
  402828:	e9 00 00 00 00       	jmpq   40282d <http_parser_execute+0x15dd>
  40282d:	8b 85 fc fe ff ff    	mov    -0x104(%rbp),%eax
  402833:	2d 48 01 05 00       	sub    $0x50148,%eax
  402838:	0f 84 a5 01 00 00    	je     4029e3 <http_parser_execute+0x1793>
  40283e:	e9 00 00 00 00       	jmpq   402843 <http_parser_execute+0x15f3>
  402843:	8b 85 fc fe ff ff    	mov    -0x104(%rbp),%eax
  402849:	2d 50 02 05 00       	sub    $0x50250,%eax
  40284e:	0f 84 aa 01 00 00    	je     4029fe <http_parser_execute+0x17ae>
  402854:	e9 00 00 00 00       	jmpq   402859 <http_parser_execute+0x1609>
  402859:	8b 85 fc fe ff ff    	mov    -0x104(%rbp),%eax
  40285f:	2d 49 01 09 00       	sub    $0x90149,%eax
  402864:	0f 84 a2 02 00 00    	je     402b0c <http_parser_execute+0x18bc>
  40286a:	e9 00 00 00 00       	jmpq   40286f <http_parser_execute+0x161f>
  40286f:	8b 85 fc fe ff ff    	mov    -0x104(%rbp),%eax
  402875:	2d 2d 01 0a 00       	sub    $0xa012d,%eax
  40287a:	0f 84 cf 01 00 00    	je     402a4f <http_parser_execute+0x17ff>
  402880:	e9 00 00 00 00       	jmpq   402885 <http_parser_execute+0x1635>
  402885:	8b 85 fc fe ff ff    	mov    -0x104(%rbp),%eax
  40288b:	2d 45 01 0a 00       	sub    $0xa0145,%eax
  402890:	0f 84 9e 01 00 00    	je     402a34 <http_parser_execute+0x17e4>
  402896:	e9 00 00 00 00       	jmpq   40289b <http_parser_execute+0x164b>
  40289b:	8b 85 fc fe ff ff    	mov    -0x104(%rbp),%eax
  4028a1:	2d 4f 01 0a 00       	sub    $0xa014f,%eax
  4028a6:	0f 84 6d 01 00 00    	je     402a19 <http_parser_execute+0x17c9>
  4028ac:	e9 00 00 00 00       	jmpq   4028b1 <http_parser_execute+0x1661>
  4028b1:	8b 85 fc fe ff ff    	mov    -0x104(%rbp),%eax
  4028b7:	2d 41 02 0a 00       	sub    $0xa0241,%eax
  4028bc:	0f 84 a8 01 00 00    	je     402a6a <http_parser_execute+0x181a>
  4028c2:	e9 00 00 00 00       	jmpq   4028c7 <http_parser_execute+0x1677>
  4028c7:	8b 85 fc fe ff ff    	mov    -0x104(%rbp),%eax
  4028cd:	2d 41 03 0a 00       	sub    $0xa0341,%eax
  4028d2:	0f 84 ad 01 00 00    	je     402a85 <http_parser_execute+0x1835>
  4028d8:	e9 00 00 00 00       	jmpq   4028dd <http_parser_execute+0x168d>
  4028dd:	8b 85 fc fe ff ff    	mov    -0x104(%rbp),%eax
  4028e3:	2d 50 04 0c 00       	sub    $0xc0450,%eax
  4028e8:	0f 84 03 02 00 00    	je     402af1 <http_parser_execute+0x18a1>
  4028ee:	e9 00 00 00 00       	jmpq   4028f3 <http_parser_execute+0x16a3>
  4028f3:	8b 85 fc fe ff ff    	mov    -0x104(%rbp),%eax
  4028f9:	2d 42 02 0f 00       	sub    $0xf0242,%eax
  4028fe:	0f 84 3e 02 00 00    	je     402b42 <http_parser_execute+0x18f2>
  402904:	e9 00 00 00 00       	jmpq   402909 <http_parser_execute+0x16b9>
  402909:	8b 85 fc fe ff ff    	mov    -0x104(%rbp),%eax
  40290f:	2d 53 02 0f 00       	sub    $0xf0253,%eax
  402914:	0f 84 0d 02 00 00    	je     402b27 <http_parser_execute+0x18d7>
  40291a:	e9 00 00 00 00       	jmpq   40291f <http_parser_execute+0x16cf>
  40291f:	8b 85 fc fe ff ff    	mov    -0x104(%rbp),%eax
  402925:	2d 49 03 0f 00       	sub    $0xf0349,%eax
  40292a:	0f 84 2d 02 00 00    	je     402b5d <http_parser_execute+0x190d>
  402930:	e9 00 00 00 00       	jmpq   402935 <http_parser_execute+0x16e5>
  402935:	8b 85 fc fe ff ff    	mov    -0x104(%rbp),%eax
  40293b:	2d 42 02 14 00       	sub    $0x140242,%eax
  402940:	0f 84 90 01 00 00    	je     402ad6 <http_parser_execute+0x1886>
  402946:	e9 00 00 00 00       	jmpq   40294b <http_parser_execute+0x16fb>
  40294b:	8b 85 fc fe ff ff    	mov    -0x104(%rbp),%eax
  402951:	2d 45 01 1a 00       	sub    $0x1a0145,%eax
  402956:	0f 84 44 01 00 00    	je     402aa0 <http_parser_execute+0x1850>
  40295c:	e9 00 00 00 00       	jmpq   402961 <http_parser_execute+0x1711>
  402961:	8b 85 fc fe ff ff    	mov    -0x104(%rbp),%eax
  402967:	2d 4f 01 1a 00       	sub    $0x1a014f,%eax
  40296c:	0f 84 49 01 00 00    	je     402abb <http_parser_execute+0x186b>
  402972:	e9 01 02 00 00       	jmpq   402b78 <http_parser_execute+0x1928>
  402977:	48 8b 45 f0          	mov    -0x10(%rbp),%rax
  40297b:	8b 48 14             	mov    0x14(%rax),%ecx
  40297e:	81 e1 ff ff 00 ff    	and    $0xff00ffff,%ecx
  402984:	81 c9 00 00 04 00    	or     $0x40000,%ecx
  40298a:	89 48 14             	mov    %ecx,0x14(%rax)
  40298d:	e9 10 02 00 00       	jmpq   402ba2 <http_parser_execute+0x1952>
  402992:	48 8b 45 f0          	mov    -0x10(%rbp),%rax
  402996:	8b 48 14             	mov    0x14(%rax),%ecx
  402999:	81 e1 ff ff 00 ff    	and    $0xff00ffff,%ecx
  40299f:	81 c9 00 00 1c 00    	or     $0x1c0000,%ecx
  4029a5:	89 48 14             	mov    %ecx,0x14(%rax)
  4029a8:	e9 f5 01 00 00       	jmpq   402ba2 <http_parser_execute+0x1952>
  4029ad:	48 8b 45 f0          	mov    -0x10(%rbp),%rax
  4029b1:	8b 48 14             	mov    0x14(%rax),%ecx
  4029b4:	81 e1 ff ff 00 ff    	and    $0xff00ffff,%ecx
  4029ba:	81 c9 00 00 0c 00    	or     $0xc0000,%ecx
  4029c0:	89 48 14             	mov    %ecx,0x14(%rax)
  4029c3:	e9 da 01 00 00       	jmpq   402ba2 <http_parser_execute+0x1952>
  4029c8:	48 8b 45 f0          	mov    -0x10(%rbp),%rax
  4029cc:	8b 48 14             	mov    0x14(%rax),%ecx
  4029cf:	81 e1 ff ff 00 ff    	and    $0xff00ffff,%ecx
  4029d5:	81 c9 00 00 1d 00    	or     $0x1d0000,%ecx
  4029db:	89 48 14             	mov    %ecx,0x14(%rax)
  4029de:	e9 bf 01 00 00       	jmpq   402ba2 <http_parser_execute+0x1952>
  4029e3:	48 8b 45 f0          	mov    -0x10(%rbp),%rax
  4029e7:	8b 48 14             	mov    0x14(%rax),%ecx
  4029ea:	81 e1 ff ff 00 ff    	and    $0xff00ffff,%ecx
  4029f0:	81 c9 00 00 16 00    	or     $0x160000,%ecx
  4029f6:	89 48 14             	mov    %ecx,0x14(%rax)
  4029f9:	e9 a4 01 00 00       	jmpq   402ba2 <http_parser_execute+0x1952>
  4029fe:	48 8b 45 f0          	mov    -0x10(%rbp),%rax
  402a02:	8b 48 14             	mov    0x14(%rax),%ecx
  402a05:	81 e1 ff ff 00 ff    	and    $0xff00ffff,%ecx
  402a0b:	81 c9 00 00 08 00    	or     $0x80000,%ecx
  402a11:	89 48 14             	mov    %ecx,0x14(%rax)
  402a14:	e9 89 01 00 00       	jmpq   402ba2 <http_parser_execute+0x1952>
  402a19:	48 8b 45 f0          	mov    -0x10(%rbp),%rax
  402a1d:	8b 48 14             	mov    0x14(%rax),%ecx
  402a20:	81 e1 ff ff 00 ff    	and    $0xff00ffff,%ecx
  402a26:	81 c9 00 00 0b 00    	or     $0xb0000,%ecx
  402a2c:	89 48 14             	mov    %ecx,0x14(%rax)
  402a2f:	e9 6e 01 00 00       	jmpq   402ba2 <http_parser_execute+0x1952>
  402a34:	48 8b 45 f0          	mov    -0x10(%rbp),%rax
  402a38:	8b 48 14             	mov    0x14(%rax),%ecx
  402a3b:	81 e1 ff ff 00 ff    	and    $0xff00ffff,%ecx
  402a41:	81 c9 00 00 17 00    	or     $0x170000,%ecx
  402a47:	89 48 14             	mov    %ecx,0x14(%rax)
  402a4a:	e9 53 01 00 00       	jmpq   402ba2 <http_parser_execute+0x1952>
  402a4f:	48 8b 45 f0          	mov    -0x10(%rbp),%rax
  402a53:	8b 48 14             	mov    0x14(%rax),%ecx
  402a56:	81 e1 ff ff 00 ff    	and    $0xff00ffff,%ecx
  402a5c:	81 c9 00 00 18 00    	or     $0x180000,%ecx
  402a62:	89 48 14             	mov    %ecx,0x14(%rax)
  402a65:	e9 38 01 00 00       	jmpq   402ba2 <http_parser_execute+0x1952>
  402a6a:	48 8b 45 f0          	mov    -0x10(%rbp),%rax
  402a6e:	8b 48 14             	mov    0x14(%rax),%ecx
  402a71:	81 e1 ff ff 00 ff    	and    $0xff00ffff,%ecx
  402a77:	81 c9 00 00 15 00    	or     $0x150000,%ecx
  402a7d:	89 48 14             	mov    %ecx,0x14(%rax)
  402a80:	e9 1d 01 00 00       	jmpq   402ba2 <http_parser_execute+0x1952>
  402a85:	48 8b 45 f0          	mov    -0x10(%rbp),%rax
  402a89:	8b 48 14             	mov    0x14(%rax),%ecx
  402a8c:	81 e1 ff ff 00 ff    	and    $0xff00ffff,%ecx
  402a92:	81 c9 00 00 1e 00    	or     $0x1e0000,%ecx
  402a98:	89 48 14             	mov    %ecx,0x14(%rax)
  402a9b:	e9 02 01 00 00       	jmpq   402ba2 <http_parser_execute+0x1952>
  402aa0:	48 8b 45 f0          	mov    -0x10(%rbp),%rax
  402aa4:	8b 48 14             	mov    0x14(%rax),%ecx
  402aa7:	81 e1 ff ff 00 ff    	and    $0xff00ffff,%ecx
  402aad:	81 c9 00 00 0e 00    	or     $0xe0000,%ecx
  402ab3:	89 48 14             	mov    %ecx,0x14(%rax)
  402ab6:	e9 e7 00 00 00       	jmpq   402ba2 <http_parser_execute+0x1952>
  402abb:	48 8b 45 f0          	mov    -0x10(%rbp),%rax
  402abf:	8b 48 14             	mov    0x14(%rax),%ecx
  402ac2:	81 e1 ff ff 00 ff    	and    $0xff00ffff,%ecx
  402ac8:	81 c9 00 00 21 00    	or     $0x210000,%ecx
  402ace:	89 48 14             	mov    %ecx,0x14(%rax)
  402ad1:	e9 cc 00 00 00       	jmpq   402ba2 <http_parser_execute+0x1952>
  402ad6:	48 8b 45 f0          	mov    -0x10(%rbp),%rax
  402ada:	8b 48 14             	mov    0x14(%rax),%ecx
  402add:	81 e1 ff ff 00 ff    	and    $0xff00ffff,%ecx
  402ae3:	81 c9 00 00 11 00    	or     $0x110000,%ecx
  402ae9:	89 48 14             	mov    %ecx,0x14(%rax)
  402aec:	e9 b1 00 00 00       	jmpq   402ba2 <http_parser_execute+0x1952>
  402af1:	48 8b 45 f0          	mov    -0x10(%rbp),%rax
  402af5:	8b 48 14             	mov    0x14(%rax),%ecx
  402af8:	81 e1 ff ff 00 ff    	and    $0xff00ffff,%ecx
  402afe:	81 c9 00 00 0d 00    	or     $0xd0000,%ecx
  402b04:	89 48 14             	mov    %ecx,0x14(%rax)
  402b07:	e9 96 00 00 00       	jmpq   402ba2 <http_parser_execute+0x1952>
  402b0c:	48 8b 45 f0          	mov    -0x10(%rbp),%rax
  402b10:	8b 48 14             	mov    0x14(%rax),%ecx
  402b13:	81 e1 ff ff 00 ff    	and    $0xff00ffff,%ecx
  402b19:	81 c9 00 00 1f 00    	or     $0x1f0000,%ecx
  402b1f:	89 48 14             	mov    %ecx,0x14(%rax)
  402b22:	e9 7b 00 00 00       	jmpq   402ba2 <http_parser_execute+0x1952>
  402b27:	48 8b 45 f0          	mov    -0x10(%rbp),%rax
  402b2b:	8b 48 14             	mov    0x14(%rax),%ecx
  402b2e:	81 e1 ff ff 00 ff    	and    $0xff00ffff,%ecx
  402b34:	81 c9 00 00 1b 00    	or     $0x1b0000,%ecx
  402b3a:	89 48 14             	mov    %ecx,0x14(%rax)
  402b3d:	e9 60 00 00 00       	jmpq   402ba2 <http_parser_execute+0x1952>
  402b42:	48 8b 45 f0          	mov    -0x10(%rbp),%rax
  402b46:	8b 48 14             	mov    0x14(%rax),%ecx
  402b49:	81 e1 ff ff 00 ff    	and    $0xff00ffff,%ecx
  402b4f:	81 c9 00 00 12 00    	or     $0x120000,%ecx
  402b55:	89 48 14             	mov    %ecx,0x14(%rax)
  402b58:	e9 45 00 00 00       	jmpq   402ba2 <http_parser_execute+0x1952>
  402b5d:	48 8b 45 f0          	mov    -0x10(%rbp),%rax
  402b61:	8b 48 14             	mov    0x14(%rax),%ecx
  402b64:	81 e1 ff ff 00 ff    	and    $0xff00ffff,%ecx
  402b6a:	81 c9 00 00 20 00    	or     $0x200000,%ecx
  402b70:	89 48 14             	mov    %ecx,0x14(%rax)
  402b73:	e9 2a 00 00 00       	jmpq   402ba2 <http_parser_execute+0x1952>
  402b78:	e9 00 00 00 00       	jmpq   402b7d <http_parser_execute+0x192d>
  402b7d:	8b 4d 90             	mov    -0x70(%rbp),%ecx
  402b80:	48 8b 45 f0          	mov    -0x10(%rbp),%rax
  402b84:	89 48 04             	mov    %ecx,0x4(%rax)
  402b87:	48 8b 45 f0          	mov    -0x10(%rbp),%rax
  402b8b:	8b 48 14             	mov    0x14(%rax),%ecx
  402b8e:	81 e1 ff ff ff 80    	and    $0x80ffffff,%ecx
  402b94:	81 c9 00 00 00 10    	or     $0x10000000,%ecx
  402b9a:	89 48 14             	mov    %ecx,0x14(%rax)
  402b9d:	e9 9a 4c 00 00       	jmpq   40783c <http_parser_execute+0x65ec>
  402ba2:	e9 2a 00 00 00       	jmpq   402bd1 <http_parser_execute+0x1981>
  402ba7:	e9 00 00 00 00       	jmpq   402bac <http_parser_execute+0x195c>
  402bac:	8b 4d 90             	mov    -0x70(%rbp),%ecx
  402baf:	48 8b 45 f0          	mov    -0x10(%rbp),%rax
  402bb3:	89 48 04             	mov    %ecx,0x4(%rax)
  402bb6:	48 8b 45 f0          	mov    -0x10(%rbp),%rax
  402bba:	8b 48 14             	mov    0x14(%rax),%ecx
  402bbd:	81 e1 ff ff ff 80    	and    $0x80ffffff,%ecx
  402bc3:	81 c9 00 00 00 10    	or     $0x10000000,%ecx
  402bc9:	89 48 14             	mov    %ecx,0x14(%rax)
  402bcc:	e9 6b 4c 00 00       	jmpq   40783c <http_parser_execute+0x65ec>
  402bd1:	e9 00 00 00 00       	jmpq   402bd6 <http_parser_execute+0x1986>
  402bd6:	e9 00 00 00 00       	jmpq   402bdb <http_parser_execute+0x198b>
  402bdb:	48 8b 45 f0          	mov    -0x10(%rbp),%rax
  402bdf:	8b 10                	mov    (%rax),%edx
  402be1:	c1 ea 18             	shr    $0x18,%edx
  402be4:	83 e2 1f             	and    $0x1f,%edx
  402be7:	83 c2 01             	add    $0x1,%edx
  402bea:	8b 08                	mov    (%rax),%ecx
  402bec:	83 e2 1f             	and    $0x1f,%edx
  402bef:	c1 e2 18             	shl    $0x18,%edx
  402bf2:	81 e1 ff ff ff e0    	and    $0xe0ffffff,%ecx
  402bf8:	09 d1                	or     %edx,%ecx
  402bfa:	89 08                	mov    %ecx,(%rax)
  402bfc:	e9 cd 44 00 00       	jmpq   4070ce <http_parser_execute+0x5e7e>
  402c01:	0f be 45 d6          	movsbl -0x2a(%rbp),%eax
  402c05:	83 f8 20             	cmp    $0x20,%eax
  402c08:	0f 85 05 00 00 00    	jne    402c13 <http_parser_execute+0x19c3>
  402c0e:	e9 bb 44 00 00       	jmpq   4070ce <http_parser_execute+0x5e7e>
  402c13:	e9 00 00 00 00       	jmpq   402c18 <http_parser_execute+0x19c8>
  402c18:	48 83 7d b0 00       	cmpq   $0x0,-0x50(%rbp)
  402c1d:	0f 85 08 00 00 00    	jne    402c2b <http_parser_execute+0x19db>
  402c23:	48 8b 45 c8          	mov    -0x38(%rbp),%rax
  402c27:	48 89 45 b0          	mov    %rax,-0x50(%rbp)
  402c2b:	e9 00 00 00 00       	jmpq   402c30 <http_parser_execute+0x19e0>
  402c30:	48 8b 45 f0          	mov    -0x10(%rbp),%rax
  402c34:	8b 40 14             	mov    0x14(%rax),%eax
  402c37:	c1 e8 10             	shr    $0x10,%eax
  402c3a:	25 ff 00 00 00       	and    $0xff,%eax
  402c3f:	83 f8 05             	cmp    $0x5,%eax
  402c42:	0f 85 07 00 00 00    	jne    402c4f <http_parser_execute+0x19ff>
  402c48:	c7 45 9c 18 00 00 00 	movl   $0x18,-0x64(%rbp)
  402c4f:	8b 7d 9c             	mov    -0x64(%rbp),%edi
  402c52:	0f be 75 d6          	movsbl -0x2a(%rbp),%esi
  402c56:	e8 65 4c 00 00       	callq  4078c0 <parse_url_char>
  402c5b:	89 45 9c             	mov    %eax,-0x64(%rbp)
  402c5e:	83 7d 9c 01          	cmpl   $0x1,-0x64(%rbp)
  402c62:	0f 94 c0             	sete   %al
  402c65:	34 ff                	xor    $0xff,%al
  402c67:	34 ff                	xor    $0xff,%al
  402c69:	24 01                	and    $0x1,%al
  402c6b:	0f b6 c0             	movzbl %al,%eax
  402c6e:	48 98                	cltq   
  402c70:	48 83 f8 00          	cmp    $0x0,%rax
  402c74:	0f 84 2a 00 00 00    	je     402ca4 <http_parser_execute+0x1a54>
  402c7a:	e9 00 00 00 00       	jmpq   402c7f <http_parser_execute+0x1a2f>
  402c7f:	8b 4d 90             	mov    -0x70(%rbp),%ecx
  402c82:	48 8b 45 f0          	mov    -0x10(%rbp),%rax
  402c86:	89 48 04             	mov    %ecx,0x4(%rax)
  402c89:	48 8b 45 f0          	mov    -0x10(%rbp),%rax
  402c8d:	8b 48 14             	mov    0x14(%rax),%ecx
  402c90:	81 e1 ff ff ff 80    	and    $0x80ffffff,%ecx
  402c96:	81 c9 00 00 00 11    	or     $0x11000000,%ecx
  402c9c:	89 48 14             	mov    %ecx,0x14(%rax)
  402c9f:	e9 98 4b 00 00       	jmpq   40783c <http_parser_execute+0x65ec>
  402ca4:	e9 25 44 00 00       	jmpq   4070ce <http_parser_execute+0x5e7e>
  402ca9:	0f be 45 d6          	movsbl -0x2a(%rbp),%eax
  402cad:	89 85 f8 fe ff ff    	mov    %eax,-0x108(%rbp)
  402cb3:	83 e8 0a             	sub    $0xa,%eax
  402cb6:	0f 84 2d 00 00 00    	je     402ce9 <http_parser_execute+0x1a99>
  402cbc:	e9 00 00 00 00       	jmpq   402cc1 <http_parser_execute+0x1a71>
  402cc1:	8b 85 f8 fe ff ff    	mov    -0x108(%rbp),%eax
  402cc7:	83 e8 0d             	sub    $0xd,%eax
  402cca:	0f 84 19 00 00 00    	je     402ce9 <http_parser_execute+0x1a99>
  402cd0:	e9 00 00 00 00       	jmpq   402cd5 <http_parser_execute+0x1a85>
  402cd5:	8b 85 f8 fe ff ff    	mov    -0x108(%rbp),%eax
  402cdb:	83 e8 20             	sub    $0x20,%eax
  402cde:	0f 85 2f 00 00 00    	jne    402d13 <http_parser_execute+0x1ac3>
  402ce4:	e9 00 00 00 00       	jmpq   402ce9 <http_parser_execute+0x1a99>
  402ce9:	e9 00 00 00 00       	jmpq   402cee <http_parser_execute+0x1a9e>
  402cee:	8b 4d 90             	mov    -0x70(%rbp),%ecx
  402cf1:	48 8b 45 f0          	mov    -0x10(%rbp),%rax
  402cf5:	89 48 04             	mov    %ecx,0x4(%rax)
  402cf8:	48 8b 45 f0          	mov    -0x10(%rbp),%rax
  402cfc:	8b 48 14             	mov    0x14(%rax),%ecx
  402cff:	81 e1 ff ff ff 80    	and    $0x80ffffff,%ecx
  402d05:	81 c9 00 00 00 11    	or     $0x11000000,%ecx
  402d0b:	89 48 14             	mov    %ecx,0x14(%rax)
  402d0e:	e9 29 4b 00 00       	jmpq   40783c <http_parser_execute+0x65ec>
  402d13:	8b 7d 9c             	mov    -0x64(%rbp),%edi
  402d16:	0f be 75 d6          	movsbl -0x2a(%rbp),%esi
  402d1a:	e8 a1 4b 00 00       	callq  4078c0 <parse_url_char>
  402d1f:	89 45 9c             	mov    %eax,-0x64(%rbp)
  402d22:	83 7d 9c 01          	cmpl   $0x1,-0x64(%rbp)
  402d26:	0f 94 c0             	sete   %al
  402d29:	34 ff                	xor    $0xff,%al
  402d2b:	34 ff                	xor    $0xff,%al
  402d2d:	24 01                	and    $0x1,%al
  402d2f:	0f b6 c0             	movzbl %al,%eax
  402d32:	48 98                	cltq   
  402d34:	48 83 f8 00          	cmp    $0x0,%rax
  402d38:	0f 84 2a 00 00 00    	je     402d68 <http_parser_execute+0x1b18>
  402d3e:	e9 00 00 00 00       	jmpq   402d43 <http_parser_execute+0x1af3>
  402d43:	8b 4d 90             	mov    -0x70(%rbp),%ecx
  402d46:	48 8b 45 f0          	mov    -0x10(%rbp),%rax
  402d4a:	89 48 04             	mov    %ecx,0x4(%rax)
  402d4d:	48 8b 45 f0          	mov    -0x10(%rbp),%rax
  402d51:	8b 48 14             	mov    0x14(%rax),%ecx
  402d54:	81 e1 ff ff ff 80    	and    $0x80ffffff,%ecx
  402d5a:	81 c9 00 00 00 11    	or     $0x11000000,%ecx
  402d60:	89 48 14             	mov    %ecx,0x14(%rax)
  402d63:	e9 d4 4a 00 00       	jmpq   40783c <http_parser_execute+0x65ec>
  402d68:	e9 00 00 00 00       	jmpq   402d6d <http_parser_execute+0x1b1d>
  402d6d:	e9 5c 43 00 00       	jmpq   4070ce <http_parser_execute+0x5e7e>
  402d72:	0f be 45 d6          	movsbl -0x2a(%rbp),%eax
  402d76:	89 85 f4 fe ff ff    	mov    %eax,-0x10c(%rbp)
  402d7c:	83 e8 0a             	sub    $0xa,%eax
  402d7f:	0f 84 87 01 00 00    	je     402f0c <http_parser_execute+0x1cbc>
  402d85:	e9 00 00 00 00       	jmpq   402d8a <http_parser_execute+0x1b3a>
  402d8a:	8b 85 f4 fe ff ff    	mov    -0x10c(%rbp),%eax
  402d90:	83 e8 0d             	sub    $0xd,%eax
  402d93:	0f 84 73 01 00 00    	je     402f0c <http_parser_execute+0x1cbc>
  402d99:	e9 00 00 00 00       	jmpq   402d9e <http_parser_execute+0x1b4e>
  402d9e:	8b 85 f4 fe ff ff    	mov    -0x10c(%rbp),%eax
  402da4:	83 e8 20             	sub    $0x20,%eax
  402da7:	0f 85 dd 02 00 00    	jne    40308a <http_parser_execute+0x1e3a>
  402dad:	e9 00 00 00 00       	jmpq   402db2 <http_parser_execute+0x1b62>
  402db2:	c7 45 9c 20 00 00 00 	movl   $0x20,-0x64(%rbp)
  402db9:	48 8b 45 f0          	mov    -0x10(%rbp),%rax
  402dbd:	8b 40 14             	mov    0x14(%rax),%eax
  402dc0:	c1 e8 18             	shr    $0x18,%eax
  402dc3:	83 e0 7f             	and    $0x7f,%eax
  402dc6:	83 f8 00             	cmp    $0x0,%eax
  402dc9:	0f 85 05 00 00 00    	jne    402dd4 <http_parser_execute+0x1b84>
  402dcf:	e9 28 00 00 00       	jmpq   402dfc <http_parser_execute+0x1bac>
  402dd4:	48 bf a0 06 41 00 00 	movabs $0x4106a0,%rdi
  402ddb:	00 00 00 
  402dde:	48 be c4 06 41 00 00 	movabs $0x4106c4,%rsi
  402de5:	00 00 00 
  402de8:	ba 34 04 00 00       	mov    $0x434,%edx
  402ded:	48 b9 d2 06 41 00 00 	movabs $0x4106d2,%rcx
  402df4:	00 00 00 
  402df7:	e8 94 e2 ff ff       	callq  401090 <__assert_fail@plt>
  402dfc:	48 83 7d b0 00       	cmpq   $0x0,-0x50(%rbp)
  402e01:	0f 84 fb 00 00 00    	je     402f02 <http_parser_execute+0x1cb2>
  402e07:	48 8b 45 e8          	mov    -0x18(%rbp),%rax
  402e0b:	48 83 78 08 00       	cmpq   $0x0,0x8(%rax)
  402e10:	0f 95 c0             	setne  %al
  402e13:	34 ff                	xor    $0xff,%al
  402e15:	34 ff                	xor    $0xff,%al
  402e17:	24 01                	and    $0x1,%al
  402e19:	0f b6 c0             	movzbl %al,%eax
  402e1c:	48 98                	cltq   
  402e1e:	48 83 f8 00          	cmp    $0x0,%rax
  402e22:	0f 84 d2 00 00 00    	je     402efa <http_parser_execute+0x1caa>
  402e28:	8b 55 9c             	mov    -0x64(%rbp),%edx
  402e2b:	48 8b 45 f0          	mov    -0x10(%rbp),%rax
  402e2f:	8b 08                	mov    (%rax),%ecx
  402e31:	83 e2 7f             	and    $0x7f,%edx
  402e34:	c1 e2 0a             	shl    $0xa,%edx
  402e37:	81 e1 ff 03 fe ff    	and    $0xfffe03ff,%ecx
  402e3d:	09 d1                	or     %edx,%ecx
  402e3f:	89 08                	mov    %ecx,(%rax)
  402e41:	48 8b 45 e8          	mov    -0x18(%rbp),%rax
  402e45:	48 8b 40 08          	mov    0x8(%rax),%rax
  402e49:	48 8b 7d f0          	mov    -0x10(%rbp),%rdi
  402e4d:	48 8b 75 b0          	mov    -0x50(%rbp),%rsi
  402e51:	48 8b 55 c8          	mov    -0x38(%rbp),%rdx
  402e55:	48 8b 4d b0          	mov    -0x50(%rbp),%rcx
  402e59:	48 29 ca             	sub    %rcx,%rdx
  402e5c:	ff d0                	callq  *%rax
  402e5e:	89 c1                	mov    %eax,%ecx
  402e60:	31 c0                	xor    %eax,%eax
  402e62:	39 c8                	cmp    %ecx,%eax
  402e64:	0f 95 c0             	setne  %al
  402e67:	34 ff                	xor    $0xff,%al
  402e69:	34 ff                	xor    $0xff,%al
  402e6b:	24 01                	and    $0x1,%al
  402e6d:	0f b6 c0             	movzbl %al,%eax
  402e70:	48 98                	cltq   
  402e72:	48 83 f8 00          	cmp    $0x0,%rax
  402e76:	0f 84 2a 00 00 00    	je     402ea6 <http_parser_execute+0x1c56>
  402e7c:	e9 00 00 00 00       	jmpq   402e81 <http_parser_execute+0x1c31>
  402e81:	8b 4d 90             	mov    -0x70(%rbp),%ecx
  402e84:	48 8b 45 f0          	mov    -0x10(%rbp),%rax
  402e88:	89 48 04             	mov    %ecx,0x4(%rax)
  402e8b:	48 8b 45 f0          	mov    -0x10(%rbp),%rax
  402e8f:	8b 48 14             	mov    0x14(%rax),%ecx
  402e92:	81 e1 ff ff ff 80    	and    $0x80ffffff,%ecx
  402e98:	81 c9 00 00 00 02    	or     $0x2000000,%ecx
  402e9e:	89 48 14             	mov    %ecx,0x14(%rax)
  402ea1:	e9 00 00 00 00       	jmpq   402ea6 <http_parser_execute+0x1c56>
  402ea6:	48 8b 45 f0          	mov    -0x10(%rbp),%rax
  402eaa:	8b 00                	mov    (%rax),%eax
  402eac:	c1 e8 0a             	shr    $0xa,%eax
  402eaf:	83 e0 7f             	and    $0x7f,%eax
  402eb2:	89 45 9c             	mov    %eax,-0x64(%rbp)
  402eb5:	48 8b 45 f0          	mov    -0x10(%rbp),%rax
  402eb9:	8b 40 14             	mov    0x14(%rax),%eax
  402ebc:	c1 e8 18             	shr    $0x18,%eax
  402ebf:	83 e0 7f             	and    $0x7f,%eax
  402ec2:	83 f8 00             	cmp    $0x0,%eax
  402ec5:	0f 95 c0             	setne  %al
  402ec8:	34 ff                	xor    $0xff,%al
  402eca:	34 ff                	xor    $0xff,%al
  402ecc:	24 01                	and    $0x1,%al
  402ece:	0f b6 c0             	movzbl %al,%eax
  402ed1:	48 98                	cltq   
  402ed3:	48 83 f8 00          	cmp    $0x0,%rax
  402ed7:	0f 84 18 00 00 00    	je     402ef5 <http_parser_execute+0x1ca5>
  402edd:	48 8b 45 c8          	mov    -0x38(%rbp),%rax
  402ee1:	48 8b 4d e0          	mov    -0x20(%rbp),%rcx
  402ee5:	48 29 c8             	sub    %rcx,%rax
  402ee8:	48 83 c0 01          	add    $0x1,%rax
  402eec:	48 89 45 f8          	mov    %rax,-0x8(%rbp)
  402ef0:	e9 be 49 00 00       	jmpq   4078b3 <http_parser_execute+0x6663>
  402ef5:	e9 00 00 00 00       	jmpq   402efa <http_parser_execute+0x1caa>
  402efa:	48 c7 45 b0 00 00 00 	movq   $0x0,-0x50(%rbp)
  402f01:	00 
  402f02:	e9 00 00 00 00       	jmpq   402f07 <http_parser_execute+0x1cb7>
  402f07:	e9 d8 01 00 00       	jmpq   4030e4 <http_parser_execute+0x1e94>
  402f0c:	48 8b 45 f0          	mov    -0x10(%rbp),%rax
  402f10:	66 c7 40 10 00 00    	movw   $0x0,0x10(%rax)
  402f16:	48 8b 45 f0          	mov    -0x10(%rbp),%rax
  402f1a:	66 c7 40 12 09 00    	movw   $0x9,0x12(%rax)
  402f20:	0f be 55 d6          	movsbl -0x2a(%rbp),%edx
  402f24:	b8 2c 00 00 00       	mov    $0x2c,%eax
  402f29:	b9 2b 00 00 00       	mov    $0x2b,%ecx
  402f2e:	83 fa 0d             	cmp    $0xd,%edx
  402f31:	0f 44 c1             	cmove  %ecx,%eax
  402f34:	89 45 9c             	mov    %eax,-0x64(%rbp)
  402f37:	48 8b 45 f0          	mov    -0x10(%rbp),%rax
  402f3b:	8b 40 14             	mov    0x14(%rax),%eax
  402f3e:	c1 e8 18             	shr    $0x18,%eax
  402f41:	83 e0 7f             	and    $0x7f,%eax
  402f44:	83 f8 00             	cmp    $0x0,%eax
  402f47:	0f 85 05 00 00 00    	jne    402f52 <http_parser_execute+0x1d02>
  402f4d:	e9 28 00 00 00       	jmpq   402f7a <http_parser_execute+0x1d2a>
  402f52:	48 bf a0 06 41 00 00 	movabs $0x4106a0,%rdi
  402f59:	00 00 00 
  402f5c:	48 be c4 06 41 00 00 	movabs $0x4106c4,%rsi
  402f63:	00 00 00 
  402f66:	ba 3d 04 00 00       	mov    $0x43d,%edx
  402f6b:	48 b9 d2 06 41 00 00 	movabs $0x4106d2,%rcx
  402f72:	00 00 00 
  402f75:	e8 16 e1 ff ff       	callq  401090 <__assert_fail@plt>
  402f7a:	48 83 7d b0 00       	cmpq   $0x0,-0x50(%rbp)
  402f7f:	0f 84 fb 00 00 00    	je     403080 <http_parser_execute+0x1e30>
  402f85:	48 8b 45 e8          	mov    -0x18(%rbp),%rax
  402f89:	48 83 78 08 00       	cmpq   $0x0,0x8(%rax)
  402f8e:	0f 95 c0             	setne  %al
  402f91:	34 ff                	xor    $0xff,%al
  402f93:	34 ff                	xor    $0xff,%al
  402f95:	24 01                	and    $0x1,%al
  402f97:	0f b6 c0             	movzbl %al,%eax
  402f9a:	48 98                	cltq   
  402f9c:	48 83 f8 00          	cmp    $0x0,%rax
  402fa0:	0f 84 d2 00 00 00    	je     403078 <http_parser_execute+0x1e28>
  402fa6:	8b 55 9c             	mov    -0x64(%rbp),%edx
  402fa9:	48 8b 45 f0          	mov    -0x10(%rbp),%rax
  402fad:	8b 08                	mov    (%rax),%ecx
  402faf:	83 e2 7f             	and    $0x7f,%edx
  402fb2:	c1 e2 0a             	shl    $0xa,%edx
  402fb5:	81 e1 ff 03 fe ff    	and    $0xfffe03ff,%ecx
  402fbb:	09 d1                	or     %edx,%ecx
  402fbd:	89 08                	mov    %ecx,(%rax)
  402fbf:	48 8b 45 e8          	mov    -0x18(%rbp),%rax
  402fc3:	48 8b 40 08          	mov    0x8(%rax),%rax
  402fc7:	48 8b 7d f0          	mov    -0x10(%rbp),%rdi
  402fcb:	48 8b 75 b0          	mov    -0x50(%rbp),%rsi
  402fcf:	48 8b 55 c8          	mov    -0x38(%rbp),%rdx
  402fd3:	48 8b 4d b0          	mov    -0x50(%rbp),%rcx
  402fd7:	48 29 ca             	sub    %rcx,%rdx
  402fda:	ff d0                	callq  *%rax
  402fdc:	89 c1                	mov    %eax,%ecx
  402fde:	31 c0                	xor    %eax,%eax
  402fe0:	39 c8                	cmp    %ecx,%eax
  402fe2:	0f 95 c0             	setne  %al
  402fe5:	34 ff                	xor    $0xff,%al
  402fe7:	34 ff                	xor    $0xff,%al
  402fe9:	24 01                	and    $0x1,%al
  402feb:	0f b6 c0             	movzbl %al,%eax
  402fee:	48 98                	cltq   
  402ff0:	48 83 f8 00          	cmp    $0x0,%rax
  402ff4:	0f 84 2a 00 00 00    	je     403024 <http_parser_execute+0x1dd4>
  402ffa:	e9 00 00 00 00       	jmpq   402fff <http_parser_execute+0x1daf>
  402fff:	8b 4d 90             	mov    -0x70(%rbp),%ecx
  403002:	48 8b 45 f0          	mov    -0x10(%rbp),%rax
  403006:	89 48 04             	mov    %ecx,0x4(%rax)
  403009:	48 8b 45 f0          	mov    -0x10(%rbp),%rax
  40300d:	8b 48 14             	mov    0x14(%rax),%ecx
  403010:	81 e1 ff ff ff 80    	and    $0x80ffffff,%ecx
  403016:	81 c9 00 00 00 02    	or     $0x2000000,%ecx
  40301c:	89 48 14             	mov    %ecx,0x14(%rax)
  40301f:	e9 00 00 00 00       	jmpq   403024 <http_parser_execute+0x1dd4>
  403024:	48 8b 45 f0          	mov    -0x10(%rbp),%rax
  403028:	8b 00                	mov    (%rax),%eax
  40302a:	c1 e8 0a             	shr    $0xa,%eax
  40302d:	83 e0 7f             	and    $0x7f,%eax
  403030:	89 45 9c             	mov    %eax,-0x64(%rbp)
  403033:	48 8b 45 f0          	mov    -0x10(%rbp),%rax
  403037:	8b 40 14             	mov    0x14(%rax),%eax
  40303a:	c1 e8 18             	shr    $0x18,%eax
  40303d:	83 e0 7f             	and    $0x7f,%eax
  403040:	83 f8 00             	cmp    $0x0,%eax
  403043:	0f 95 c0             	setne  %al
  403046:	34 ff                	xor    $0xff,%al
  403048:	34 ff                	xor    $0xff,%al
  40304a:	24 01                	and    $0x1,%al
  40304c:	0f b6 c0             	movzbl %al,%eax
  40304f:	48 98                	cltq   
  403051:	48 83 f8 00          	cmp    $0x0,%rax
  403055:	0f 84 18 00 00 00    	je     403073 <http_parser_execute+0x1e23>
  40305b:	48 8b 45 c8          	mov    -0x38(%rbp),%rax
  40305f:	48 8b 4d e0          	mov    -0x20(%rbp),%rcx
  403063:	48 29 c8             	sub    %rcx,%rax
  403066:	48 83 c0 01          	add    $0x1,%rax
  40306a:	48 89 45 f8          	mov    %rax,-0x8(%rbp)
  40306e:	e9 40 48 00 00       	jmpq   4078b3 <http_parser_execute+0x6663>
  403073:	e9 00 00 00 00       	jmpq   403078 <http_parser_execute+0x1e28>
  403078:	48 c7 45 b0 00 00 00 	movq   $0x0,-0x50(%rbp)
  40307f:	00 
  403080:	e9 00 00 00 00       	jmpq   403085 <http_parser_execute+0x1e35>
  403085:	e9 5a 00 00 00       	jmpq   4030e4 <http_parser_execute+0x1e94>
  40308a:	8b 7d 9c             	mov    -0x64(%rbp),%edi
  40308d:	0f be 75 d6          	movsbl -0x2a(%rbp),%esi
  403091:	e8 2a 48 00 00       	callq  4078c0 <parse_url_char>
  403096:	89 45 9c             	mov    %eax,-0x64(%rbp)
  403099:	83 7d 9c 01          	cmpl   $0x1,-0x64(%rbp)
  40309d:	0f 94 c0             	sete   %al
  4030a0:	34 ff                	xor    $0xff,%al
  4030a2:	34 ff                	xor    $0xff,%al
  4030a4:	24 01                	and    $0x1,%al
  4030a6:	0f b6 c0             	movzbl %al,%eax
  4030a9:	48 98                	cltq   
  4030ab:	48 83 f8 00          	cmp    $0x0,%rax
  4030af:	0f 84 2a 00 00 00    	je     4030df <http_parser_execute+0x1e8f>
  4030b5:	e9 00 00 00 00       	jmpq   4030ba <http_parser_execute+0x1e6a>
  4030ba:	8b 4d 90             	mov    -0x70(%rbp),%ecx
  4030bd:	48 8b 45 f0          	mov    -0x10(%rbp),%rax
  4030c1:	89 48 04             	mov    %ecx,0x4(%rax)
  4030c4:	48 8b 45 f0          	mov    -0x10(%rbp),%rax
  4030c8:	8b 48 14             	mov    0x14(%rax),%ecx
  4030cb:	81 e1 ff ff ff 80    	and    $0x80ffffff,%ecx
  4030d1:	81 c9 00 00 00 11    	or     $0x11000000,%ecx
  4030d7:	89 48 14             	mov    %ecx,0x14(%rax)
  4030da:	e9 5d 47 00 00       	jmpq   40783c <http_parser_execute+0x65ec>
  4030df:	e9 00 00 00 00       	jmpq   4030e4 <http_parser_execute+0x1e94>
  4030e4:	e9 e5 3f 00 00       	jmpq   4070ce <http_parser_execute+0x5e7e>
  4030e9:	0f be 45 d6          	movsbl -0x2a(%rbp),%eax
  4030ed:	89 85 f0 fe ff ff    	mov    %eax,-0x110(%rbp)
  4030f3:	83 e8 20             	sub    $0x20,%eax
  4030f6:	0f 84 2d 00 00 00    	je     403129 <http_parser_execute+0x1ed9>
  4030fc:	e9 00 00 00 00       	jmpq   403101 <http_parser_execute+0x1eb1>
  403101:	8b 85 f0 fe ff ff    	mov    -0x110(%rbp),%eax
  403107:	83 e8 48             	sub    $0x48,%eax
  40310a:	0f 84 1e 00 00 00    	je     40312e <http_parser_execute+0x1ede>
  403110:	e9 00 00 00 00       	jmpq   403115 <http_parser_execute+0x1ec5>
  403115:	8b 85 f0 fe ff ff    	mov    -0x110(%rbp),%eax
  40311b:	83 e8 49             	sub    $0x49,%eax
  40311e:	0f 84 16 00 00 00    	je     40313a <http_parser_execute+0x1eea>
  403124:	e9 3a 00 00 00       	jmpq   403163 <http_parser_execute+0x1f13>
  403129:	e9 5f 00 00 00       	jmpq   40318d <http_parser_execute+0x1f3d>
  40312e:	c7 45 9c 21 00 00 00 	movl   $0x21,-0x64(%rbp)
  403135:	e9 53 00 00 00       	jmpq   40318d <http_parser_execute+0x1f3d>
  40313a:	48 8b 45 f0          	mov    -0x10(%rbp),%rax
  40313e:	8b 40 14             	mov    0x14(%rax),%eax
  403141:	c1 e8 10             	shr    $0x10,%eax
  403144:	25 ff 00 00 00       	and    $0xff,%eax
  403149:	83 f8 21             	cmp    $0x21,%eax
  40314c:	0f 85 0c 00 00 00    	jne    40315e <http_parser_execute+0x1f0e>
  403152:	c7 45 9c 25 00 00 00 	movl   $0x25,-0x64(%rbp)
  403159:	e9 2f 00 00 00       	jmpq   40318d <http_parser_execute+0x1f3d>
  40315e:	e9 00 00 00 00       	jmpq   403163 <http_parser_execute+0x1f13>
  403163:	e9 00 00 00 00       	jmpq   403168 <http_parser_execute+0x1f18>
  403168:	8b 4d 90             	mov    -0x70(%rbp),%ecx
  40316b:	48 8b 45 f0          	mov    -0x10(%rbp),%rax
  40316f:	89 48 04             	mov    %ecx,0x4(%rax)
  403172:	48 8b 45 f0          	mov    -0x10(%rbp),%rax
  403176:	8b 48 14             	mov    0x14(%rax),%ecx
  403179:	81 e1 ff ff ff 80    	and    $0x80ffffff,%ecx
  40317f:	81 c9 00 00 00 1c    	or     $0x1c000000,%ecx
  403185:	89 48 14             	mov    %ecx,0x14(%rax)
  403188:	e9 af 46 00 00       	jmpq   40783c <http_parser_execute+0x65ec>
  40318d:	e9 3c 3f 00 00       	jmpq   4070ce <http_parser_execute+0x5e7e>
  403192:	e9 00 00 00 00       	jmpq   403197 <http_parser_execute+0x1f47>
  403197:	0f be 45 d6          	movsbl -0x2a(%rbp),%eax
  40319b:	83 f8 54             	cmp    $0x54,%eax
  40319e:	0f 84 2a 00 00 00    	je     4031ce <http_parser_execute+0x1f7e>
  4031a4:	e9 00 00 00 00       	jmpq   4031a9 <http_parser_execute+0x1f59>
  4031a9:	8b 4d 90             	mov    -0x70(%rbp),%ecx
  4031ac:	48 8b 45 f0          	mov    -0x10(%rbp),%rax
  4031b0:	89 48 04             	mov    %ecx,0x4(%rax)
  4031b3:	48 8b 45 f0          	mov    -0x10(%rbp),%rax
  4031b7:	8b 48 14             	mov    0x14(%rax),%ecx
  4031ba:	81 e1 ff ff ff 80    	and    $0x80ffffff,%ecx
  4031c0:	81 c9 00 00 00 1e    	or     $0x1e000000,%ecx
  4031c6:	89 48 14             	mov    %ecx,0x14(%rax)
  4031c9:	e9 6e 46 00 00       	jmpq   40783c <http_parser_execute+0x65ec>
  4031ce:	e9 00 00 00 00       	jmpq   4031d3 <http_parser_execute+0x1f83>
  4031d3:	c7 45 9c 22 00 00 00 	movl   $0x22,-0x64(%rbp)
  4031da:	e9 ef 3e 00 00       	jmpq   4070ce <http_parser_execute+0x5e7e>
  4031df:	e9 00 00 00 00       	jmpq   4031e4 <http_parser_execute+0x1f94>
  4031e4:	0f be 45 d6          	movsbl -0x2a(%rbp),%eax
  4031e8:	83 f8 54             	cmp    $0x54,%eax
  4031eb:	0f 84 2a 00 00 00    	je     40321b <http_parser_execute+0x1fcb>
  4031f1:	e9 00 00 00 00       	jmpq   4031f6 <http_parser_execute+0x1fa6>
  4031f6:	8b 4d 90             	mov    -0x70(%rbp),%ecx
  4031f9:	48 8b 45 f0          	mov    -0x10(%rbp),%rax
  4031fd:	89 48 04             	mov    %ecx,0x4(%rax)
  403200:	48 8b 45 f0          	mov    -0x10(%rbp),%rax
  403204:	8b 48 14             	mov    0x14(%rax),%ecx
  403207:	81 e1 ff ff ff 80    	and    $0x80ffffff,%ecx
  40320d:	81 c9 00 00 00 1e    	or     $0x1e000000,%ecx
  403213:	89 48 14             	mov    %ecx,0x14(%rax)
  403216:	e9 21 46 00 00       	jmpq   40783c <http_parser_execute+0x65ec>
  40321b:	e9 00 00 00 00       	jmpq   403220 <http_parser_execute+0x1fd0>
  403220:	c7 45 9c 23 00 00 00 	movl   $0x23,-0x64(%rbp)
  403227:	e9 a2 3e 00 00       	jmpq   4070ce <http_parser_execute+0x5e7e>
  40322c:	e9 00 00 00 00       	jmpq   403231 <http_parser_execute+0x1fe1>
  403231:	0f be 45 d6          	movsbl -0x2a(%rbp),%eax
  403235:	83 f8 50             	cmp    $0x50,%eax
  403238:	0f 84 2a 00 00 00    	je     403268 <http_parser_execute+0x2018>
  40323e:	e9 00 00 00 00       	jmpq   403243 <http_parser_execute+0x1ff3>
  403243:	8b 4d 90             	mov    -0x70(%rbp),%ecx
  403246:	48 8b 45 f0          	mov    -0x10(%rbp),%rax
  40324a:	89 48 04             	mov    %ecx,0x4(%rax)
  40324d:	48 8b 45 f0          	mov    -0x10(%rbp),%rax
  403251:	8b 48 14             	mov    0x14(%rax),%ecx
  403254:	81 e1 ff ff ff 80    	and    $0x80ffffff,%ecx
  40325a:	81 c9 00 00 00 1e    	or     $0x1e000000,%ecx
  403260:	89 48 14             	mov    %ecx,0x14(%rax)
  403263:	e9 d4 45 00 00       	jmpq   40783c <http_parser_execute+0x65ec>
  403268:	e9 00 00 00 00       	jmpq   40326d <http_parser_execute+0x201d>
  40326d:	c7 45 9c 24 00 00 00 	movl   $0x24,-0x64(%rbp)
  403274:	e9 55 3e 00 00       	jmpq   4070ce <http_parser_execute+0x5e7e>
  403279:	e9 00 00 00 00       	jmpq   40327e <http_parser_execute+0x202e>
  40327e:	0f be 45 d6          	movsbl -0x2a(%rbp),%eax
  403282:	83 f8 43             	cmp    $0x43,%eax
  403285:	0f 84 2a 00 00 00    	je     4032b5 <http_parser_execute+0x2065>
  40328b:	e9 00 00 00 00       	jmpq   403290 <http_parser_execute+0x2040>
  403290:	8b 4d 90             	mov    -0x70(%rbp),%ecx
  403293:	48 8b 45 f0          	mov    -0x10(%rbp),%rax
  403297:	89 48 04             	mov    %ecx,0x4(%rax)
  40329a:	48 8b 45 f0          	mov    -0x10(%rbp),%rax
  40329e:	8b 48 14             	mov    0x14(%rax),%ecx
  4032a1:	81 e1 ff ff ff 80    	and    $0x80ffffff,%ecx
  4032a7:	81 c9 00 00 00 1e    	or     $0x1e000000,%ecx
  4032ad:	89 48 14             	mov    %ecx,0x14(%rax)
  4032b0:	e9 87 45 00 00       	jmpq   40783c <http_parser_execute+0x65ec>
  4032b5:	e9 00 00 00 00       	jmpq   4032ba <http_parser_execute+0x206a>
  4032ba:	c7 45 9c 26 00 00 00 	movl   $0x26,-0x64(%rbp)
  4032c1:	e9 08 3e 00 00       	jmpq   4070ce <http_parser_execute+0x5e7e>
  4032c6:	e9 00 00 00 00       	jmpq   4032cb <http_parser_execute+0x207b>
  4032cb:	0f be 45 d6          	movsbl -0x2a(%rbp),%eax
  4032cf:	83 f8 45             	cmp    $0x45,%eax
  4032d2:	0f 84 2a 00 00 00    	je     403302 <http_parser_execute+0x20b2>
  4032d8:	e9 00 00 00 00       	jmpq   4032dd <http_parser_execute+0x208d>
  4032dd:	8b 4d 90             	mov    -0x70(%rbp),%ecx
  4032e0:	48 8b 45 f0          	mov    -0x10(%rbp),%rax
  4032e4:	89 48 04             	mov    %ecx,0x4(%rax)
  4032e7:	48 8b 45 f0          	mov    -0x10(%rbp),%rax
  4032eb:	8b 48 14             	mov    0x14(%rax),%ecx
  4032ee:	81 e1 ff ff ff 80    	and    $0x80ffffff,%ecx
  4032f4:	81 c9 00 00 00 1e    	or     $0x1e000000,%ecx
  4032fa:	89 48 14             	mov    %ecx,0x14(%rax)
  4032fd:	e9 3a 45 00 00       	jmpq   40783c <http_parser_execute+0x65ec>
  403302:	e9 00 00 00 00       	jmpq   403307 <http_parser_execute+0x20b7>
  403307:	c7 45 9c 24 00 00 00 	movl   $0x24,-0x64(%rbp)
  40330e:	e9 bb 3d 00 00       	jmpq   4070ce <http_parser_execute+0x5e7e>
  403313:	e9 00 00 00 00       	jmpq   403318 <http_parser_execute+0x20c8>
  403318:	0f be 45 d6          	movsbl -0x2a(%rbp),%eax
  40331c:	83 f8 2f             	cmp    $0x2f,%eax
  40331f:	0f 84 2a 00 00 00    	je     40334f <http_parser_execute+0x20ff>
  403325:	e9 00 00 00 00       	jmpq   40332a <http_parser_execute+0x20da>
  40332a:	8b 4d 90             	mov    -0x70(%rbp),%ecx
  40332d:	48 8b 45 f0          	mov    -0x10(%rbp),%rax
  403331:	89 48 04             	mov    %ecx,0x4(%rax)
  403334:	48 8b 45 f0          	mov    -0x10(%rbp),%rax
  403338:	8b 48 14             	mov    0x14(%rax),%ecx
  40333b:	81 e1 ff ff ff 80    	and    $0x80ffffff,%ecx
  403341:	81 c9 00 00 00 1e    	or     $0x1e000000,%ecx
  403347:	89 48 14             	mov    %ecx,0x14(%rax)
  40334a:	e9 ed 44 00 00       	jmpq   40783c <http_parser_execute+0x65ec>
  40334f:	e9 00 00 00 00       	jmpq   403354 <http_parser_execute+0x2104>
  403354:	c7 45 9c 27 00 00 00 	movl   $0x27,-0x64(%rbp)
  40335b:	e9 6e 3d 00 00       	jmpq   4070ce <http_parser_execute+0x5e7e>
  403360:	0f be 4d d6          	movsbl -0x2a(%rbp),%ecx
  403364:	31 c0                	xor    %eax,%eax
  403366:	83 f9 30             	cmp    $0x30,%ecx
  403369:	88 85 ef fe ff ff    	mov    %al,-0x111(%rbp)
  40336f:	0f 8c 10 00 00 00    	jl     403385 <http_parser_execute+0x2135>
  403375:	0f be 45 d6          	movsbl -0x2a(%rbp),%eax
  403379:	83 f8 39             	cmp    $0x39,%eax
  40337c:	0f 9e c0             	setle  %al
  40337f:	88 85 ef fe ff ff    	mov    %al,-0x111(%rbp)
  403385:	8a 85 ef fe ff ff    	mov    -0x111(%rbp),%al
  40338b:	34 ff                	xor    $0xff,%al
  40338d:	34 ff                	xor    $0xff,%al
  40338f:	34 ff                	xor    $0xff,%al
  403391:	24 01                	and    $0x1,%al
  403393:	0f b6 c0             	movzbl %al,%eax
  403396:	48 98                	cltq   
  403398:	48 83 f8 00          	cmp    $0x0,%rax
  40339c:	0f 84 2a 00 00 00    	je     4033cc <http_parser_execute+0x217c>
  4033a2:	e9 00 00 00 00       	jmpq   4033a7 <http_parser_execute+0x2157>
  4033a7:	8b 4d 90             	mov    -0x70(%rbp),%ecx
  4033aa:	48 8b 45 f0          	mov    -0x10(%rbp),%rax
  4033ae:	89 48 04             	mov    %ecx,0x4(%rax)
  4033b1:	48 8b 45 f0          	mov    -0x10(%rbp),%rax
  4033b5:	8b 48 14             	mov    0x14(%rax),%ecx
  4033b8:	81 e1 ff ff ff 80    	and    $0x80ffffff,%ecx
  4033be:	81 c9 00 00 00 0e    	or     $0xe000000,%ecx
  4033c4:	89 48 14             	mov    %ecx,0x14(%rax)
  4033c7:	e9 70 44 00 00       	jmpq   40783c <http_parser_execute+0x65ec>
  4033cc:	0f be 45 d6          	movsbl -0x2a(%rbp),%eax
  4033d0:	83 e8 30             	sub    $0x30,%eax
  4033d3:	66 89 c1             	mov    %ax,%cx
  4033d6:	48 8b 45 f0          	mov    -0x10(%rbp),%rax
  4033da:	66 89 48 10          	mov    %cx,0x10(%rax)
  4033de:	c7 45 9c 28 00 00 00 	movl   $0x28,-0x64(%rbp)
  4033e5:	e9 e4 3c 00 00       	jmpq   4070ce <http_parser_execute+0x5e7e>
  4033ea:	0f be 45 d6          	movsbl -0x2a(%rbp),%eax
  4033ee:	83 f8 2e             	cmp    $0x2e,%eax
  4033f1:	0f 95 c0             	setne  %al
  4033f4:	34 ff                	xor    $0xff,%al
  4033f6:	34 ff                	xor    $0xff,%al
  4033f8:	24 01                	and    $0x1,%al
  4033fa:	0f b6 c0             	movzbl %al,%eax
  4033fd:	48 98                	cltq   
  4033ff:	48 83 f8 00          	cmp    $0x0,%rax
  403403:	0f 84 2a 00 00 00    	je     403433 <http_parser_execute+0x21e3>
  403409:	e9 00 00 00 00       	jmpq   40340e <http_parser_execute+0x21be>
  40340e:	8b 4d 90             	mov    -0x70(%rbp),%ecx
  403411:	48 8b 45 f0          	mov    -0x10(%rbp),%rax
  403415:	89 48 04             	mov    %ecx,0x4(%rax)
  403418:	48 8b 45 f0          	mov    -0x10(%rbp),%rax
  40341c:	8b 48 14             	mov    0x14(%rax),%ecx
  40341f:	81 e1 ff ff ff 80    	and    $0x80ffffff,%ecx
  403425:	81 c9 00 00 00 0e    	or     $0xe000000,%ecx
  40342b:	89 48 14             	mov    %ecx,0x14(%rax)
  40342e:	e9 09 44 00 00       	jmpq   40783c <http_parser_execute+0x65ec>
  403433:	c7 45 9c 29 00 00 00 	movl   $0x29,-0x64(%rbp)
  40343a:	e9 8f 3c 00 00       	jmpq   4070ce <http_parser_execute+0x5e7e>
  40343f:	0f be 4d d6          	movsbl -0x2a(%rbp),%ecx
  403443:	31 c0                	xor    %eax,%eax
  403445:	83 f9 30             	cmp    $0x30,%ecx
  403448:	88 85 ee fe ff ff    	mov    %al,-0x112(%rbp)
  40344e:	0f 8c 10 00 00 00    	jl     403464 <http_parser_execute+0x2214>
  403454:	0f be 45 d6          	movsbl -0x2a(%rbp),%eax
  403458:	83 f8 39             	cmp    $0x39,%eax
  40345b:	0f 9e c0             	setle  %al
  40345e:	88 85 ee fe ff ff    	mov    %al,-0x112(%rbp)
  403464:	8a 85 ee fe ff ff    	mov    -0x112(%rbp),%al
  40346a:	34 ff                	xor    $0xff,%al
  40346c:	34 ff                	xor    $0xff,%al
  40346e:	34 ff                	xor    $0xff,%al
  403470:	24 01                	and    $0x1,%al
  403472:	0f b6 c0             	movzbl %al,%eax
  403475:	48 98                	cltq   
  403477:	48 83 f8 00          	cmp    $0x0,%rax
  40347b:	0f 84 2a 00 00 00    	je     4034ab <http_parser_execute+0x225b>
  403481:	e9 00 00 00 00       	jmpq   403486 <http_parser_execute+0x2236>
  403486:	8b 4d 90             	mov    -0x70(%rbp),%ecx
  403489:	48 8b 45 f0          	mov    -0x10(%rbp),%rax
  40348d:	89 48 04             	mov    %ecx,0x4(%rax)
  403490:	48 8b 45 f0          	mov    -0x10(%rbp),%rax
  403494:	8b 48 14             	mov    0x14(%rax),%ecx
  403497:	81 e1 ff ff ff 80    	and    $0x80ffffff,%ecx
  40349d:	81 c9 00 00 00 0e    	or     $0xe000000,%ecx
  4034a3:	89 48 14             	mov    %ecx,0x14(%rax)
  4034a6:	e9 91 43 00 00       	jmpq   40783c <http_parser_execute+0x65ec>
  4034ab:	0f be 45 d6          	movsbl -0x2a(%rbp),%eax
  4034af:	83 e8 30             	sub    $0x30,%eax
  4034b2:	66 89 c1             	mov    %ax,%cx
  4034b5:	48 8b 45 f0          	mov    -0x10(%rbp),%rax
  4034b9:	66 89 48 12          	mov    %cx,0x12(%rax)
  4034bd:	c7 45 9c 2a 00 00 00 	movl   $0x2a,-0x64(%rbp)
  4034c4:	e9 05 3c 00 00       	jmpq   4070ce <http_parser_execute+0x5e7e>
  4034c9:	0f be 45 d6          	movsbl -0x2a(%rbp),%eax
  4034cd:	83 f8 0d             	cmp    $0xd,%eax
  4034d0:	0f 85 0c 00 00 00    	jne    4034e2 <http_parser_execute+0x2292>
  4034d6:	c7 45 9c 2b 00 00 00 	movl   $0x2b,-0x64(%rbp)
  4034dd:	e9 ec 3b 00 00       	jmpq   4070ce <http_parser_execute+0x5e7e>
  4034e2:	0f be 45 d6          	movsbl -0x2a(%rbp),%eax
  4034e6:	83 f8 0a             	cmp    $0xa,%eax
  4034e9:	0f 85 0c 00 00 00    	jne    4034fb <http_parser_execute+0x22ab>
  4034ef:	c7 45 9c 2c 00 00 00 	movl   $0x2c,-0x64(%rbp)
  4034f6:	e9 d3 3b 00 00       	jmpq   4070ce <http_parser_execute+0x5e7e>
  4034fb:	e9 00 00 00 00       	jmpq   403500 <http_parser_execute+0x22b0>
  403500:	8b 4d 90             	mov    -0x70(%rbp),%ecx
  403503:	48 8b 45 f0          	mov    -0x10(%rbp),%rax
  403507:	89 48 04             	mov    %ecx,0x4(%rax)
  40350a:	48 8b 45 f0          	mov    -0x10(%rbp),%rax
  40350e:	8b 48 14             	mov    0x14(%rax),%ecx
  403511:	81 e1 ff ff ff 80    	and    $0x80ffffff,%ecx
  403517:	81 c9 00 00 00 0e    	or     $0xe000000,%ecx
  40351d:	89 48 14             	mov    %ecx,0x14(%rax)
  403520:	e9 17 43 00 00       	jmpq   40783c <http_parser_execute+0x65ec>
  403525:	0f be 45 d6          	movsbl -0x2a(%rbp),%eax
  403529:	83 f8 0a             	cmp    $0xa,%eax
  40352c:	0f 95 c0             	setne  %al
  40352f:	34 ff                	xor    $0xff,%al
  403531:	34 ff                	xor    $0xff,%al
  403533:	24 01                	and    $0x1,%al
  403535:	0f b6 c0             	movzbl %al,%eax
  403538:	48 98                	cltq   
  40353a:	48 83 f8 00          	cmp    $0x0,%rax
  40353e:	0f 84 2a 00 00 00    	je     40356e <http_parser_execute+0x231e>
  403544:	e9 00 00 00 00       	jmpq   403549 <http_parser_execute+0x22f9>
  403549:	8b 4d 90             	mov    -0x70(%rbp),%ecx
  40354c:	48 8b 45 f0          	mov    -0x10(%rbp),%rax
  403550:	89 48 04             	mov    %ecx,0x4(%rax)
  403553:	48 8b 45 f0          	mov    -0x10(%rbp),%rax
  403557:	8b 48 14             	mov    0x14(%rax),%ecx
  40355a:	81 e1 ff ff ff 80    	and    $0x80ffffff,%ecx
  403560:	81 c9 00 00 00 17    	or     $0x17000000,%ecx
  403566:	89 48 14             	mov    %ecx,0x14(%rax)
  403569:	e9 ce 42 00 00       	jmpq   40783c <http_parser_execute+0x65ec>
  40356e:	c7 45 9c 2c 00 00 00 	movl   $0x2c,-0x64(%rbp)
  403575:	e9 54 3b 00 00       	jmpq   4070ce <http_parser_execute+0x5e7e>
  40357a:	0f be 45 d6          	movsbl -0x2a(%rbp),%eax
  40357e:	83 f8 0d             	cmp    $0xd,%eax
  403581:	0f 85 0c 00 00 00    	jne    403593 <http_parser_execute+0x2343>
  403587:	c7 45 9c 39 00 00 00 	movl   $0x39,-0x64(%rbp)
  40358e:	e9 3b 3b 00 00       	jmpq   4070ce <http_parser_execute+0x5e7e>
  403593:	0f be 45 d6          	movsbl -0x2a(%rbp),%eax
  403597:	83 f8 0a             	cmp    $0xa,%eax
  40359a:	0f 85 0c 00 00 00    	jne    4035ac <http_parser_execute+0x235c>
  4035a0:	c7 45 9c 39 00 00 00 	movl   $0x39,-0x64(%rbp)
  4035a7:	e9 2a e0 ff ff       	jmpq   4015d6 <http_parser_execute+0x386>
  4035ac:	0f be 45 d6          	movsbl -0x2a(%rbp),%eax
  4035b0:	83 f8 20             	cmp    $0x20,%eax
  4035b3:	0f 85 0d 00 00 00    	jne    4035c6 <http_parser_execute+0x2376>
  4035b9:	31 c0                	xor    %eax,%eax
  4035bb:	89 85 e8 fe ff ff    	mov    %eax,-0x118(%rbp)
  4035c1:	e9 12 00 00 00       	jmpq   4035d8 <http_parser_execute+0x2388>
  4035c6:	0f b6 45 d6          	movzbl -0x2a(%rbp),%eax
  4035ca:	0f be 04 05 a0 04 41 	movsbl 0x4104a0(,%rax,1),%eax
  4035d1:	00 
  4035d2:	89 85 e8 fe ff ff    	mov    %eax,-0x118(%rbp)
  4035d8:	8b 85 e8 fe ff ff    	mov    -0x118(%rbp),%eax
  4035de:	88 45 d7             	mov    %al,-0x29(%rbp)
  4035e1:	80 7d d7 00          	cmpb   $0x0,-0x29(%rbp)
  4035e5:	0f 95 c0             	setne  %al
  4035e8:	34 ff                	xor    $0xff,%al
  4035ea:	34 ff                	xor    $0xff,%al
  4035ec:	34 ff                	xor    $0xff,%al
  4035ee:	24 01                	and    $0x1,%al
  4035f0:	0f b6 c0             	movzbl %al,%eax
  4035f3:	48 98                	cltq   
  4035f5:	48 83 f8 00          	cmp    $0x0,%rax
  4035f9:	0f 84 2a 00 00 00    	je     403629 <http_parser_execute+0x23d9>
  4035ff:	e9 00 00 00 00       	jmpq   403604 <http_parser_execute+0x23b4>
  403604:	8b 4d 90             	mov    -0x70(%rbp),%ecx
  403607:	48 8b 45 f0          	mov    -0x10(%rbp),%rax
  40360b:	89 48 04             	mov    %ecx,0x4(%rax)
  40360e:	48 8b 45 f0          	mov    -0x10(%rbp),%rax
  403612:	8b 48 14             	mov    0x14(%rax),%ecx
  403615:	81 e1 ff ff ff 80    	and    $0x80ffffff,%ecx
  40361b:	81 c9 00 00 00 18    	or     $0x18000000,%ecx
  403621:	89 48 14             	mov    %ecx,0x14(%rax)
  403624:	e9 13 42 00 00       	jmpq   40783c <http_parser_execute+0x65ec>
  403629:	e9 00 00 00 00       	jmpq   40362e <http_parser_execute+0x23de>
  40362e:	48 83 7d c0 00       	cmpq   $0x0,-0x40(%rbp)
  403633:	0f 85 08 00 00 00    	jne    403641 <http_parser_execute+0x23f1>
  403639:	48 8b 45 c8          	mov    -0x38(%rbp),%rax
  40363d:	48 89 45 c0          	mov    %rax,-0x40(%rbp)
  403641:	e9 00 00 00 00       	jmpq   403646 <http_parser_execute+0x23f6>
  403646:	48 8b 45 f0          	mov    -0x10(%rbp),%rax
  40364a:	8b 08                	mov    (%rax),%ecx
  40364c:	81 e1 ff ff ff e0    	and    $0xe0ffffff,%ecx
  403652:	89 08                	mov    %ecx,(%rax)
  403654:	c7 45 9c 2d 00 00 00 	movl   $0x2d,-0x64(%rbp)
  40365b:	0f be 45 d7          	movsbl -0x29(%rbp),%eax
  40365f:	83 c0 9d             	add    $0xffffff9d,%eax
  403662:	89 c1                	mov    %eax,%ecx
  403664:	48 89 8d e0 fe ff ff 	mov    %rcx,-0x120(%rbp)
  40366b:	83 e8 12             	sub    $0x12,%eax
  40366e:	0f 87 75 00 00 00    	ja     4036e9 <http_parser_execute+0x2499>
  403674:	48 8b 85 e0 fe ff ff 	mov    -0x120(%rbp),%rax
  40367b:	48 8b 04 c5 58 f4 40 	mov    0x40f458(,%rax,8),%rax
  403682:	00 
  403683:	ff e0                	jmpq   *%rax
  403685:	48 8b 45 f0          	mov    -0x10(%rbp),%rax
  403689:	8b 08                	mov    (%rax),%ecx
  40368b:	81 e1 ff ff 01 ff    	and    $0xff01ffff,%ecx
  403691:	81 c9 00 00 02 00    	or     $0x20000,%ecx
  403697:	89 08                	mov    %ecx,(%rax)
  403699:	e9 5c 00 00 00       	jmpq   4036fa <http_parser_execute+0x24aa>
  40369e:	48 8b 45 f0          	mov    -0x10(%rbp),%rax
  4036a2:	8b 08                	mov    (%rax),%ecx
  4036a4:	81 e1 ff ff 01 ff    	and    $0xff01ffff,%ecx
  4036aa:	81 c9 00 00 0a 00    	or     $0xa0000,%ecx
  4036b0:	89 08                	mov    %ecx,(%rax)
  4036b2:	e9 43 00 00 00       	jmpq   4036fa <http_parser_execute+0x24aa>
  4036b7:	48 8b 45 f0          	mov    -0x10(%rbp),%rax
  4036bb:	8b 08                	mov    (%rax),%ecx
  4036bd:	81 e1 ff ff 01 ff    	and    $0xff01ffff,%ecx
  4036c3:	81 c9 00 00 0e 00    	or     $0xe0000,%ecx
  4036c9:	89 08                	mov    %ecx,(%rax)
  4036cb:	e9 2a 00 00 00       	jmpq   4036fa <http_parser_execute+0x24aa>
  4036d0:	48 8b 45 f0          	mov    -0x10(%rbp),%rax
  4036d4:	8b 08                	mov    (%rax),%ecx
  4036d6:	81 e1 ff ff 01 ff    	and    $0xff01ffff,%ecx
  4036dc:	81 c9 00 00 10 00    	or     $0x100000,%ecx
  4036e2:	89 08                	mov    %ecx,(%rax)
  4036e4:	e9 11 00 00 00       	jmpq   4036fa <http_parser_execute+0x24aa>
  4036e9:	48 8b 45 f0          	mov    -0x10(%rbp),%rax
  4036ed:	8b 08                	mov    (%rax),%ecx
  4036ef:	81 e1 ff ff 01 ff    	and    $0xff01ffff,%ecx
  4036f5:	83 c9 00             	or     $0x0,%ecx
  4036f8:	89 08                	mov    %ecx,(%rax)
  4036fa:	e9 cf 39 00 00       	jmpq   4070ce <http_parser_execute+0x5e7e>
  4036ff:	48 8b 45 c8          	mov    -0x38(%rbp),%rax
  403703:	48 89 45 80          	mov    %rax,-0x80(%rbp)
  403707:	48 8b 45 c8          	mov    -0x38(%rbp),%rax
  40370b:	48 8b 4d e0          	mov    -0x20(%rbp),%rcx
  40370f:	48 03 4d d8          	add    -0x28(%rbp),%rcx
  403713:	48 39 c8             	cmp    %rcx,%rax
  403716:	0f 84 5d 06 00 00    	je     403d79 <http_parser_execute+0x2b29>
  40371c:	48 8b 45 c8          	mov    -0x38(%rbp),%rax
  403720:	8a 00                	mov    (%rax),%al
  403722:	88 45 d6             	mov    %al,-0x2a(%rbp)
  403725:	0f be 45 d6          	movsbl -0x2a(%rbp),%eax
  403729:	83 f8 20             	cmp    $0x20,%eax
  40372c:	0f 85 0d 00 00 00    	jne    40373f <http_parser_execute+0x24ef>
  403732:	31 c0                	xor    %eax,%eax
  403734:	89 85 dc fe ff ff    	mov    %eax,-0x124(%rbp)
  40373a:	e9 12 00 00 00       	jmpq   403751 <http_parser_execute+0x2501>
  40373f:	0f b6 45 d6          	movzbl -0x2a(%rbp),%eax
  403743:	0f be 04 05 a0 04 41 	movsbl 0x4104a0(,%rax,1),%eax
  40374a:	00 
  40374b:	89 85 dc fe ff ff    	mov    %eax,-0x124(%rbp)
  403751:	8b 85 dc fe ff ff    	mov    -0x124(%rbp),%eax
  403757:	88 45 d7             	mov    %al,-0x29(%rbp)
  40375a:	80 7d d7 00          	cmpb   $0x0,-0x29(%rbp)
  40375e:	0f 85 05 00 00 00    	jne    403769 <http_parser_execute+0x2519>
  403764:	e9 10 06 00 00       	jmpq   403d79 <http_parser_execute+0x2b29>
  403769:	48 8b 45 f0          	mov    -0x10(%rbp),%rax
  40376d:	8b 00                	mov    (%rax),%eax
  40376f:	c1 e8 11             	shr    $0x11,%eax
  403772:	83 e0 7f             	and    $0x7f,%eax
  403775:	89 c1                	mov    %eax,%ecx
  403777:	48 89 8d d0 fe ff ff 	mov    %rcx,-0x130(%rbp)
  40377e:	83 e8 0e             	sub    $0xe,%eax
  403781:	0f 87 b4 05 00 00    	ja     403d3b <http_parser_execute+0x2aeb>
  403787:	48 8b 85 d0 fe ff ff 	mov    -0x130(%rbp),%rax
  40378e:	48 8b 04 c5 e0 f3 40 	mov    0x40f3e0(,%rax,8),%rax
  403795:	00 
  403796:	ff e0                	jmpq   *%rax
  403798:	48 8b 45 e0          	mov    -0x20(%rbp),%rax
  40379c:	48 03 45 d8          	add    -0x28(%rbp),%rax
  4037a0:	48 8b 4d c8          	mov    -0x38(%rbp),%rcx
  4037a4:	48 29 c8             	sub    %rcx,%rax
  4037a7:	48 89 85 78 ff ff ff 	mov    %rax,-0x88(%rbp)
  4037ae:	48 8b 45 c8          	mov    -0x38(%rbp),%rax
  4037b2:	48 89 85 c8 fe ff ff 	mov    %rax,-0x138(%rbp)
  4037b9:	48 8b 85 78 ff ff ff 	mov    -0x88(%rbp),%rax
  4037c0:	8b 0c 25 c0 e0 8b 00 	mov    0x8be0c0,%ecx
  4037c7:	48 39 c8             	cmp    %rcx,%rax
  4037ca:	0f 83 13 00 00 00    	jae    4037e3 <http_parser_execute+0x2593>
  4037d0:	48 8b 85 78 ff ff ff 	mov    -0x88(%rbp),%rax
  4037d7:	48 89 85 c0 fe ff ff 	mov    %rax,-0x140(%rbp)
  4037de:	e9 0e 00 00 00       	jmpq   4037f1 <http_parser_execute+0x25a1>
  4037e3:	8b 04 25 c0 e0 8b 00 	mov    0x8be0c0,%eax
  4037ea:	48 89 85 c0 fe ff ff 	mov    %rax,-0x140(%rbp)
  4037f1:	48 8b 85 c8 fe ff ff 	mov    -0x138(%rbp),%rax
  4037f8:	48 8b 8d c0 fe ff ff 	mov    -0x140(%rbp),%rcx
  4037ff:	48 01 c8             	add    %rcx,%rax
  403802:	48 89 85 70 ff ff ff 	mov    %rax,-0x90(%rbp)
  403809:	48 8b 4d c8          	mov    -0x38(%rbp),%rcx
  40380d:	48 83 c1 01          	add    $0x1,%rcx
  403811:	31 c0                	xor    %eax,%eax
  403813:	48 3b 8d 70 ff ff ff 	cmp    -0x90(%rbp),%rcx
  40381a:	88 85 bf fe ff ff    	mov    %al,-0x141(%rbp)
  403820:	0f 83 46 00 00 00    	jae    40386c <http_parser_execute+0x261c>
  403826:	48 8b 45 c8          	mov    -0x38(%rbp),%rax
  40382a:	0f be 40 01          	movsbl 0x1(%rax),%eax
  40382e:	83 f8 20             	cmp    $0x20,%eax
  403831:	0f 85 0d 00 00 00    	jne    403844 <http_parser_execute+0x25f4>
  403837:	31 c0                	xor    %eax,%eax
  403839:	89 85 b8 fe ff ff    	mov    %eax,-0x148(%rbp)
  40383f:	e9 16 00 00 00       	jmpq   40385a <http_parser_execute+0x260a>
  403844:	48 8b 45 c8          	mov    -0x38(%rbp),%rax
  403848:	0f b6 40 01          	movzbl 0x1(%rax),%eax
  40384c:	0f be 04 05 a0 04 41 	movsbl 0x4104a0(,%rax,1),%eax
  403853:	00 
  403854:	89 85 b8 fe ff ff    	mov    %eax,-0x148(%rbp)
  40385a:	8b 85 b8 fe ff ff    	mov    -0x148(%rbp),%eax
  403860:	83 f8 00             	cmp    $0x0,%eax
  403863:	0f 95 c0             	setne  %al
  403866:	88 85 bf fe ff ff    	mov    %al,-0x141(%rbp)
  40386c:	8a 85 bf fe ff ff    	mov    -0x141(%rbp),%al
  403872:	a8 01                	test   $0x1,%al
  403874:	0f 85 05 00 00 00    	jne    40387f <http_parser_execute+0x262f>
  40387a:	e9 11 00 00 00       	jmpq   403890 <http_parser_execute+0x2640>
  40387f:	48 8b 45 c8          	mov    -0x38(%rbp),%rax
  403883:	48 83 c0 01          	add    $0x1,%rax
  403887:	48 89 45 c8          	mov    %rax,-0x38(%rbp)
  40388b:	e9 79 ff ff ff       	jmpq   403809 <http_parser_execute+0x25b9>
  403890:	e9 ce 04 00 00       	jmpq   403d63 <http_parser_execute+0x2b13>
  403895:	48 8b 45 f0          	mov    -0x10(%rbp),%rax
  403899:	8b 10                	mov    (%rax),%edx
  40389b:	c1 ea 18             	shr    $0x18,%edx
  40389e:	83 e2 1f             	and    $0x1f,%edx
  4038a1:	83 c2 01             	add    $0x1,%edx
  4038a4:	8b 08                	mov    (%rax),%ecx
  4038a6:	83 e2 1f             	and    $0x1f,%edx
  4038a9:	c1 e2 18             	shl    $0x18,%edx
  4038ac:	81 e1 ff ff ff e0    	and    $0xe0ffffff,%ecx
  4038b2:	09 d1                	or     %edx,%ecx
  4038b4:	89 08                	mov    %ecx,(%rax)
  4038b6:	0f be 4d d7          	movsbl -0x29(%rbp),%ecx
  4038ba:	31 d2                	xor    %edx,%edx
  4038bc:	b8 02 00 00 00       	mov    $0x2,%eax
  4038c1:	83 f9 6f             	cmp    $0x6f,%ecx
  4038c4:	0f 44 d0             	cmove  %eax,%edx
  4038c7:	48 8b 45 f0          	mov    -0x10(%rbp),%rax
  4038cb:	8b 08                	mov    (%rax),%ecx
  4038cd:	83 e2 7f             	and    $0x7f,%edx
  4038d0:	c1 e2 11             	shl    $0x11,%edx
  4038d3:	81 e1 ff ff 01 ff    	and    $0xff01ffff,%ecx
  4038d9:	09 d1                	or     %edx,%ecx
  4038db:	89 08                	mov    %ecx,(%rax)
  4038dd:	e9 81 04 00 00       	jmpq   403d63 <http_parser_execute+0x2b13>
  4038e2:	48 8b 45 f0          	mov    -0x10(%rbp),%rax
  4038e6:	8b 10                	mov    (%rax),%edx
  4038e8:	c1 ea 18             	shr    $0x18,%edx
  4038eb:	83 e2 1f             	and    $0x1f,%edx
  4038ee:	83 c2 01             	add    $0x1,%edx
  4038f1:	8b 08                	mov    (%rax),%ecx
  4038f3:	83 e2 1f             	and    $0x1f,%edx
  4038f6:	c1 e2 18             	shl    $0x18,%edx
  4038f9:	81 e1 ff ff ff e0    	and    $0xe0ffffff,%ecx
  4038ff:	09 d1                	or     %edx,%ecx
  403901:	89 08                	mov    %ecx,(%rax)
  403903:	0f be 4d d7          	movsbl -0x29(%rbp),%ecx
  403907:	31 d2                	xor    %edx,%edx
  403909:	b8 03 00 00 00       	mov    $0x3,%eax
  40390e:	83 f9 6e             	cmp    $0x6e,%ecx
  403911:	0f 44 d0             	cmove  %eax,%edx
  403914:	48 8b 45 f0          	mov    -0x10(%rbp),%rax
  403918:	8b 08                	mov    (%rax),%ecx
  40391a:	83 e2 7f             	and    $0x7f,%edx
  40391d:	c1 e2 11             	shl    $0x11,%edx
  403920:	81 e1 ff ff 01 ff    	and    $0xff01ffff,%ecx
  403926:	09 d1                	or     %edx,%ecx
  403928:	89 08                	mov    %ecx,(%rax)
  40392a:	e9 34 04 00 00       	jmpq   403d63 <http_parser_execute+0x2b13>
  40392f:	48 8b 45 f0          	mov    -0x10(%rbp),%rax
  403933:	8b 08                	mov    (%rax),%ecx
  403935:	89 ca                	mov    %ecx,%edx
  403937:	c1 ea 18             	shr    $0x18,%edx
  40393a:	83 c2 01             	add    $0x1,%edx
  40393d:	83 e2 1f             	and    $0x1f,%edx
  403940:	c1 e2 18             	shl    $0x18,%edx
  403943:	81 e1 ff ff ff e0    	and    $0xe0ffffff,%ecx
  403949:	09 d1                	or     %edx,%ecx
  40394b:	89 08                	mov    %ecx,(%rax)
  40394d:	0f be 45 d7          	movsbl -0x29(%rbp),%eax
  403951:	89 85 b4 fe ff ff    	mov    %eax,-0x14c(%rbp)
  403957:	83 e8 6e             	sub    $0x6e,%eax
  40395a:	0f 84 19 00 00 00    	je     403979 <http_parser_execute+0x2729>
  403960:	e9 00 00 00 00       	jmpq   403965 <http_parser_execute+0x2715>
  403965:	8b 85 b4 fe ff ff    	mov    -0x14c(%rbp),%eax
  40396b:	83 e8 74             	sub    $0x74,%eax
  40396e:	0f 84 1e 00 00 00    	je     403992 <http_parser_execute+0x2742>
  403974:	e9 32 00 00 00       	jmpq   4039ab <http_parser_execute+0x275b>
  403979:	48 8b 45 f0          	mov    -0x10(%rbp),%rax
  40397d:	8b 08                	mov    (%rax),%ecx
  40397f:	81 e1 ff ff 01 ff    	and    $0xff01ffff,%ecx
  403985:	81 c9 00 00 08 00    	or     $0x80000,%ecx
  40398b:	89 08                	mov    %ecx,(%rax)
  40398d:	e9 2a 00 00 00       	jmpq   4039bc <http_parser_execute+0x276c>
  403992:	48 8b 45 f0          	mov    -0x10(%rbp),%rax
  403996:	8b 08                	mov    (%rax),%ecx
  403998:	81 e1 ff ff 01 ff    	and    $0xff01ffff,%ecx
  40399e:	81 c9 00 00 0c 00    	or     $0xc0000,%ecx
  4039a4:	89 08                	mov    %ecx,(%rax)
  4039a6:	e9 11 00 00 00       	jmpq   4039bc <http_parser_execute+0x276c>
  4039ab:	48 8b 45 f0          	mov    -0x10(%rbp),%rax
  4039af:	8b 08                	mov    (%rax),%ecx
  4039b1:	81 e1 ff ff 01 ff    	and    $0xff01ffff,%ecx
  4039b7:	83 c9 00             	or     $0x0,%ecx
  4039ba:	89 08                	mov    %ecx,(%rax)
  4039bc:	e9 a2 03 00 00       	jmpq   403d63 <http_parser_execute+0x2b13>
  4039c1:	48 8b 45 f0          	mov    -0x10(%rbp),%rax
  4039c5:	8b 10                	mov    (%rax),%edx
  4039c7:	c1 ea 18             	shr    $0x18,%edx
  4039ca:	83 e2 1f             	and    $0x1f,%edx
  4039cd:	83 c2 01             	add    $0x1,%edx
  4039d0:	8b 08                	mov    (%rax),%ecx
  4039d2:	83 e2 1f             	and    $0x1f,%edx
  4039d5:	c1 e2 18             	shl    $0x18,%edx
  4039d8:	81 e1 ff ff ff e0    	and    $0xe0ffffff,%ecx
  4039de:	09 d1                	or     %edx,%ecx
  4039e0:	89 08                	mov    %ecx,(%rax)
  4039e2:	48 8b 45 f0          	mov    -0x10(%rbp),%rax
  4039e6:	8b 00                	mov    (%rax),%eax
  4039e8:	c1 e8 18             	shr    $0x18,%eax
  4039eb:	83 e0 1f             	and    $0x1f,%eax
  4039ee:	89 c0                	mov    %eax,%eax
  4039f0:	48 83 f8 0a          	cmp    $0xa,%rax
  4039f4:	0f 87 22 00 00 00    	ja     403a1c <http_parser_execute+0x27cc>
  4039fa:	0f be 45 d7          	movsbl -0x29(%rbp),%eax
  4039fe:	48 8b 4d f0          	mov    -0x10(%rbp),%rcx
  403a02:	8b 09                	mov    (%rcx),%ecx
  403a04:	c1 e9 18             	shr    $0x18,%ecx
  403a07:	83 e1 1f             	and    $0x1f,%ecx
  403a0a:	89 c9                	mov    %ecx,%ecx
  403a0c:	0f be 0c 0d e7 31 41 	movsbl 0x4131e7(,%rcx,1),%ecx
  403a13:	00 
  403a14:	39 c8                	cmp    %ecx,%eax
  403a16:	0f 84 16 00 00 00    	je     403a32 <http_parser_execute+0x27e2>
  403a1c:	48 8b 45 f0          	mov    -0x10(%rbp),%rax
  403a20:	8b 08                	mov    (%rax),%ecx
  403a22:	81 e1 ff ff 01 ff    	and    $0xff01ffff,%ecx
  403a28:	83 c9 00             	or     $0x0,%ecx
  403a2b:	89 08                	mov    %ecx,(%rax)
  403a2d:	e9 31 00 00 00       	jmpq   403a63 <http_parser_execute+0x2813>
  403a32:	48 8b 45 f0          	mov    -0x10(%rbp),%rax
  403a36:	8b 00                	mov    (%rax),%eax
  403a38:	c1 e8 18             	shr    $0x18,%eax
  403a3b:	83 e0 1f             	and    $0x1f,%eax
  403a3e:	89 c0                	mov    %eax,%eax
  403a40:	48 83 f8 09          	cmp    $0x9,%rax
  403a44:	0f 85 14 00 00 00    	jne    403a5e <http_parser_execute+0x280e>
  403a4a:	48 8b 45 f0          	mov    -0x10(%rbp),%rax
  403a4e:	8b 08                	mov    (%rax),%ecx
  403a50:	81 e1 ff ff 01 ff    	and    $0xff01ffff,%ecx
  403a56:	81 c9 00 00 12 00    	or     $0x120000,%ecx
  403a5c:	89 08                	mov    %ecx,(%rax)
  403a5e:	e9 00 00 00 00       	jmpq   403a63 <http_parser_execute+0x2813>
  403a63:	e9 fb 02 00 00       	jmpq   403d63 <http_parser_execute+0x2b13>
  403a68:	48 8b 45 f0          	mov    -0x10(%rbp),%rax
  403a6c:	8b 10                	mov    (%rax),%edx
  403a6e:	c1 ea 18             	shr    $0x18,%edx
  403a71:	83 e2 1f             	and    $0x1f,%edx
  403a74:	83 c2 01             	add    $0x1,%edx
  403a77:	8b 08                	mov    (%rax),%ecx
  403a79:	83 e2 1f             	and    $0x1f,%edx
  403a7c:	c1 e2 18             	shl    $0x18,%edx
  403a7f:	81 e1 ff ff ff e0    	and    $0xe0ffffff,%ecx
  403a85:	09 d1                	or     %edx,%ecx
  403a87:	89 08                	mov    %ecx,(%rax)
  403a89:	48 8b 45 f0          	mov    -0x10(%rbp),%rax
  403a8d:	8b 00                	mov    (%rax),%eax
  403a8f:	c1 e8 18             	shr    $0x18,%eax
  403a92:	83 e0 1f             	and    $0x1f,%eax
  403a95:	89 c0                	mov    %eax,%eax
  403a97:	48 83 f8 10          	cmp    $0x10,%rax
  403a9b:	0f 87 22 00 00 00    	ja     403ac3 <http_parser_execute+0x2873>
  403aa1:	0f be 45 d7          	movsbl -0x29(%rbp),%eax
  403aa5:	48 8b 4d f0          	mov    -0x10(%rbp),%rcx
  403aa9:	8b 09                	mov    (%rcx),%ecx
  403aab:	c1 e9 18             	shr    $0x18,%ecx
  403aae:	83 e1 1f             	and    $0x1f,%ecx
  403ab1:	89 c9                	mov    %ecx,%ecx
  403ab3:	0f be 0c 0d 30 07 41 	movsbl 0x410730(,%rcx,1),%ecx
  403aba:	00 
  403abb:	39 c8                	cmp    %ecx,%eax
  403abd:	0f 84 16 00 00 00    	je     403ad9 <http_parser_execute+0x2889>
  403ac3:	48 8b 45 f0          	mov    -0x10(%rbp),%rax
  403ac7:	8b 08                	mov    (%rax),%ecx
  403ac9:	81 e1 ff ff 01 ff    	and    $0xff01ffff,%ecx
  403acf:	83 c9 00             	or     $0x0,%ecx
  403ad2:	89 08                	mov    %ecx,(%rax)
  403ad4:	e9 31 00 00 00       	jmpq   403b0a <http_parser_execute+0x28ba>
  403ad9:	48 8b 45 f0          	mov    -0x10(%rbp),%rax
  403add:	8b 00                	mov    (%rax),%eax
  403adf:	c1 e8 18             	shr    $0x18,%eax
  403ae2:	83 e0 1f             	and    $0x1f,%eax
  403ae5:	89 c0                	mov    %eax,%eax
  403ae7:	48 83 f8 0f          	cmp    $0xf,%rax
  403aeb:	0f 85 14 00 00 00    	jne    403b05 <http_parser_execute+0x28b5>
  403af1:	48 8b 45 f0          	mov    -0x10(%rbp),%rax
  403af5:	8b 08                	mov    (%rax),%ecx
  403af7:	81 e1 ff ff 01 ff    	and    $0xff01ffff,%ecx
  403afd:	81 c9 00 00 12 00    	or     $0x120000,%ecx
  403b03:	89 08                	mov    %ecx,(%rax)
  403b05:	e9 00 00 00 00       	jmpq   403b0a <http_parser_execute+0x28ba>
  403b0a:	e9 54 02 00 00       	jmpq   403d63 <http_parser_execute+0x2b13>
  403b0f:	48 8b 45 f0          	mov    -0x10(%rbp),%rax
  403b13:	8b 10                	mov    (%rax),%edx
  403b15:	c1 ea 18             	shr    $0x18,%edx
  403b18:	83 e2 1f             	and    $0x1f,%edx
  403b1b:	83 c2 01             	add    $0x1,%edx
  403b1e:	8b 08                	mov    (%rax),%ecx
  403b20:	83 e2 1f             	and    $0x1f,%edx
  403b23:	c1 e2 18             	shl    $0x18,%edx
  403b26:	81 e1 ff ff ff e0    	and    $0xe0ffffff,%ecx
  403b2c:	09 d1                	or     %edx,%ecx
  403b2e:	89 08                	mov    %ecx,(%rax)
  403b30:	48 8b 45 f0          	mov    -0x10(%rbp),%rax
  403b34:	8b 00                	mov    (%rax),%eax
  403b36:	c1 e8 18             	shr    $0x18,%eax
  403b39:	83 e0 1f             	and    $0x1f,%eax
  403b3c:	89 c0                	mov    %eax,%eax
  403b3e:	48 83 f8 0e          	cmp    $0xe,%rax
  403b42:	0f 87 22 00 00 00    	ja     403b6a <http_parser_execute+0x291a>
  403b48:	0f be 45 d7          	movsbl -0x29(%rbp),%eax
  403b4c:	48 8b 4d f0          	mov    -0x10(%rbp),%rcx
  403b50:	8b 09                	mov    (%rcx),%ecx
  403b52:	c1 e9 18             	shr    $0x18,%ecx
  403b55:	83 e1 1f             	and    $0x1f,%ecx
  403b58:	89 c9                	mov    %ecx,%ecx
  403b5a:	0f be 0c 0d 41 07 41 	movsbl 0x410741(,%rcx,1),%ecx
  403b61:	00 
  403b62:	39 c8                	cmp    %ecx,%eax
  403b64:	0f 84 16 00 00 00    	je     403b80 <http_parser_execute+0x2930>
  403b6a:	48 8b 45 f0          	mov    -0x10(%rbp),%rax
  403b6e:	8b 08                	mov    (%rax),%ecx
  403b70:	81 e1 ff ff 01 ff    	and    $0xff01ffff,%ecx
  403b76:	83 c9 00             	or     $0x0,%ecx
  403b79:	89 08                	mov    %ecx,(%rax)
  403b7b:	e9 31 00 00 00       	jmpq   403bb1 <http_parser_execute+0x2961>
  403b80:	48 8b 45 f0          	mov    -0x10(%rbp),%rax
  403b84:	8b 00                	mov    (%rax),%eax
  403b86:	c1 e8 18             	shr    $0x18,%eax
  403b89:	83 e0 1f             	and    $0x1f,%eax
  403b8c:	89 c0                	mov    %eax,%eax
  403b8e:	48 83 f8 0d          	cmp    $0xd,%rax
  403b92:	0f 85 14 00 00 00    	jne    403bac <http_parser_execute+0x295c>
  403b98:	48 8b 45 f0          	mov    -0x10(%rbp),%rax
  403b9c:	8b 08                	mov    (%rax),%ecx
  403b9e:	81 e1 ff ff 01 ff    	and    $0xff01ffff,%ecx
  403ba4:	81 c9 00 00 14 00    	or     $0x140000,%ecx
  403baa:	89 08                	mov    %ecx,(%rax)
  403bac:	e9 00 00 00 00       	jmpq   403bb1 <http_parser_execute+0x2961>
  403bb1:	e9 ad 01 00 00       	jmpq   403d63 <http_parser_execute+0x2b13>
  403bb6:	48 8b 45 f0          	mov    -0x10(%rbp),%rax
  403bba:	8b 10                	mov    (%rax),%edx
  403bbc:	c1 ea 18             	shr    $0x18,%edx
  403bbf:	83 e2 1f             	and    $0x1f,%edx
  403bc2:	83 c2 01             	add    $0x1,%edx
  403bc5:	8b 08                	mov    (%rax),%ecx
  403bc7:	83 e2 1f             	and    $0x1f,%edx
  403bca:	c1 e2 18             	shl    $0x18,%edx
  403bcd:	81 e1 ff ff ff e0    	and    $0xe0ffffff,%ecx
  403bd3:	09 d1                	or     %edx,%ecx
  403bd5:	89 08                	mov    %ecx,(%rax)
  403bd7:	48 8b 45 f0          	mov    -0x10(%rbp),%rax
  403bdb:	8b 00                	mov    (%rax),%eax
  403bdd:	c1 e8 18             	shr    $0x18,%eax
  403be0:	83 e0 1f             	and    $0x1f,%eax
  403be3:	89 c0                	mov    %eax,%eax
  403be5:	48 83 f8 11          	cmp    $0x11,%rax
  403be9:	0f 87 22 00 00 00    	ja     403c11 <http_parser_execute+0x29c1>
  403bef:	0f be 45 d7          	movsbl -0x29(%rbp),%eax
  403bf3:	48 8b 4d f0          	mov    -0x10(%rbp),%rcx
  403bf7:	8b 09                	mov    (%rcx),%ecx
  403bf9:	c1 e9 18             	shr    $0x18,%ecx
  403bfc:	83 e1 1f             	and    $0x1f,%ecx
  403bff:	89 c9                	mov    %ecx,%ecx
  403c01:	0f be 0c 0d c5 14 41 	movsbl 0x4114c5(,%rcx,1),%ecx
  403c08:	00 
  403c09:	39 c8                	cmp    %ecx,%eax
  403c0b:	0f 84 16 00 00 00    	je     403c27 <http_parser_execute+0x29d7>
  403c11:	48 8b 45 f0          	mov    -0x10(%rbp),%rax
  403c15:	8b 08                	mov    (%rax),%ecx
  403c17:	81 e1 ff ff 01 ff    	and    $0xff01ffff,%ecx
  403c1d:	83 c9 00             	or     $0x0,%ecx
  403c20:	89 08                	mov    %ecx,(%rax)
  403c22:	e9 45 00 00 00       	jmpq   403c6c <http_parser_execute+0x2a1c>
  403c27:	48 8b 45 f0          	mov    -0x10(%rbp),%rax
  403c2b:	8b 00                	mov    (%rax),%eax
  403c2d:	c1 e8 18             	shr    $0x18,%eax
  403c30:	83 e0 1f             	and    $0x1f,%eax
  403c33:	89 c0                	mov    %eax,%eax
  403c35:	48 83 f8 10          	cmp    $0x10,%rax
  403c39:	0f 85 28 00 00 00    	jne    403c67 <http_parser_execute+0x2a17>
  403c3f:	48 8b 45 f0          	mov    -0x10(%rbp),%rax
  403c43:	8b 08                	mov    (%rax),%ecx
  403c45:	81 e1 ff ff 01 ff    	and    $0xff01ffff,%ecx
  403c4b:	81 c9 00 00 1a 00    	or     $0x1a0000,%ecx
  403c51:	89 08                	mov    %ecx,(%rax)
  403c53:	48 8b 45 f0          	mov    -0x10(%rbp),%rax
  403c57:	8b 08                	mov    (%rax),%ecx
  403c59:	81 e1 ff ff ff df    	and    $0xdfffffff,%ecx
  403c5f:	81 c9 00 00 00 20    	or     $0x20000000,%ecx
  403c65:	89 08                	mov    %ecx,(%rax)
  403c67:	e9 00 00 00 00       	jmpq   403c6c <http_parser_execute+0x2a1c>
  403c6c:	e9 f2 00 00 00       	jmpq   403d63 <http_parser_execute+0x2b13>
  403c71:	48 8b 45 f0          	mov    -0x10(%rbp),%rax
  403c75:	8b 10                	mov    (%rax),%edx
  403c77:	c1 ea 18             	shr    $0x18,%edx
  403c7a:	83 e2 1f             	and    $0x1f,%edx
  403c7d:	83 c2 01             	add    $0x1,%edx
  403c80:	8b 08                	mov    (%rax),%ecx
  403c82:	83 e2 1f             	and    $0x1f,%edx
  403c85:	c1 e2 18             	shl    $0x18,%edx
  403c88:	81 e1 ff ff ff e0    	and    $0xe0ffffff,%ecx
  403c8e:	09 d1                	or     %edx,%ecx
  403c90:	89 08                	mov    %ecx,(%rax)
  403c92:	48 8b 45 f0          	mov    -0x10(%rbp),%rax
  403c96:	8b 00                	mov    (%rax),%eax
  403c98:	c1 e8 18             	shr    $0x18,%eax
  403c9b:	83 e0 1f             	and    $0x1f,%eax
  403c9e:	89 c0                	mov    %eax,%eax
  403ca0:	48 83 f8 07          	cmp    $0x7,%rax
  403ca4:	0f 87 22 00 00 00    	ja     403ccc <http_parser_execute+0x2a7c>
  403caa:	0f be 45 d7          	movsbl -0x29(%rbp),%eax
  403cae:	48 8b 4d f0          	mov    -0x10(%rbp),%rcx
  403cb2:	8b 09                	mov    (%rcx),%ecx
  403cb4:	c1 e9 18             	shr    $0x18,%ecx
  403cb7:	83 e1 1f             	and    $0x1f,%ecx
  403cba:	89 c9                	mov    %ecx,%ecx
  403cbc:	0f be 0c 0d 50 07 41 	movsbl 0x410750(,%rcx,1),%ecx
  403cc3:	00 
  403cc4:	39 c8                	cmp    %ecx,%eax
  403cc6:	0f 84 16 00 00 00    	je     403ce2 <http_parser_execute+0x2a92>
  403ccc:	48 8b 45 f0          	mov    -0x10(%rbp),%rax
  403cd0:	8b 08                	mov    (%rax),%ecx
  403cd2:	81 e1 ff ff 01 ff    	and    $0xff01ffff,%ecx
  403cd8:	83 c9 00             	or     $0x0,%ecx
  403cdb:	89 08                	mov    %ecx,(%rax)
  403cdd:	e9 31 00 00 00       	jmpq   403d13 <http_parser_execute+0x2ac3>
  403ce2:	48 8b 45 f0          	mov    -0x10(%rbp),%rax
  403ce6:	8b 00                	mov    (%rax),%eax
  403ce8:	c1 e8 18             	shr    $0x18,%eax
  403ceb:	83 e0 1f             	and    $0x1f,%eax
  403cee:	89 c0                	mov    %eax,%eax
  403cf0:	48 83 f8 06          	cmp    $0x6,%rax
  403cf4:	0f 85 14 00 00 00    	jne    403d0e <http_parser_execute+0x2abe>
  403cfa:	48 8b 45 f0          	mov    -0x10(%rbp),%rax
  403cfe:	8b 08                	mov    (%rax),%ecx
  403d00:	81 e1 ff ff 01 ff    	and    $0xff01ffff,%ecx
  403d06:	81 c9 00 00 1c 00    	or     $0x1c0000,%ecx
  403d0c:	89 08                	mov    %ecx,(%rax)
  403d0e:	e9 00 00 00 00       	jmpq   403d13 <http_parser_execute+0x2ac3>
  403d13:	e9 4b 00 00 00       	jmpq   403d63 <http_parser_execute+0x2b13>
  403d18:	0f be 45 d6          	movsbl -0x2a(%rbp),%eax
  403d1c:	83 f8 20             	cmp    $0x20,%eax
  403d1f:	0f 84 11 00 00 00    	je     403d36 <http_parser_execute+0x2ae6>
  403d25:	48 8b 45 f0          	mov    -0x10(%rbp),%rax
  403d29:	8b 08                	mov    (%rax),%ecx
  403d2b:	81 e1 ff ff 01 ff    	and    $0xff01ffff,%ecx
  403d31:	83 c9 00             	or     $0x0,%ecx
  403d34:	89 08                	mov    %ecx,(%rax)
  403d36:	e9 28 00 00 00       	jmpq   403d63 <http_parser_execute+0x2b13>
  403d3b:	48 bf 58 07 41 00 00 	movabs $0x410758,%rdi
  403d42:	00 00 00 
  403d45:	48 be c4 06 41 00 00 	movabs $0x4106c4,%rsi
  403d4c:	00 00 00 
  403d4f:	ba 5a 05 00 00       	mov    $0x55a,%edx
  403d54:	48 b9 d2 06 41 00 00 	movabs $0x4106d2,%rcx
  403d5b:	00 00 00 
  403d5e:	e8 2d d3 ff ff       	callq  401090 <__assert_fail@plt>
  403d63:	e9 00 00 00 00       	jmpq   403d68 <http_parser_execute+0x2b18>
  403d68:	48 8b 45 c8          	mov    -0x38(%rbp),%rax
  403d6c:	48 83 c0 01          	add    $0x1,%rax
  403d70:	48 89 45 c8          	mov    %rax,-0x38(%rbp)
  403d74:	e9 8e f9 ff ff       	jmpq   403707 <http_parser_execute+0x24b7>
  403d79:	48 8b 45 c8          	mov    -0x38(%rbp),%rax
  403d7d:	48 8b 4d e0          	mov    -0x20(%rbp),%rcx
  403d81:	48 03 4d d8          	add    -0x28(%rbp),%rcx
  403d85:	48 39 c8             	cmp    %rcx,%rax
  403d88:	0f 85 73 00 00 00    	jne    403e01 <http_parser_execute+0x2bb1>
  403d8e:	48 8b 45 c8          	mov    -0x38(%rbp),%rax
  403d92:	48 83 c0 ff          	add    $0xffffffffffffffff,%rax
  403d96:	48 89 45 c8          	mov    %rax,-0x38(%rbp)
  403d9a:	48 8b 45 c8          	mov    -0x38(%rbp),%rax
  403d9e:	48 8b 4d 80          	mov    -0x80(%rbp),%rcx
  403da2:	48 29 c8             	sub    %rcx,%rax
  403da5:	03 45 90             	add    -0x70(%rbp),%eax
  403da8:	89 45 90             	mov    %eax,-0x70(%rbp)
  403dab:	8b 45 90             	mov    -0x70(%rbp),%eax
  403dae:	3b 04 25 c0 e0 8b 00 	cmp    0x8be0c0,%eax
  403db5:	0f 97 c0             	seta   %al
  403db8:	34 ff                	xor    $0xff,%al
  403dba:	34 ff                	xor    $0xff,%al
  403dbc:	24 01                	and    $0x1,%al
  403dbe:	0f b6 c0             	movzbl %al,%eax
  403dc1:	48 98                	cltq   
  403dc3:	48 83 f8 00          	cmp    $0x0,%rax
  403dc7:	0f 84 2a 00 00 00    	je     403df7 <http_parser_execute+0x2ba7>
  403dcd:	e9 00 00 00 00       	jmpq   403dd2 <http_parser_execute+0x2b82>
  403dd2:	8b 4d 90             	mov    -0x70(%rbp),%ecx
  403dd5:	48 8b 45 f0          	mov    -0x10(%rbp),%rax
  403dd9:	89 48 04             	mov    %ecx,0x4(%rax)
  403ddc:	48 8b 45 f0          	mov    -0x10(%rbp),%rax
  403de0:	8b 48 14             	mov    0x14(%rax),%ecx
  403de3:	81 e1 ff ff ff 80    	and    $0x80ffffff,%ecx
  403de9:	81 c9 00 00 00 0c    	or     $0xc000000,%ecx
  403def:	89 48 14             	mov    %ecx,0x14(%rax)
  403df2:	e9 45 3a 00 00       	jmpq   40783c <http_parser_execute+0x65ec>
  403df7:	e9 00 00 00 00       	jmpq   403dfc <http_parser_execute+0x2bac>
  403dfc:	e9 cd 32 00 00       	jmpq   4070ce <http_parser_execute+0x5e7e>
  403e01:	e9 00 00 00 00       	jmpq   403e06 <http_parser_execute+0x2bb6>
  403e06:	48 8b 45 c8          	mov    -0x38(%rbp),%rax
  403e0a:	48 8b 4d 80          	mov    -0x80(%rbp),%rcx
  403e0e:	48 29 c8             	sub    %rcx,%rax
  403e11:	03 45 90             	add    -0x70(%rbp),%eax
  403e14:	89 45 90             	mov    %eax,-0x70(%rbp)
  403e17:	8b 45 90             	mov    -0x70(%rbp),%eax
  403e1a:	3b 04 25 c0 e0 8b 00 	cmp    0x8be0c0,%eax
  403e21:	0f 97 c0             	seta   %al
  403e24:	34 ff                	xor    $0xff,%al
  403e26:	34 ff                	xor    $0xff,%al
  403e28:	24 01                	and    $0x1,%al
  403e2a:	0f b6 c0             	movzbl %al,%eax
  403e2d:	48 98                	cltq   
  403e2f:	48 83 f8 00          	cmp    $0x0,%rax
  403e33:	0f 84 2a 00 00 00    	je     403e63 <http_parser_execute+0x2c13>
  403e39:	e9 00 00 00 00       	jmpq   403e3e <http_parser_execute+0x2bee>
  403e3e:	8b 4d 90             	mov    -0x70(%rbp),%ecx
  403e41:	48 8b 45 f0          	mov    -0x10(%rbp),%rax
  403e45:	89 48 04             	mov    %ecx,0x4(%rax)
  403e48:	48 8b 45 f0          	mov    -0x10(%rbp),%rax
  403e4c:	8b 48 14             	mov    0x14(%rax),%ecx
  403e4f:	81 e1 ff ff ff 80    	and    $0x80ffffff,%ecx
  403e55:	81 c9 00 00 00 0c    	or     $0xc000000,%ecx
  403e5b:	89 48 14             	mov    %ecx,0x14(%rax)
  403e5e:	e9 d9 39 00 00       	jmpq   40783c <http_parser_execute+0x65ec>
  403e63:	e9 00 00 00 00       	jmpq   403e68 <http_parser_execute+0x2c18>
  403e68:	0f be 45 d6          	movsbl -0x2a(%rbp),%eax
  403e6c:	83 f8 3a             	cmp    $0x3a,%eax
  403e6f:	0f 85 5a 01 00 00    	jne    403fcf <http_parser_execute+0x2d7f>
  403e75:	c7 45 9c 2e 00 00 00 	movl   $0x2e,-0x64(%rbp)
  403e7c:	48 8b 45 f0          	mov    -0x10(%rbp),%rax
  403e80:	8b 40 14             	mov    0x14(%rax),%eax
  403e83:	c1 e8 18             	shr    $0x18,%eax
  403e86:	83 e0 7f             	and    $0x7f,%eax
  403e89:	83 f8 00             	cmp    $0x0,%eax
  403e8c:	0f 85 05 00 00 00    	jne    403e97 <http_parser_execute+0x2c47>
  403e92:	e9 28 00 00 00       	jmpq   403ebf <http_parser_execute+0x2c6f>
  403e97:	48 bf a0 06 41 00 00 	movabs $0x4106a0,%rdi
  403e9e:	00 00 00 
  403ea1:	48 be c4 06 41 00 00 	movabs $0x4106c4,%rsi
  403ea8:	00 00 00 
  403eab:	ba 69 05 00 00       	mov    $0x569,%edx
  403eb0:	48 b9 d2 06 41 00 00 	movabs $0x4106d2,%rcx
  403eb7:	00 00 00 
  403eba:	e8 d1 d1 ff ff       	callq  401090 <__assert_fail@plt>
  403ebf:	48 83 7d c0 00       	cmpq   $0x0,-0x40(%rbp)
  403ec4:	0f 84 fb 00 00 00    	je     403fc5 <http_parser_execute+0x2d75>
  403eca:	48 8b 45 e8          	mov    -0x18(%rbp),%rax
  403ece:	48 83 78 18 00       	cmpq   $0x0,0x18(%rax)
  403ed3:	0f 95 c0             	setne  %al
  403ed6:	34 ff                	xor    $0xff,%al
  403ed8:	34 ff                	xor    $0xff,%al
  403eda:	24 01                	and    $0x1,%al
  403edc:	0f b6 c0             	movzbl %al,%eax
  403edf:	48 98                	cltq   
  403ee1:	48 83 f8 00          	cmp    $0x0,%rax
  403ee5:	0f 84 d2 00 00 00    	je     403fbd <http_parser_execute+0x2d6d>
  403eeb:	8b 55 9c             	mov    -0x64(%rbp),%edx
  403eee:	48 8b 45 f0          	mov    -0x10(%rbp),%rax
  403ef2:	8b 08                	mov    (%rax),%ecx
  403ef4:	83 e2 7f             	and    $0x7f,%edx
  403ef7:	c1 e2 0a             	shl    $0xa,%edx
  403efa:	81 e1 ff 03 fe ff    	and    $0xfffe03ff,%ecx
  403f00:	09 d1                	or     %edx,%ecx
  403f02:	89 08                	mov    %ecx,(%rax)
  403f04:	48 8b 45 e8          	mov    -0x18(%rbp),%rax
  403f08:	48 8b 40 18          	mov    0x18(%rax),%rax
  403f0c:	48 8b 7d f0          	mov    -0x10(%rbp),%rdi
  403f10:	48 8b 75 c0          	mov    -0x40(%rbp),%rsi
  403f14:	48 8b 55 c8          	mov    -0x38(%rbp),%rdx
  403f18:	48 8b 4d c0          	mov    -0x40(%rbp),%rcx
  403f1c:	48 29 ca             	sub    %rcx,%rdx
  403f1f:	ff d0                	callq  *%rax
  403f21:	89 c1                	mov    %eax,%ecx
  403f23:	31 c0                	xor    %eax,%eax
  403f25:	39 c8                	cmp    %ecx,%eax
  403f27:	0f 95 c0             	setne  %al
  403f2a:	34 ff                	xor    $0xff,%al
  403f2c:	34 ff                	xor    $0xff,%al
  403f2e:	24 01                	and    $0x1,%al
  403f30:	0f b6 c0             	movzbl %al,%eax
  403f33:	48 98                	cltq   
  403f35:	48 83 f8 00          	cmp    $0x0,%rax
  403f39:	0f 84 2a 00 00 00    	je     403f69 <http_parser_execute+0x2d19>
  403f3f:	e9 00 00 00 00       	jmpq   403f44 <http_parser_execute+0x2cf4>
  403f44:	8b 4d 90             	mov    -0x70(%rbp),%ecx
  403f47:	48 8b 45 f0          	mov    -0x10(%rbp),%rax
  403f4b:	89 48 04             	mov    %ecx,0x4(%rax)
  403f4e:	48 8b 45 f0          	mov    -0x10(%rbp),%rax
  403f52:	8b 48 14             	mov    0x14(%rax),%ecx
  403f55:	81 e1 ff ff ff 80    	and    $0x80ffffff,%ecx
  403f5b:	81 c9 00 00 00 03    	or     $0x3000000,%ecx
  403f61:	89 48 14             	mov    %ecx,0x14(%rax)
  403f64:	e9 00 00 00 00       	jmpq   403f69 <http_parser_execute+0x2d19>
  403f69:	48 8b 45 f0          	mov    -0x10(%rbp),%rax
  403f6d:	8b 00                	mov    (%rax),%eax
  403f6f:	c1 e8 0a             	shr    $0xa,%eax
  403f72:	83 e0 7f             	and    $0x7f,%eax
  403f75:	89 45 9c             	mov    %eax,-0x64(%rbp)
  403f78:	48 8b 45 f0          	mov    -0x10(%rbp),%rax
  403f7c:	8b 40 14             	mov    0x14(%rax),%eax
  403f7f:	c1 e8 18             	shr    $0x18,%eax
  403f82:	83 e0 7f             	and    $0x7f,%eax
  403f85:	83 f8 00             	cmp    $0x0,%eax
  403f88:	0f 95 c0             	setne  %al
  403f8b:	34 ff                	xor    $0xff,%al
  403f8d:	34 ff                	xor    $0xff,%al
  403f8f:	24 01                	and    $0x1,%al
  403f91:	0f b6 c0             	movzbl %al,%eax
  403f94:	48 98                	cltq   
  403f96:	48 83 f8 00          	cmp    $0x0,%rax
  403f9a:	0f 84 18 00 00 00    	je     403fb8 <http_parser_execute+0x2d68>
  403fa0:	48 8b 45 c8          	mov    -0x38(%rbp),%rax
  403fa4:	48 8b 4d e0          	mov    -0x20(%rbp),%rcx
  403fa8:	48 29 c8             	sub    %rcx,%rax
  403fab:	48 83 c0 01          	add    $0x1,%rax
  403faf:	48 89 45 f8          	mov    %rax,-0x8(%rbp)
  403fb3:	e9 fb 38 00 00       	jmpq   4078b3 <http_parser_execute+0x6663>
  403fb8:	e9 00 00 00 00       	jmpq   403fbd <http_parser_execute+0x2d6d>
  403fbd:	48 c7 45 c0 00 00 00 	movq   $0x0,-0x40(%rbp)
  403fc4:	00 
  403fc5:	e9 00 00 00 00       	jmpq   403fca <http_parser_execute+0x2d7a>
  403fca:	e9 ff 30 00 00       	jmpq   4070ce <http_parser_execute+0x5e7e>
  403fcf:	e9 00 00 00 00       	jmpq   403fd4 <http_parser_execute+0x2d84>
  403fd4:	8b 4d 90             	mov    -0x70(%rbp),%ecx
  403fd7:	48 8b 45 f0          	mov    -0x10(%rbp),%rax
  403fdb:	89 48 04             	mov    %ecx,0x4(%rax)
  403fde:	48 8b 45 f0          	mov    -0x10(%rbp),%rax
  403fe2:	8b 48 14             	mov    0x14(%rax),%ecx
  403fe5:	81 e1 ff ff ff 80    	and    $0x80ffffff,%ecx
  403feb:	81 c9 00 00 00 18    	or     $0x18000000,%ecx
  403ff1:	89 48 14             	mov    %ecx,0x14(%rax)
  403ff4:	e9 43 38 00 00       	jmpq   40783c <http_parser_execute+0x65ec>
  403ff9:	0f be 45 d6          	movsbl -0x2a(%rbp),%eax
  403ffd:	83 f8 20             	cmp    $0x20,%eax
  404000:	0f 84 0d 00 00 00    	je     404013 <http_parser_execute+0x2dc3>
  404006:	0f be 45 d6          	movsbl -0x2a(%rbp),%eax
  40400a:	83 f8 09             	cmp    $0x9,%eax
  40400d:	0f 85 05 00 00 00    	jne    404018 <http_parser_execute+0x2dc8>
  404013:	e9 b6 30 00 00       	jmpq   4070ce <http_parser_execute+0x5e7e>
  404018:	0f be 45 d6          	movsbl -0x2a(%rbp),%eax
  40401c:	83 f8 0d             	cmp    $0xd,%eax
  40401f:	0f 85 0c 00 00 00    	jne    404031 <http_parser_execute+0x2de1>
  404025:	c7 45 9c 2f 00 00 00 	movl   $0x2f,-0x64(%rbp)
  40402c:	e9 9d 30 00 00       	jmpq   4070ce <http_parser_execute+0x5e7e>
  404031:	0f be 45 d6          	movsbl -0x2a(%rbp),%eax
  404035:	83 f8 0a             	cmp    $0xa,%eax
  404038:	0f 85 0c 00 00 00    	jne    40404a <http_parser_execute+0x2dfa>
  40403e:	c7 45 9c 30 00 00 00 	movl   $0x30,-0x64(%rbp)
  404045:	e9 84 30 00 00       	jmpq   4070ce <http_parser_execute+0x5e7e>
  40404a:	e9 00 00 00 00       	jmpq   40404f <http_parser_execute+0x2dff>
  40404f:	e9 00 00 00 00       	jmpq   404054 <http_parser_execute+0x2e04>
  404054:	48 83 7d b8 00       	cmpq   $0x0,-0x48(%rbp)
  404059:	0f 85 08 00 00 00    	jne    404067 <http_parser_execute+0x2e17>
  40405f:	48 8b 45 c8          	mov    -0x38(%rbp),%rax
  404063:	48 89 45 b8          	mov    %rax,-0x48(%rbp)
  404067:	e9 00 00 00 00       	jmpq   40406c <http_parser_execute+0x2e1c>
  40406c:	c7 45 9c 32 00 00 00 	movl   $0x32,-0x64(%rbp)
  404073:	48 8b 45 f0          	mov    -0x10(%rbp),%rax
  404077:	8b 08                	mov    (%rax),%ecx
  404079:	81 e1 ff ff ff e0    	and    $0xe0ffffff,%ecx
  40407f:	89 08                	mov    %ecx,(%rax)
  404081:	8a 45 d6             	mov    -0x2a(%rbp),%al
  404084:	0c 20                	or     $0x20,%al
  404086:	88 45 d7             	mov    %al,-0x29(%rbp)
  404089:	48 8b 45 f0          	mov    -0x10(%rbp),%rax
  40408d:	8b 00                	mov    (%rax),%eax
  40408f:	c1 e8 11             	shr    $0x11,%eax
  404092:	83 e0 7f             	and    $0x7f,%eax
  404095:	83 c0 f7             	add    $0xfffffff7,%eax
  404098:	89 c1                	mov    %eax,%ecx
  40409a:	48 89 8d a8 fe ff ff 	mov    %rcx,-0x158(%rbp)
  4040a1:	83 e8 09             	sub    $0x9,%eax
  4040a4:	0f 87 3c 02 00 00    	ja     4042e6 <http_parser_execute+0x3096>
  4040aa:	48 8b 85 a8 fe ff ff 	mov    -0x158(%rbp),%rax
  4040b1:	48 8b 04 c5 90 f3 40 	mov    0x40f390(,%rax,8),%rax
  4040b8:	00 
  4040b9:	ff e0                	jmpq   *%rax
  4040bb:	48 8b 45 f0          	mov    -0x10(%rbp),%rax
  4040bf:	8b 10                	mov    (%rax),%edx
  4040c1:	c1 ea 02             	shr    $0x2,%edx
  4040c4:	81 e2 ff 00 00 00    	and    $0xff,%edx
  4040ca:	83 ca 20             	or     $0x20,%edx
  4040cd:	8b 08                	mov    (%rax),%ecx
  4040cf:	81 e2 ff 00 00 00    	and    $0xff,%edx
  4040d5:	c1 e2 02             	shl    $0x2,%edx
  4040d8:	81 e1 03 fc ff ff    	and    $0xfffffc03,%ecx
  4040de:	09 d1                	or     %edx,%ecx
  4040e0:	89 08                	mov    %ecx,(%rax)
  4040e2:	48 8b 45 f0          	mov    -0x10(%rbp),%rax
  4040e6:	8b 08                	mov    (%rax),%ecx
  4040e8:	81 e1 ff ff 01 ff    	and    $0xff01ffff,%ecx
  4040ee:	83 c9 00             	or     $0x0,%ecx
  4040f1:	89 08                	mov    %ecx,(%rax)
  4040f3:	e9 ff 01 00 00       	jmpq   4042f7 <http_parser_execute+0x30a7>
  4040f8:	0f be 4d d7          	movsbl -0x29(%rbp),%ecx
  4040fc:	b8 63 00 00 00       	mov    $0x63,%eax
  404101:	39 c8                	cmp    %ecx,%eax
  404103:	0f 85 19 00 00 00    	jne    404122 <http_parser_execute+0x2ed2>
  404109:	48 8b 45 f0          	mov    -0x10(%rbp),%rax
  40410d:	8b 08                	mov    (%rax),%ecx
  40410f:	81 e1 ff ff 01 ff    	and    $0xff01ffff,%ecx
  404115:	81 c9 00 00 20 00    	or     $0x200000,%ecx
  40411b:	89 08                	mov    %ecx,(%rax)
  40411d:	e9 14 00 00 00       	jmpq   404136 <http_parser_execute+0x2ee6>
  404122:	48 8b 45 f0          	mov    -0x10(%rbp),%rax
  404126:	8b 08                	mov    (%rax),%ecx
  404128:	81 e1 ff ff 01 ff    	and    $0xff01ffff,%ecx
  40412e:	81 c9 00 00 22 00    	or     $0x220000,%ecx
  404134:	89 08                	mov    %ecx,(%rax)
  404136:	e9 bc 01 00 00       	jmpq   4042f7 <http_parser_execute+0x30a7>
  40413b:	e9 b7 01 00 00       	jmpq   4042f7 <http_parser_execute+0x30a7>
  404140:	0f be 4d d6          	movsbl -0x2a(%rbp),%ecx
  404144:	31 c0                	xor    %eax,%eax
  404146:	83 f9 30             	cmp    $0x30,%ecx
  404149:	88 85 a7 fe ff ff    	mov    %al,-0x159(%rbp)
  40414f:	0f 8c 10 00 00 00    	jl     404165 <http_parser_execute+0x2f15>
  404155:	0f be 45 d6          	movsbl -0x2a(%rbp),%eax
  404159:	83 f8 39             	cmp    $0x39,%eax
  40415c:	0f 9e c0             	setle  %al
  40415f:	88 85 a7 fe ff ff    	mov    %al,-0x159(%rbp)
  404165:	8a 85 a7 fe ff ff    	mov    -0x159(%rbp),%al
  40416b:	34 ff                	xor    $0xff,%al
  40416d:	34 ff                	xor    $0xff,%al
  40416f:	34 ff                	xor    $0xff,%al
  404171:	24 01                	and    $0x1,%al
  404173:	0f b6 c0             	movzbl %al,%eax
  404176:	48 98                	cltq   
  404178:	48 83 f8 00          	cmp    $0x0,%rax
  40417c:	0f 84 2a 00 00 00    	je     4041ac <http_parser_execute+0x2f5c>
  404182:	e9 00 00 00 00       	jmpq   404187 <http_parser_execute+0x2f37>
  404187:	8b 4d 90             	mov    -0x70(%rbp),%ecx
  40418a:	48 8b 45 f0          	mov    -0x10(%rbp),%rax
  40418e:	89 48 04             	mov    %ecx,0x4(%rax)
  404191:	48 8b 45 f0          	mov    -0x10(%rbp),%rax
  404195:	8b 48 14             	mov    0x14(%rax),%ecx
  404198:	81 e1 ff ff ff 80    	and    $0x80ffffff,%ecx
  40419e:	81 c9 00 00 00 19    	or     $0x19000000,%ecx
  4041a4:	89 48 14             	mov    %ecx,0x14(%rax)
  4041a7:	e9 90 36 00 00       	jmpq   40783c <http_parser_execute+0x65ec>
  4041ac:	48 8b 45 f0          	mov    -0x10(%rbp),%rax
  4041b0:	8b 00                	mov    (%rax),%eax
  4041b2:	c1 e8 02             	shr    $0x2,%eax
  4041b5:	25 ff 00 00 00       	and    $0xff,%eax
  4041ba:	25 80 00 00 00       	and    $0x80,%eax
  4041bf:	83 f8 00             	cmp    $0x0,%eax
  4041c2:	0f 84 2a 00 00 00    	je     4041f2 <http_parser_execute+0x2fa2>
  4041c8:	e9 00 00 00 00       	jmpq   4041cd <http_parser_execute+0x2f7d>
  4041cd:	8b 4d 90             	mov    -0x70(%rbp),%ecx
  4041d0:	48 8b 45 f0          	mov    -0x10(%rbp),%rax
  4041d4:	89 48 04             	mov    %ecx,0x4(%rax)
  4041d7:	48 8b 45 f0          	mov    -0x10(%rbp),%rax
  4041db:	8b 48 14             	mov    0x14(%rax),%ecx
  4041de:	81 e1 ff ff ff 80    	and    $0x80ffffff,%ecx
  4041e4:	81 c9 00 00 00 1a    	or     $0x1a000000,%ecx
  4041ea:	89 48 14             	mov    %ecx,0x14(%rax)
  4041ed:	e9 4a 36 00 00       	jmpq   40783c <http_parser_execute+0x65ec>
  4041f2:	48 8b 45 f0          	mov    -0x10(%rbp),%rax
  4041f6:	8b 10                	mov    (%rax),%edx
  4041f8:	c1 ea 02             	shr    $0x2,%edx
  4041fb:	81 e2 ff 00 00 00    	and    $0xff,%edx
  404201:	81 ca 80 00 00 00    	or     $0x80,%edx
  404207:	8b 08                	mov    (%rax),%ecx
  404209:	81 e2 ff 00 00 00    	and    $0xff,%edx
  40420f:	c1 e2 02             	shl    $0x2,%edx
  404212:	81 e1 03 fc ff ff    	and    $0xfffffc03,%ecx
  404218:	09 d1                	or     %edx,%ecx
  40421a:	89 08                	mov    %ecx,(%rax)
  40421c:	0f be 45 d6          	movsbl -0x2a(%rbp),%eax
  404220:	83 e8 30             	sub    $0x30,%eax
  404223:	48 63 c8             	movslq %eax,%rcx
  404226:	48 8b 45 f0          	mov    -0x10(%rbp),%rax
  40422a:	48 89 48 08          	mov    %rcx,0x8(%rax)
  40422e:	48 8b 45 f0          	mov    -0x10(%rbp),%rax
  404232:	8b 08                	mov    (%rax),%ecx
  404234:	81 e1 ff ff 01 ff    	and    $0xff01ffff,%ecx
  40423a:	81 c9 00 00 16 00    	or     $0x160000,%ecx
  404240:	89 08                	mov    %ecx,(%rax)
  404242:	e9 b0 00 00 00       	jmpq   4042f7 <http_parser_execute+0x30a7>
  404247:	e9 ab 00 00 00       	jmpq   4042f7 <http_parser_execute+0x30a7>
  40424c:	0f be 45 d7          	movsbl -0x29(%rbp),%eax
  404250:	83 f8 6b             	cmp    $0x6b,%eax
  404253:	0f 85 19 00 00 00    	jne    404272 <http_parser_execute+0x3022>
  404259:	48 8b 45 f0          	mov    -0x10(%rbp),%rax
  40425d:	8b 08                	mov    (%rax),%ecx
  40425f:	81 e1 ff ff 01 ff    	and    $0xff01ffff,%ecx
  404265:	81 c9 00 00 26 00    	or     $0x260000,%ecx
  40426b:	89 08                	mov    %ecx,(%rax)
  40426d:	e9 6a 00 00 00       	jmpq   4042dc <http_parser_execute+0x308c>
  404272:	0f be 45 d7          	movsbl -0x29(%rbp),%eax
  404276:	83 f8 63             	cmp    $0x63,%eax
  404279:	0f 85 19 00 00 00    	jne    404298 <http_parser_execute+0x3048>
  40427f:	48 8b 45 f0          	mov    -0x10(%rbp),%rax
  404283:	8b 08                	mov    (%rax),%ecx
  404285:	81 e1 ff ff 01 ff    	and    $0xff01ffff,%ecx
  40428b:	81 c9 00 00 28 00    	or     $0x280000,%ecx
  404291:	89 08                	mov    %ecx,(%rax)
  404293:	e9 3f 00 00 00       	jmpq   4042d7 <http_parser_execute+0x3087>
  404298:	0f be 45 d7          	movsbl -0x29(%rbp),%eax
  40429c:	83 f8 75             	cmp    $0x75,%eax
  40429f:	0f 85 19 00 00 00    	jne    4042be <http_parser_execute+0x306e>
  4042a5:	48 8b 45 f0          	mov    -0x10(%rbp),%rax
  4042a9:	8b 08                	mov    (%rax),%ecx
  4042ab:	81 e1 ff ff 01 ff    	and    $0xff01ffff,%ecx
  4042b1:	81 c9 00 00 2a 00    	or     $0x2a0000,%ecx
  4042b7:	89 08                	mov    %ecx,(%rax)
  4042b9:	e9 14 00 00 00       	jmpq   4042d2 <http_parser_execute+0x3082>
  4042be:	48 8b 45 f0          	mov    -0x10(%rbp),%rax
  4042c2:	8b 08                	mov    (%rax),%ecx
  4042c4:	81 e1 ff ff 01 ff    	and    $0xff01ffff,%ecx
  4042ca:	81 c9 00 00 2c 00    	or     $0x2c0000,%ecx
  4042d0:	89 08                	mov    %ecx,(%rax)
  4042d2:	e9 00 00 00 00       	jmpq   4042d7 <http_parser_execute+0x3087>
  4042d7:	e9 00 00 00 00       	jmpq   4042dc <http_parser_execute+0x308c>
  4042dc:	e9 16 00 00 00       	jmpq   4042f7 <http_parser_execute+0x30a7>
  4042e1:	e9 11 00 00 00       	jmpq   4042f7 <http_parser_execute+0x30a7>
  4042e6:	48 8b 45 f0          	mov    -0x10(%rbp),%rax
  4042ea:	8b 08                	mov    (%rax),%ecx
  4042ec:	81 e1 ff ff 01 ff    	and    $0xff01ffff,%ecx
  4042f2:	83 c9 00             	or     $0x0,%ecx
  4042f5:	89 08                	mov    %ecx,(%rax)
  4042f7:	e9 d2 2d 00 00       	jmpq   4070ce <http_parser_execute+0x5e7e>
  4042fc:	48 8b 45 c8          	mov    -0x38(%rbp),%rax
  404300:	48 89 85 68 ff ff ff 	mov    %rax,-0x98(%rbp)
  404307:	48 8b 45 f0          	mov    -0x10(%rbp),%rax
  40430b:	8b 00                	mov    (%rax),%eax
  40430d:	c1 e8 11             	shr    $0x11,%eax
  404310:	83 e0 7f             	and    $0x7f,%eax
  404313:	89 85 64 ff ff ff    	mov    %eax,-0x9c(%rbp)
  404319:	48 8b 45 c8          	mov    -0x38(%rbp),%rax
  40431d:	48 8b 4d e0          	mov    -0x20(%rbp),%rcx
  404321:	48 03 4d d8          	add    -0x28(%rbp),%rcx
  404325:	48 39 c8             	cmp    %rcx,%rax
  404328:	0f 84 d6 0c 00 00    	je     405004 <http_parser_execute+0x3db4>
  40432e:	48 8b 45 c8          	mov    -0x38(%rbp),%rax
  404332:	8a 00                	mov    (%rax),%al
  404334:	88 45 d6             	mov    %al,-0x2a(%rbp)
  404337:	0f be 45 d6          	movsbl -0x2a(%rbp),%eax
  40433b:	83 f8 0d             	cmp    $0xd,%eax
  40433e:	0f 85 76 01 00 00    	jne    4044ba <http_parser_execute+0x326a>
  404344:	c7 45 9c 34 00 00 00 	movl   $0x34,-0x64(%rbp)
  40434b:	8b 95 64 ff ff ff    	mov    -0x9c(%rbp),%edx
  404351:	48 8b 45 f0          	mov    -0x10(%rbp),%rax
  404355:	8b 08                	mov    (%rax),%ecx
  404357:	83 e2 7f             	and    $0x7f,%edx
  40435a:	c1 e2 11             	shl    $0x11,%edx
  40435d:	81 e1 ff ff 01 ff    	and    $0xff01ffff,%ecx
  404363:	09 d1                	or     %edx,%ecx
  404365:	89 08                	mov    %ecx,(%rax)
  404367:	48 8b 45 f0          	mov    -0x10(%rbp),%rax
  40436b:	8b 40 14             	mov    0x14(%rax),%eax
  40436e:	c1 e8 18             	shr    $0x18,%eax
  404371:	83 e0 7f             	and    $0x7f,%eax
  404374:	83 f8 00             	cmp    $0x0,%eax
  404377:	0f 85 05 00 00 00    	jne    404382 <http_parser_execute+0x3132>
  40437d:	e9 28 00 00 00       	jmpq   4043aa <http_parser_execute+0x315a>
  404382:	48 bf a0 06 41 00 00 	movabs $0x4106a0,%rdi
  404389:	00 00 00 
  40438c:	48 be c4 06 41 00 00 	movabs $0x4106c4,%rsi
  404393:	00 00 00 
  404396:	ba d3 05 00 00       	mov    $0x5d3,%edx
  40439b:	48 b9 d2 06 41 00 00 	movabs $0x4106d2,%rcx
  4043a2:	00 00 00 
  4043a5:	e8 e6 cc ff ff       	callq  401090 <__assert_fail@plt>
  4043aa:	48 83 7d b8 00       	cmpq   $0x0,-0x48(%rbp)
  4043af:	0f 84 fb 00 00 00    	je     4044b0 <http_parser_execute+0x3260>
  4043b5:	48 8b 45 e8          	mov    -0x18(%rbp),%rax
  4043b9:	48 83 78 20 00       	cmpq   $0x0,0x20(%rax)
  4043be:	0f 95 c0             	setne  %al
  4043c1:	34 ff                	xor    $0xff,%al
  4043c3:	34 ff                	xor    $0xff,%al
  4043c5:	24 01                	and    $0x1,%al
  4043c7:	0f b6 c0             	movzbl %al,%eax
  4043ca:	48 98                	cltq   
  4043cc:	48 83 f8 00          	cmp    $0x0,%rax
  4043d0:	0f 84 d2 00 00 00    	je     4044a8 <http_parser_execute+0x3258>
  4043d6:	8b 55 9c             	mov    -0x64(%rbp),%edx
  4043d9:	48 8b 45 f0          	mov    -0x10(%rbp),%rax
  4043dd:	8b 08                	mov    (%rax),%ecx
  4043df:	83 e2 7f             	and    $0x7f,%edx
  4043e2:	c1 e2 0a             	shl    $0xa,%edx
  4043e5:	81 e1 ff 03 fe ff    	and    $0xfffe03ff,%ecx
  4043eb:	09 d1                	or     %edx,%ecx
  4043ed:	89 08                	mov    %ecx,(%rax)
  4043ef:	48 8b 45 e8          	mov    -0x18(%rbp),%rax
  4043f3:	48 8b 40 20          	mov    0x20(%rax),%rax
  4043f7:	48 8b 7d f0          	mov    -0x10(%rbp),%rdi
  4043fb:	48 8b 75 b8          	mov    -0x48(%rbp),%rsi
  4043ff:	48 8b 55 c8          	mov    -0x38(%rbp),%rdx
  404403:	48 8b 4d b8          	mov    -0x48(%rbp),%rcx
  404407:	48 29 ca             	sub    %rcx,%rdx
  40440a:	ff d0                	callq  *%rax
  40440c:	89 c1                	mov    %eax,%ecx
  40440e:	31 c0                	xor    %eax,%eax
  404410:	39 c8                	cmp    %ecx,%eax
  404412:	0f 95 c0             	setne  %al
  404415:	34 ff                	xor    $0xff,%al
  404417:	34 ff                	xor    $0xff,%al
  404419:	24 01                	and    $0x1,%al
  40441b:	0f b6 c0             	movzbl %al,%eax
  40441e:	48 98                	cltq   
  404420:	48 83 f8 00          	cmp    $0x0,%rax
  404424:	0f 84 2a 00 00 00    	je     404454 <http_parser_execute+0x3204>
  40442a:	e9 00 00 00 00       	jmpq   40442f <http_parser_execute+0x31df>
  40442f:	8b 4d 90             	mov    -0x70(%rbp),%ecx
  404432:	48 8b 45 f0          	mov    -0x10(%rbp),%rax
  404436:	89 48 04             	mov    %ecx,0x4(%rax)
  404439:	48 8b 45 f0          	mov    -0x10(%rbp),%rax
  40443d:	8b 48 14             	mov    0x14(%rax),%ecx
  404440:	81 e1 ff ff ff 80    	and    $0x80ffffff,%ecx
  404446:	81 c9 00 00 00 04    	or     $0x4000000,%ecx
  40444c:	89 48 14             	mov    %ecx,0x14(%rax)
  40444f:	e9 00 00 00 00       	jmpq   404454 <http_parser_execute+0x3204>
  404454:	48 8b 45 f0          	mov    -0x10(%rbp),%rax
  404458:	8b 00                	mov    (%rax),%eax
  40445a:	c1 e8 0a             	shr    $0xa,%eax
  40445d:	83 e0 7f             	and    $0x7f,%eax
  404460:	89 45 9c             	mov    %eax,-0x64(%rbp)
  404463:	48 8b 45 f0          	mov    -0x10(%rbp),%rax
  404467:	8b 40 14             	mov    0x14(%rax),%eax
  40446a:	c1 e8 18             	shr    $0x18,%eax
  40446d:	83 e0 7f             	and    $0x7f,%eax
  404470:	83 f8 00             	cmp    $0x0,%eax
  404473:	0f 95 c0             	setne  %al
  404476:	34 ff                	xor    $0xff,%al
  404478:	34 ff                	xor    $0xff,%al
  40447a:	24 01                	and    $0x1,%al
  40447c:	0f b6 c0             	movzbl %al,%eax
  40447f:	48 98                	cltq   
  404481:	48 83 f8 00          	cmp    $0x0,%rax
  404485:	0f 84 18 00 00 00    	je     4044a3 <http_parser_execute+0x3253>
  40448b:	48 8b 45 c8          	mov    -0x38(%rbp),%rax
  40448f:	48 8b 4d e0          	mov    -0x20(%rbp),%rcx
  404493:	48 29 c8             	sub    %rcx,%rax
  404496:	48 83 c0 01          	add    $0x1,%rax
  40449a:	48 89 45 f8          	mov    %rax,-0x8(%rbp)
  40449e:	e9 10 34 00 00       	jmpq   4078b3 <http_parser_execute+0x6663>
  4044a3:	e9 00 00 00 00       	jmpq   4044a8 <http_parser_execute+0x3258>
  4044a8:	48 c7 45 b8 00 00 00 	movq   $0x0,-0x48(%rbp)
  4044af:	00 
  4044b0:	e9 00 00 00 00       	jmpq   4044b5 <http_parser_execute+0x3265>
  4044b5:	e9 4a 0b 00 00       	jmpq   405004 <http_parser_execute+0x3db4>
  4044ba:	0f be 45 d6          	movsbl -0x2a(%rbp),%eax
  4044be:	83 f8 0a             	cmp    $0xa,%eax
  4044c1:	0f 85 d7 01 00 00    	jne    40469e <http_parser_execute+0x344e>
  4044c7:	c7 45 9c 34 00 00 00 	movl   $0x34,-0x64(%rbp)
  4044ce:	48 8b 45 c8          	mov    -0x38(%rbp),%rax
  4044d2:	48 8b 8d 68 ff ff ff 	mov    -0x98(%rbp),%rcx
  4044d9:	48 29 c8             	sub    %rcx,%rax
  4044dc:	03 45 90             	add    -0x70(%rbp),%eax
  4044df:	89 45 90             	mov    %eax,-0x70(%rbp)
  4044e2:	8b 45 90             	mov    -0x70(%rbp),%eax
  4044e5:	3b 04 25 c0 e0 8b 00 	cmp    0x8be0c0,%eax
  4044ec:	0f 97 c0             	seta   %al
  4044ef:	34 ff                	xor    $0xff,%al
  4044f1:	34 ff                	xor    $0xff,%al
  4044f3:	24 01                	and    $0x1,%al
  4044f5:	0f b6 c0             	movzbl %al,%eax
  4044f8:	48 98                	cltq   
  4044fa:	48 83 f8 00          	cmp    $0x0,%rax
  4044fe:	0f 84 2a 00 00 00    	je     40452e <http_parser_execute+0x32de>
  404504:	e9 00 00 00 00       	jmpq   404509 <http_parser_execute+0x32b9>
  404509:	8b 4d 90             	mov    -0x70(%rbp),%ecx
  40450c:	48 8b 45 f0          	mov    -0x10(%rbp),%rax
  404510:	89 48 04             	mov    %ecx,0x4(%rax)
  404513:	48 8b 45 f0          	mov    -0x10(%rbp),%rax
  404517:	8b 48 14             	mov    0x14(%rax),%ecx
  40451a:	81 e1 ff ff ff 80    	and    $0x80ffffff,%ecx
  404520:	81 c9 00 00 00 0c    	or     $0xc000000,%ecx
  404526:	89 48 14             	mov    %ecx,0x14(%rax)
  404529:	e9 0e 33 00 00       	jmpq   40783c <http_parser_execute+0x65ec>
  40452e:	e9 00 00 00 00       	jmpq   404533 <http_parser_execute+0x32e3>
  404533:	8b 95 64 ff ff ff    	mov    -0x9c(%rbp),%edx
  404539:	48 8b 45 f0          	mov    -0x10(%rbp),%rax
  40453d:	8b 08                	mov    (%rax),%ecx
  40453f:	83 e2 7f             	and    $0x7f,%edx
  404542:	c1 e2 11             	shl    $0x11,%edx
  404545:	81 e1 ff ff 01 ff    	and    $0xff01ffff,%ecx
  40454b:	09 d1                	or     %edx,%ecx
  40454d:	89 08                	mov    %ecx,(%rax)
  40454f:	48 8b 45 f0          	mov    -0x10(%rbp),%rax
  404553:	8b 40 14             	mov    0x14(%rax),%eax
  404556:	c1 e8 18             	shr    $0x18,%eax
  404559:	83 e0 7f             	and    $0x7f,%eax
  40455c:	83 f8 00             	cmp    $0x0,%eax
  40455f:	0f 85 05 00 00 00    	jne    40456a <http_parser_execute+0x331a>
  404565:	e9 28 00 00 00       	jmpq   404592 <http_parser_execute+0x3342>
  40456a:	48 bf a0 06 41 00 00 	movabs $0x4106a0,%rdi
  404571:	00 00 00 
  404574:	48 be c4 06 41 00 00 	movabs $0x4106c4,%rsi
  40457b:	00 00 00 
  40457e:	ba db 05 00 00       	mov    $0x5db,%edx
  404583:	48 b9 d2 06 41 00 00 	movabs $0x4106d2,%rcx
  40458a:	00 00 00 
  40458d:	e8 fe ca ff ff       	callq  401090 <__assert_fail@plt>
  404592:	48 83 7d b8 00       	cmpq   $0x0,-0x48(%rbp)
  404597:	0f 84 f7 00 00 00    	je     404694 <http_parser_execute+0x3444>
  40459d:	48 8b 45 e8          	mov    -0x18(%rbp),%rax
  4045a1:	48 83 78 20 00       	cmpq   $0x0,0x20(%rax)
  4045a6:	0f 95 c0             	setne  %al
  4045a9:	34 ff                	xor    $0xff,%al
  4045ab:	34 ff                	xor    $0xff,%al
  4045ad:	24 01                	and    $0x1,%al
  4045af:	0f b6 c0             	movzbl %al,%eax
  4045b2:	48 98                	cltq   
  4045b4:	48 83 f8 00          	cmp    $0x0,%rax
  4045b8:	0f 84 ce 00 00 00    	je     40468c <http_parser_execute+0x343c>
  4045be:	8b 55 9c             	mov    -0x64(%rbp),%edx
  4045c1:	48 8b 45 f0          	mov    -0x10(%rbp),%rax
  4045c5:	8b 08                	mov    (%rax),%ecx
  4045c7:	83 e2 7f             	and    $0x7f,%edx
  4045ca:	c1 e2 0a             	shl    $0xa,%edx
  4045cd:	81 e1 ff 03 fe ff    	and    $0xfffe03ff,%ecx
  4045d3:	09 d1                	or     %edx,%ecx
  4045d5:	89 08                	mov    %ecx,(%rax)
  4045d7:	48 8b 45 e8          	mov    -0x18(%rbp),%rax
  4045db:	48 8b 40 20          	mov    0x20(%rax),%rax
  4045df:	48 8b 7d f0          	mov    -0x10(%rbp),%rdi
  4045e3:	48 8b 75 b8          	mov    -0x48(%rbp),%rsi
  4045e7:	48 8b 55 c8          	mov    -0x38(%rbp),%rdx
  4045eb:	48 8b 4d b8          	mov    -0x48(%rbp),%rcx
  4045ef:	48 29 ca             	sub    %rcx,%rdx
  4045f2:	ff d0                	callq  *%rax
  4045f4:	89 c1                	mov    %eax,%ecx
  4045f6:	31 c0                	xor    %eax,%eax
  4045f8:	39 c8                	cmp    %ecx,%eax
  4045fa:	0f 95 c0             	setne  %al
  4045fd:	34 ff                	xor    $0xff,%al
  4045ff:	34 ff                	xor    $0xff,%al
  404601:	24 01                	and    $0x1,%al
  404603:	0f b6 c0             	movzbl %al,%eax
  404606:	48 98                	cltq   
  404608:	48 83 f8 00          	cmp    $0x0,%rax
  40460c:	0f 84 2a 00 00 00    	je     40463c <http_parser_execute+0x33ec>
  404612:	e9 00 00 00 00       	jmpq   404617 <http_parser_execute+0x33c7>
  404617:	8b 4d 90             	mov    -0x70(%rbp),%ecx
  40461a:	48 8b 45 f0          	mov    -0x10(%rbp),%rax
  40461e:	89 48 04             	mov    %ecx,0x4(%rax)
  404621:	48 8b 45 f0          	mov    -0x10(%rbp),%rax
  404625:	8b 48 14             	mov    0x14(%rax),%ecx
  404628:	81 e1 ff ff ff 80    	and    $0x80ffffff,%ecx
  40462e:	81 c9 00 00 00 04    	or     $0x4000000,%ecx
  404634:	89 48 14             	mov    %ecx,0x14(%rax)
  404637:	e9 00 00 00 00       	jmpq   40463c <http_parser_execute+0x33ec>
  40463c:	48 8b 45 f0          	mov    -0x10(%rbp),%rax
  404640:	8b 00                	mov    (%rax),%eax
  404642:	c1 e8 0a             	shr    $0xa,%eax
  404645:	83 e0 7f             	and    $0x7f,%eax
  404648:	89 45 9c             	mov    %eax,-0x64(%rbp)
  40464b:	48 8b 45 f0          	mov    -0x10(%rbp),%rax
  40464f:	8b 40 14             	mov    0x14(%rax),%eax
  404652:	c1 e8 18             	shr    $0x18,%eax
  404655:	83 e0 7f             	and    $0x7f,%eax
  404658:	83 f8 00             	cmp    $0x0,%eax
  40465b:	0f 95 c0             	setne  %al
  40465e:	34 ff                	xor    $0xff,%al
  404660:	34 ff                	xor    $0xff,%al
  404662:	24 01                	and    $0x1,%al
  404664:	0f b6 c0             	movzbl %al,%eax
  404667:	48 98                	cltq   
  404669:	48 83 f8 00          	cmp    $0x0,%rax
  40466d:	0f 84 14 00 00 00    	je     404687 <http_parser_execute+0x3437>
  404673:	48 8b 45 c8          	mov    -0x38(%rbp),%rax
  404677:	48 8b 4d e0          	mov    -0x20(%rbp),%rcx
  40467b:	48 29 c8             	sub    %rcx,%rax
  40467e:	48 89 45 f8          	mov    %rax,-0x8(%rbp)
  404682:	e9 2c 32 00 00       	jmpq   4078b3 <http_parser_execute+0x6663>
  404687:	e9 00 00 00 00       	jmpq   40468c <http_parser_execute+0x343c>
  40468c:	48 c7 45 b8 00 00 00 	movq   $0x0,-0x48(%rbp)
  404693:	00 
  404694:	e9 00 00 00 00       	jmpq   404699 <http_parser_execute+0x3449>
  404699:	e9 38 cf ff ff       	jmpq   4015d6 <http_parser_execute+0x386>
  40469e:	83 7d 98 00          	cmpl   $0x0,-0x68(%rbp)
  4046a2:	0f 85 6b 00 00 00    	jne    404713 <http_parser_execute+0x34c3>
  4046a8:	0f be 45 d6          	movsbl -0x2a(%rbp),%eax
  4046ac:	83 f8 0d             	cmp    $0xd,%eax
  4046af:	0f 84 5e 00 00 00    	je     404713 <http_parser_execute+0x34c3>
  4046b5:	0f be 45 d6          	movsbl -0x2a(%rbp),%eax
  4046b9:	83 f8 0a             	cmp    $0xa,%eax
  4046bc:	0f 84 51 00 00 00    	je     404713 <http_parser_execute+0x34c3>
  4046c2:	0f be 45 d6          	movsbl -0x2a(%rbp),%eax
  4046c6:	83 f8 09             	cmp    $0x9,%eax
  4046c9:	0f 84 44 00 00 00    	je     404713 <http_parser_execute+0x34c3>
  4046cf:	0f b6 45 d6          	movzbl -0x2a(%rbp),%eax
  4046d3:	83 f8 1f             	cmp    $0x1f,%eax
  4046d6:	0f 8e 0d 00 00 00    	jle    4046e9 <http_parser_execute+0x3499>
  4046dc:	0f be 45 d6          	movsbl -0x2a(%rbp),%eax
  4046e0:	83 f8 7f             	cmp    $0x7f,%eax
  4046e3:	0f 85 2a 00 00 00    	jne    404713 <http_parser_execute+0x34c3>
  4046e9:	e9 00 00 00 00       	jmpq   4046ee <http_parser_execute+0x349e>
  4046ee:	8b 4d 90             	mov    -0x70(%rbp),%ecx
  4046f1:	48 8b 45 f0          	mov    -0x10(%rbp),%rax
  4046f5:	89 48 04             	mov    %ecx,0x4(%rax)
  4046f8:	48 8b 45 f0          	mov    -0x10(%rbp),%rax
  4046fc:	8b 48 14             	mov    0x14(%rax),%ecx
  4046ff:	81 e1 ff ff ff 80    	and    $0x80ffffff,%ecx
  404705:	81 c9 00 00 00 18    	or     $0x18000000,%ecx
  40470b:	89 48 14             	mov    %ecx,0x14(%rax)
  40470e:	e9 29 31 00 00       	jmpq   40783c <http_parser_execute+0x65ec>
  404713:	8a 45 d6             	mov    -0x2a(%rbp),%al
  404716:	0c 20                	or     $0x20,%al
  404718:	88 45 d7             	mov    %al,-0x29(%rbp)
  40471b:	8b 85 64 ff ff ff    	mov    -0x9c(%rbp),%eax
  404721:	48 89 85 98 fe ff ff 	mov    %rax,-0x168(%rbp)
  404728:	48 83 e8 1a          	sub    $0x1a,%rax
  40472c:	0f 87 ab 08 00 00    	ja     404fdd <http_parser_execute+0x3d8d>
  404732:	48 8b 85 98 fe ff ff 	mov    -0x168(%rbp),%rax
  404739:	48 8b 04 c5 b8 f2 40 	mov    0x40f2b8(,%rax,8),%rax
  404740:	00 
  404741:	ff e0                	jmpq   *%rax
  404743:	48 8b 45 e0          	mov    -0x20(%rbp),%rax
  404747:	48 03 45 d8          	add    -0x28(%rbp),%rax
  40474b:	48 8b 4d c8          	mov    -0x38(%rbp),%rcx
  40474f:	48 29 c8             	sub    %rcx,%rax
  404752:	48 89 85 58 ff ff ff 	mov    %rax,-0xa8(%rbp)
  404759:	48 8b 45 c8          	mov    -0x38(%rbp),%rax
  40475d:	48 89 85 90 fe ff ff 	mov    %rax,-0x170(%rbp)
  404764:	48 8b 85 58 ff ff ff 	mov    -0xa8(%rbp),%rax
  40476b:	8b 0c 25 c0 e0 8b 00 	mov    0x8be0c0,%ecx
  404772:	48 39 c8             	cmp    %rcx,%rax
  404775:	0f 83 13 00 00 00    	jae    40478e <http_parser_execute+0x353e>
  40477b:	48 8b 85 58 ff ff ff 	mov    -0xa8(%rbp),%rax
  404782:	48 89 85 88 fe ff ff 	mov    %rax,-0x178(%rbp)
  404789:	e9 0e 00 00 00       	jmpq   40479c <http_parser_execute+0x354c>
  40478e:	8b 04 25 c0 e0 8b 00 	mov    0x8be0c0,%eax
  404795:	48 89 85 88 fe ff ff 	mov    %rax,-0x178(%rbp)
  40479c:	48 8b 85 90 fe ff ff 	mov    -0x170(%rbp),%rax
  4047a3:	48 8b 8d 88 fe ff ff 	mov    -0x178(%rbp),%rcx
  4047aa:	48 01 c8             	add    %rcx,%rax
  4047ad:	48 89 85 50 ff ff ff 	mov    %rax,-0xb0(%rbp)
  4047b4:	48 8b 45 c8          	mov    -0x38(%rbp),%rax
  4047b8:	48 3b 85 50 ff ff ff 	cmp    -0xb0(%rbp),%rax
  4047bf:	0f 84 bf 00 00 00    	je     404884 <http_parser_execute+0x3634>
  4047c5:	48 8b 45 c8          	mov    -0x38(%rbp),%rax
  4047c9:	8a 00                	mov    (%rax),%al
  4047cb:	88 45 d6             	mov    %al,-0x2a(%rbp)
  4047ce:	0f be 45 d6          	movsbl -0x2a(%rbp),%eax
  4047d2:	83 f8 0d             	cmp    $0xd,%eax
  4047d5:	0f 84 0d 00 00 00    	je     4047e8 <http_parser_execute+0x3598>
  4047db:	0f be 45 d6          	movsbl -0x2a(%rbp),%eax
  4047df:	83 f8 0a             	cmp    $0xa,%eax
  4047e2:	0f 85 11 00 00 00    	jne    4047f9 <http_parser_execute+0x35a9>
  4047e8:	48 8b 45 c8          	mov    -0x38(%rbp),%rax
  4047ec:	48 83 c0 ff          	add    $0xffffffffffffffff,%rax
  4047f0:	48 89 45 c8          	mov    %rax,-0x38(%rbp)
  4047f4:	e9 8b 00 00 00       	jmpq   404884 <http_parser_execute+0x3634>
  4047f9:	83 7d 98 00          	cmpl   $0x0,-0x68(%rbp)
  4047fd:	0f 85 6b 00 00 00    	jne    40486e <http_parser_execute+0x361e>
  404803:	0f be 45 d6          	movsbl -0x2a(%rbp),%eax
  404807:	83 f8 0d             	cmp    $0xd,%eax
  40480a:	0f 84 5e 00 00 00    	je     40486e <http_parser_execute+0x361e>
  404810:	0f be 45 d6          	movsbl -0x2a(%rbp),%eax
  404814:	83 f8 0a             	cmp    $0xa,%eax
  404817:	0f 84 51 00 00 00    	je     40486e <http_parser_execute+0x361e>
  40481d:	0f be 45 d6          	movsbl -0x2a(%rbp),%eax
  404821:	83 f8 09             	cmp    $0x9,%eax
  404824:	0f 84 44 00 00 00    	je     40486e <http_parser_execute+0x361e>
  40482a:	0f b6 45 d6          	movzbl -0x2a(%rbp),%eax
  40482e:	83 f8 1f             	cmp    $0x1f,%eax
  404831:	0f 8e 0d 00 00 00    	jle    404844 <http_parser_execute+0x35f4>
  404837:	0f be 45 d6          	movsbl -0x2a(%rbp),%eax
  40483b:	83 f8 7f             	cmp    $0x7f,%eax
  40483e:	0f 85 2a 00 00 00    	jne    40486e <http_parser_execute+0x361e>
  404844:	e9 00 00 00 00       	jmpq   404849 <http_parser_execute+0x35f9>
  404849:	8b 4d 90             	mov    -0x70(%rbp),%ecx
  40484c:	48 8b 45 f0          	mov    -0x10(%rbp),%rax
  404850:	89 48 04             	mov    %ecx,0x4(%rax)
  404853:	48 8b 45 f0          	mov    -0x10(%rbp),%rax
  404857:	8b 48 14             	mov    0x14(%rax),%ecx
  40485a:	81 e1 ff ff ff 80    	and    $0x80ffffff,%ecx
  404860:	81 c9 00 00 00 18    	or     $0x18000000,%ecx
  404866:	89 48 14             	mov    %ecx,0x14(%rax)
  404869:	e9 ce 2f 00 00       	jmpq   40783c <http_parser_execute+0x65ec>
  40486e:	e9 00 00 00 00       	jmpq   404873 <http_parser_execute+0x3623>
  404873:	48 8b 45 c8          	mov    -0x38(%rbp),%rax
  404877:	48 83 c0 01          	add    $0x1,%rax
  40487b:	48 89 45 c8          	mov    %rax,-0x38(%rbp)
  40487f:	e9 30 ff ff ff       	jmpq   4047b4 <http_parser_execute+0x3564>
  404884:	48 8b 45 c8          	mov    -0x38(%rbp),%rax
  404888:	48 8b 4d e0          	mov    -0x20(%rbp),%rcx
  40488c:	48 03 4d d8          	add    -0x28(%rbp),%rcx
  404890:	48 39 c8             	cmp    %rcx,%rax
  404893:	0f 85 0c 00 00 00    	jne    4048a5 <http_parser_execute+0x3655>
  404899:	48 8b 45 c8          	mov    -0x38(%rbp),%rax
  40489d:	48 83 c0 ff          	add    $0xffffffffffffffff,%rax
  4048a1:	48 89 45 c8          	mov    %rax,-0x38(%rbp)
  4048a5:	e9 44 07 00 00       	jmpq   404fee <http_parser_execute+0x3d9e>
  4048aa:	48 bf 74 07 41 00 00 	movabs $0x410774,%rdi
  4048b1:	00 00 00 
  4048b4:	48 be c4 06 41 00 00 	movabs $0x4106c4,%rsi
  4048bb:	00 00 00 
  4048be:	ba fe 05 00 00       	mov    $0x5fe,%edx
  4048c3:	48 b9 d2 06 41 00 00 	movabs $0x4106d2,%rcx
  4048ca:	00 00 00 
  4048cd:	e8 be c7 ff ff       	callq  401090 <__assert_fail@plt>
  4048d2:	0f be 45 d6          	movsbl -0x2a(%rbp),%eax
  4048d6:	83 f8 20             	cmp    $0x20,%eax
  4048d9:	0f 85 05 00 00 00    	jne    4048e4 <http_parser_execute+0x3694>
  4048df:	e9 0a 07 00 00       	jmpq   404fee <http_parser_execute+0x3d9e>
  4048e4:	c7 85 64 ff ff ff 0b 	movl   $0xb,-0x9c(%rbp)
  4048eb:	00 00 00 
  4048ee:	0f be 45 d6          	movsbl -0x2a(%rbp),%eax
  4048f2:	83 f8 20             	cmp    $0x20,%eax
  4048f5:	0f 85 0f 00 00 00    	jne    40490a <http_parser_execute+0x36ba>
  4048fb:	c7 85 64 ff ff ff 0c 	movl   $0xc,-0x9c(%rbp)
  404902:	00 00 00 
  404905:	e9 e4 06 00 00       	jmpq   404fee <http_parser_execute+0x3d9e>
  40490a:	0f be 4d d6          	movsbl -0x2a(%rbp),%ecx
  40490e:	31 c0                	xor    %eax,%eax
  404910:	83 f9 30             	cmp    $0x30,%ecx
  404913:	88 85 87 fe ff ff    	mov    %al,-0x179(%rbp)
  404919:	0f 8c 10 00 00 00    	jl     40492f <http_parser_execute+0x36df>
  40491f:	0f be 45 d6          	movsbl -0x2a(%rbp),%eax
  404923:	83 f8 39             	cmp    $0x39,%eax
  404926:	0f 9e c0             	setle  %al
  404929:	88 85 87 fe ff ff    	mov    %al,-0x179(%rbp)
  40492f:	8a 85 87 fe ff ff    	mov    -0x179(%rbp),%al
  404935:	34 ff                	xor    $0xff,%al
  404937:	34 ff                	xor    $0xff,%al
  404939:	34 ff                	xor    $0xff,%al
  40493b:	24 01                	and    $0x1,%al
  40493d:	0f b6 c0             	movzbl %al,%eax
  404940:	48 98                	cltq   
  404942:	48 83 f8 00          	cmp    $0x0,%rax
  404946:	0f 84 46 00 00 00    	je     404992 <http_parser_execute+0x3742>
  40494c:	e9 00 00 00 00       	jmpq   404951 <http_parser_execute+0x3701>
  404951:	8b 4d 90             	mov    -0x70(%rbp),%ecx
  404954:	48 8b 45 f0          	mov    -0x10(%rbp),%rax
  404958:	89 48 04             	mov    %ecx,0x4(%rax)
  40495b:	48 8b 45 f0          	mov    -0x10(%rbp),%rax
  40495f:	8b 48 14             	mov    0x14(%rax),%ecx
  404962:	81 e1 ff ff ff 80    	and    $0x80ffffff,%ecx
  404968:	81 c9 00 00 00 19    	or     $0x19000000,%ecx
  40496e:	89 48 14             	mov    %ecx,0x14(%rax)
  404971:	8b 95 64 ff ff ff    	mov    -0x9c(%rbp),%edx
  404977:	48 8b 45 f0          	mov    -0x10(%rbp),%rax
  40497b:	8b 08                	mov    (%rax),%ecx
  40497d:	83 e2 7f             	and    $0x7f,%edx
  404980:	c1 e2 11             	shl    $0x11,%edx
  404983:	81 e1 ff ff 01 ff    	and    $0xff01ffff,%ecx
  404989:	09 d1                	or     %edx,%ecx
  40498b:	89 08                	mov    %ecx,(%rax)
  40498d:	e9 aa 2e 00 00       	jmpq   40783c <http_parser_execute+0x65ec>
  404992:	48 8b 45 f0          	mov    -0x10(%rbp),%rax
  404996:	48 8b 40 08          	mov    0x8(%rax),%rax
  40499a:	48 89 85 48 ff ff ff 	mov    %rax,-0xb8(%rbp)
  4049a1:	48 6b 85 48 ff ff ff 	imul   $0xa,-0xb8(%rbp),%rax
  4049a8:	0a 
  4049a9:	48 89 85 48 ff ff ff 	mov    %rax,-0xb8(%rbp)
  4049b0:	0f be 45 d6          	movsbl -0x2a(%rbp),%eax
  4049b4:	83 e8 30             	sub    $0x30,%eax
  4049b7:	48 98                	cltq   
  4049b9:	48 03 85 48 ff ff ff 	add    -0xb8(%rbp),%rax
  4049c0:	48 89 85 48 ff ff ff 	mov    %rax,-0xb8(%rbp)
  4049c7:	48 8b 4d f0          	mov    -0x10(%rbp),%rcx
  4049cb:	48 b8 98 99 99 99 99 	movabs $0x1999999999999998,%rax
  4049d2:	99 99 19 
  4049d5:	48 3b 41 08          	cmp    0x8(%rcx),%rax
  4049d9:	0f 92 c0             	setb   %al
  4049dc:	34 ff                	xor    $0xff,%al
  4049de:	34 ff                	xor    $0xff,%al
  4049e0:	24 01                	and    $0x1,%al
  4049e2:	0f b6 c0             	movzbl %al,%eax
  4049e5:	48 98                	cltq   
  4049e7:	48 83 f8 00          	cmp    $0x0,%rax
  4049eb:	0f 84 46 00 00 00    	je     404a37 <http_parser_execute+0x37e7>
  4049f1:	e9 00 00 00 00       	jmpq   4049f6 <http_parser_execute+0x37a6>
  4049f6:	8b 4d 90             	mov    -0x70(%rbp),%ecx
  4049f9:	48 8b 45 f0          	mov    -0x10(%rbp),%rax
  4049fd:	89 48 04             	mov    %ecx,0x4(%rax)
  404a00:	48 8b 45 f0          	mov    -0x10(%rbp),%rax
  404a04:	8b 48 14             	mov    0x14(%rax),%ecx
  404a07:	81 e1 ff ff ff 80    	and    $0x80ffffff,%ecx
  404a0d:	81 c9 00 00 00 19    	or     $0x19000000,%ecx
  404a13:	89 48 14             	mov    %ecx,0x14(%rax)
  404a16:	8b 95 64 ff ff ff    	mov    -0x9c(%rbp),%edx
  404a1c:	48 8b 45 f0          	mov    -0x10(%rbp),%rax
  404a20:	8b 08                	mov    (%rax),%ecx
  404a22:	83 e2 7f             	and    $0x7f,%edx
  404a25:	c1 e2 11             	shl    $0x11,%edx
  404a28:	81 e1 ff ff 01 ff    	and    $0xff01ffff,%ecx
  404a2e:	09 d1                	or     %edx,%ecx
  404a30:	89 08                	mov    %ecx,(%rax)
  404a32:	e9 05 2e 00 00       	jmpq   40783c <http_parser_execute+0x65ec>
  404a37:	48 8b 8d 48 ff ff ff 	mov    -0xb8(%rbp),%rcx
  404a3e:	48 8b 45 f0          	mov    -0x10(%rbp),%rax
  404a42:	48 89 48 08          	mov    %rcx,0x8(%rax)
  404a46:	e9 a3 05 00 00       	jmpq   404fee <http_parser_execute+0x3d9e>
  404a4b:	0f be 45 d6          	movsbl -0x2a(%rbp),%eax
  404a4f:	83 f8 20             	cmp    $0x20,%eax
  404a52:	0f 85 05 00 00 00    	jne    404a5d <http_parser_execute+0x380d>
  404a58:	e9 91 05 00 00       	jmpq   404fee <http_parser_execute+0x3d9e>
  404a5d:	e9 00 00 00 00       	jmpq   404a62 <http_parser_execute+0x3812>
  404a62:	8b 4d 90             	mov    -0x70(%rbp),%ecx
  404a65:	48 8b 45 f0          	mov    -0x10(%rbp),%rax
  404a69:	89 48 04             	mov    %ecx,0x4(%rax)
  404a6c:	48 8b 45 f0          	mov    -0x10(%rbp),%rax
  404a70:	8b 48 14             	mov    0x14(%rax),%ecx
  404a73:	81 e1 ff ff ff 80    	and    $0x80ffffff,%ecx
  404a79:	81 c9 00 00 00 19    	or     $0x19000000,%ecx
  404a7f:	89 48 14             	mov    %ecx,0x14(%rax)
  404a82:	8b 95 64 ff ff ff    	mov    -0x9c(%rbp),%edx
  404a88:	48 8b 45 f0          	mov    -0x10(%rbp),%rax
  404a8c:	8b 08                	mov    (%rax),%ecx
  404a8e:	83 e2 7f             	and    $0x7f,%edx
  404a91:	c1 e2 11             	shl    $0x11,%edx
  404a94:	81 e1 ff ff 01 ff    	and    $0xff01ffff,%ecx
  404a9a:	09 d1                	or     %edx,%ecx
  404a9c:	89 08                	mov    %ecx,(%rax)
  404a9e:	e9 99 2d 00 00       	jmpq   40783c <http_parser_execute+0x65ec>
  404aa3:	0f be 4d d7          	movsbl -0x29(%rbp),%ecx
  404aa7:	b8 63 00 00 00       	mov    $0x63,%eax
  404aac:	39 c8                	cmp    %ecx,%eax
  404aae:	0f 85 0f 00 00 00    	jne    404ac3 <http_parser_execute+0x3873>
  404ab4:	c7 85 64 ff ff ff 10 	movl   $0x10,-0x9c(%rbp)
  404abb:	00 00 00 
  404abe:	e9 73 00 00 00       	jmpq   404b36 <http_parser_execute+0x38e6>
  404ac3:	0f be 45 d7          	movsbl -0x29(%rbp),%eax
  404ac7:	83 f8 20             	cmp    $0x20,%eax
  404aca:	0f 85 0f 00 00 00    	jne    404adf <http_parser_execute+0x388f>
  404ad0:	31 c0                	xor    %eax,%eax
  404ad2:	a8 01                	test   $0x1,%al
  404ad4:	0f 85 1a 00 00 00    	jne    404af4 <http_parser_execute+0x38a4>
  404ada:	e9 24 00 00 00       	jmpq   404b03 <http_parser_execute+0x38b3>
  404adf:	0f b6 45 d7          	movzbl -0x29(%rbp),%eax
  404ae3:	0f be 04 05 a0 04 41 	movsbl 0x4104a0(,%rax,1),%eax
  404aea:	00 
  404aeb:	83 f8 00             	cmp    $0x0,%eax
  404aee:	0f 84 0f 00 00 00    	je     404b03 <http_parser_execute+0x38b3>
  404af4:	c7 85 64 ff ff ff 11 	movl   $0x11,-0x9c(%rbp)
  404afb:	00 00 00 
  404afe:	e9 2e 00 00 00       	jmpq   404b31 <http_parser_execute+0x38e1>
  404b03:	0f be 45 d7          	movsbl -0x29(%rbp),%eax
  404b07:	83 f8 20             	cmp    $0x20,%eax
  404b0a:	0f 84 0d 00 00 00    	je     404b1d <http_parser_execute+0x38cd>
  404b10:	0f be 45 d7          	movsbl -0x29(%rbp),%eax
  404b14:	83 f8 09             	cmp    $0x9,%eax
  404b17:	0f 85 05 00 00 00    	jne    404b22 <http_parser_execute+0x38d2>
  404b1d:	e9 0a 00 00 00       	jmpq   404b2c <http_parser_execute+0x38dc>
  404b22:	c7 85 64 ff ff ff 00 	movl   $0x0,-0x9c(%rbp)
  404b29:	00 00 00 
  404b2c:	e9 00 00 00 00       	jmpq   404b31 <http_parser_execute+0x38e1>
  404b31:	e9 00 00 00 00       	jmpq   404b36 <http_parser_execute+0x38e6>
  404b36:	e9 b3 04 00 00       	jmpq   404fee <http_parser_execute+0x3d9e>
  404b3b:	48 8b 45 f0          	mov    -0x10(%rbp),%rax
  404b3f:	8b 10                	mov    (%rax),%edx
  404b41:	c1 ea 18             	shr    $0x18,%edx
  404b44:	83 e2 1f             	and    $0x1f,%edx
  404b47:	83 c2 01             	add    $0x1,%edx
  404b4a:	8b 08                	mov    (%rax),%ecx
  404b4c:	83 e2 1f             	and    $0x1f,%edx
  404b4f:	c1 e2 18             	shl    $0x18,%edx
  404b52:	81 e1 ff ff ff e0    	and    $0xe0ffffff,%ecx
  404b58:	09 d1                	or     %edx,%ecx
  404b5a:	89 08                	mov    %ecx,(%rax)
  404b5c:	48 8b 45 f0          	mov    -0x10(%rbp),%rax
  404b60:	8b 00                	mov    (%rax),%eax
  404b62:	c1 e8 18             	shr    $0x18,%eax
  404b65:	83 e0 1f             	and    $0x1f,%eax
  404b68:	89 c0                	mov    %eax,%eax
  404b6a:	48 83 f8 07          	cmp    $0x7,%rax
  404b6e:	0f 87 22 00 00 00    	ja     404b96 <http_parser_execute+0x3946>
  404b74:	0f be 45 d7          	movsbl -0x29(%rbp),%eax
  404b78:	48 8b 4d f0          	mov    -0x10(%rbp),%rcx
  404b7c:	8b 09                	mov    (%rcx),%ecx
  404b7e:	c1 e9 18             	shr    $0x18,%ecx
  404b81:	83 e1 1f             	and    $0x1f,%ecx
  404b84:	89 c9                	mov    %ecx,%ecx
  404b86:	0f be 0c 0d 75 5e 41 	movsbl 0x415e75(,%rcx,1),%ecx
  404b8d:	00 
  404b8e:	39 c8                	cmp    %ecx,%eax
  404b90:	0f 84 0f 00 00 00    	je     404ba5 <http_parser_execute+0x3955>
  404b96:	c7 85 64 ff ff ff 11 	movl   $0x11,-0x9c(%rbp)
  404b9d:	00 00 00 
  404ba0:	e9 27 00 00 00       	jmpq   404bcc <http_parser_execute+0x397c>
  404ba5:	48 8b 45 f0          	mov    -0x10(%rbp),%rax
  404ba9:	8b 00                	mov    (%rax),%eax
  404bab:	c1 e8 18             	shr    $0x18,%eax
  404bae:	83 e0 1f             	and    $0x1f,%eax
  404bb1:	89 c0                	mov    %eax,%eax
  404bb3:	48 83 f8 06          	cmp    $0x6,%rax
  404bb7:	0f 85 0a 00 00 00    	jne    404bc7 <http_parser_execute+0x3977>
  404bbd:	c7 85 64 ff ff ff 17 	movl   $0x17,-0x9c(%rbp)
  404bc4:	00 00 00 
  404bc7:	e9 00 00 00 00       	jmpq   404bcc <http_parser_execute+0x397c>
  404bcc:	e9 1d 04 00 00       	jmpq   404fee <http_parser_execute+0x3d9e>
  404bd1:	0f be 45 d6          	movsbl -0x2a(%rbp),%eax
  404bd5:	83 f8 2c             	cmp    $0x2c,%eax
  404bd8:	0f 85 1b 00 00 00    	jne    404bf9 <http_parser_execute+0x39a9>
  404bde:	c7 85 64 ff ff ff 0f 	movl   $0xf,-0x9c(%rbp)
  404be5:	00 00 00 
  404be8:	48 8b 45 f0          	mov    -0x10(%rbp),%rax
  404bec:	8b 08                	mov    (%rax),%ecx
  404bee:	81 e1 ff ff ff e0    	and    $0xe0ffffff,%ecx
  404bf4:	83 c9 00             	or     $0x0,%ecx
  404bf7:	89 08                	mov    %ecx,(%rax)
  404bf9:	e9 f0 03 00 00       	jmpq   404fee <http_parser_execute+0x3d9e>
  404bfe:	0f be 45 d7          	movsbl -0x29(%rbp),%eax
  404c02:	83 f8 6b             	cmp    $0x6b,%eax
  404c05:	0f 85 0f 00 00 00    	jne    404c1a <http_parser_execute+0x39ca>
  404c0b:	c7 85 64 ff ff ff 13 	movl   $0x13,-0x9c(%rbp)
  404c12:	00 00 00 
  404c15:	e9 b5 00 00 00       	jmpq   404ccf <http_parser_execute+0x3a7f>
  404c1a:	0f be 45 d7          	movsbl -0x29(%rbp),%eax
  404c1e:	83 f8 63             	cmp    $0x63,%eax
  404c21:	0f 85 0f 00 00 00    	jne    404c36 <http_parser_execute+0x39e6>
  404c27:	c7 85 64 ff ff ff 14 	movl   $0x14,-0x9c(%rbp)
  404c2e:	00 00 00 
  404c31:	e9 94 00 00 00       	jmpq   404cca <http_parser_execute+0x3a7a>
  404c36:	0f be 45 d7          	movsbl -0x29(%rbp),%eax
  404c3a:	83 f8 75             	cmp    $0x75,%eax
  404c3d:	0f 85 0f 00 00 00    	jne    404c52 <http_parser_execute+0x3a02>
  404c43:	c7 85 64 ff ff ff 15 	movl   $0x15,-0x9c(%rbp)
  404c4a:	00 00 00 
  404c4d:	e9 73 00 00 00       	jmpq   404cc5 <http_parser_execute+0x3a75>
  404c52:	0f be 45 d7          	movsbl -0x29(%rbp),%eax
  404c56:	83 f8 20             	cmp    $0x20,%eax
  404c59:	0f 85 0f 00 00 00    	jne    404c6e <http_parser_execute+0x3a1e>
  404c5f:	31 c0                	xor    %eax,%eax
  404c61:	a8 01                	test   $0x1,%al
  404c63:	0f 85 1a 00 00 00    	jne    404c83 <http_parser_execute+0x3a33>
  404c69:	e9 24 00 00 00       	jmpq   404c92 <http_parser_execute+0x3a42>
  404c6e:	0f b6 45 d7          	movzbl -0x29(%rbp),%eax
  404c72:	0f be 04 05 a0 04 41 	movsbl 0x4104a0(,%rax,1),%eax
  404c79:	00 
  404c7a:	83 f8 00             	cmp    $0x0,%eax
  404c7d:	0f 84 0f 00 00 00    	je     404c92 <http_parser_execute+0x3a42>
  404c83:	c7 85 64 ff ff ff 16 	movl   $0x16,-0x9c(%rbp)
  404c8a:	00 00 00 
  404c8d:	e9 2e 00 00 00       	jmpq   404cc0 <http_parser_execute+0x3a70>
  404c92:	0f be 45 d7          	movsbl -0x29(%rbp),%eax
  404c96:	83 f8 20             	cmp    $0x20,%eax
  404c99:	0f 84 0d 00 00 00    	je     404cac <http_parser_execute+0x3a5c>
  404c9f:	0f be 45 d7          	movsbl -0x29(%rbp),%eax
  404ca3:	83 f8 09             	cmp    $0x9,%eax
  404ca6:	0f 85 05 00 00 00    	jne    404cb1 <http_parser_execute+0x3a61>
  404cac:	e9 0a 00 00 00       	jmpq   404cbb <http_parser_execute+0x3a6b>
  404cb1:	c7 85 64 ff ff ff 00 	movl   $0x0,-0x9c(%rbp)
  404cb8:	00 00 00 
  404cbb:	e9 00 00 00 00       	jmpq   404cc0 <http_parser_execute+0x3a70>
  404cc0:	e9 00 00 00 00       	jmpq   404cc5 <http_parser_execute+0x3a75>
  404cc5:	e9 00 00 00 00       	jmpq   404cca <http_parser_execute+0x3a7a>
  404cca:	e9 00 00 00 00       	jmpq   404ccf <http_parser_execute+0x3a7f>
  404ccf:	e9 1a 03 00 00       	jmpq   404fee <http_parser_execute+0x3d9e>
  404cd4:	48 8b 45 f0          	mov    -0x10(%rbp),%rax
  404cd8:	8b 10                	mov    (%rax),%edx
  404cda:	c1 ea 18             	shr    $0x18,%edx
  404cdd:	83 e2 1f             	and    $0x1f,%edx
  404ce0:	83 c2 01             	add    $0x1,%edx
  404ce3:	8b 08                	mov    (%rax),%ecx
  404ce5:	83 e2 1f             	and    $0x1f,%edx
  404ce8:	c1 e2 18             	shl    $0x18,%edx
  404ceb:	81 e1 ff ff ff e0    	and    $0xe0ffffff,%ecx
  404cf1:	09 d1                	or     %edx,%ecx
  404cf3:	89 08                	mov    %ecx,(%rax)
  404cf5:	48 8b 45 f0          	mov    -0x10(%rbp),%rax
  404cf9:	8b 00                	mov    (%rax),%eax
  404cfb:	c1 e8 18             	shr    $0x18,%eax
  404cfe:	83 e0 1f             	and    $0x1f,%eax
  404d01:	89 c0                	mov    %eax,%eax
  404d03:	48 83 f8 0a          	cmp    $0xa,%rax
  404d07:	0f 87 22 00 00 00    	ja     404d2f <http_parser_execute+0x3adf>
  404d0d:	0f be 45 d7          	movsbl -0x29(%rbp),%eax
  404d11:	48 8b 4d f0          	mov    -0x10(%rbp),%rcx
  404d15:	8b 09                	mov    (%rcx),%ecx
  404d17:	c1 e9 18             	shr    $0x18,%ecx
  404d1a:	83 e1 1f             	and    $0x1f,%ecx
  404d1d:	89 c9                	mov    %ecx,%ecx
  404d1f:	0f be 0c 0d 8f 07 41 	movsbl 0x41078f(,%rcx,1),%ecx
  404d26:	00 
  404d27:	39 c8                	cmp    %ecx,%eax
  404d29:	0f 84 0f 00 00 00    	je     404d3e <http_parser_execute+0x3aee>
  404d2f:	c7 85 64 ff ff ff 16 	movl   $0x16,-0x9c(%rbp)
  404d36:	00 00 00 
  404d39:	e9 27 00 00 00       	jmpq   404d65 <http_parser_execute+0x3b15>
  404d3e:	48 8b 45 f0          	mov    -0x10(%rbp),%rax
  404d42:	8b 00                	mov    (%rax),%eax
  404d44:	c1 e8 18             	shr    $0x18,%eax
  404d47:	83 e0 1f             	and    $0x1f,%eax
  404d4a:	89 c0                	mov    %eax,%eax
  404d4c:	48 83 f8 09          	cmp    $0x9,%rax
  404d50:	0f 85 0a 00 00 00    	jne    404d60 <http_parser_execute+0x3b10>
  404d56:	c7 85 64 ff ff ff 18 	movl   $0x18,-0x9c(%rbp)
  404d5d:	00 00 00 
  404d60:	e9 00 00 00 00       	jmpq   404d65 <http_parser_execute+0x3b15>
  404d65:	e9 84 02 00 00       	jmpq   404fee <http_parser_execute+0x3d9e>
  404d6a:	48 8b 45 f0          	mov    -0x10(%rbp),%rax
  404d6e:	8b 10                	mov    (%rax),%edx
  404d70:	c1 ea 18             	shr    $0x18,%edx
  404d73:	83 e2 1f             	and    $0x1f,%edx
  404d76:	83 c2 01             	add    $0x1,%edx
  404d79:	8b 08                	mov    (%rax),%ecx
  404d7b:	83 e2 1f             	and    $0x1f,%edx
  404d7e:	c1 e2 18             	shl    $0x18,%edx
  404d81:	81 e1 ff ff ff e0    	and    $0xe0ffffff,%ecx
  404d87:	09 d1                	or     %edx,%ecx
  404d89:	89 08                	mov    %ecx,(%rax)
  404d8b:	48 8b 45 f0          	mov    -0x10(%rbp),%rax
  404d8f:	8b 00                	mov    (%rax),%eax
  404d91:	c1 e8 18             	shr    $0x18,%eax
  404d94:	83 e0 1f             	and    $0x1f,%eax
  404d97:	89 c0                	mov    %eax,%eax
  404d99:	48 83 f8 05          	cmp    $0x5,%rax
  404d9d:	0f 87 22 00 00 00    	ja     404dc5 <http_parser_execute+0x3b75>
  404da3:	0f be 45 d7          	movsbl -0x29(%rbp),%eax
  404da7:	48 8b 4d f0          	mov    -0x10(%rbp),%rcx
  404dab:	8b 09                	mov    (%rcx),%ecx
  404dad:	c1 e9 18             	shr    $0x18,%ecx
  404db0:	83 e1 1f             	and    $0x1f,%ecx
  404db3:	89 c9                	mov    %ecx,%ecx
  404db5:	0f be 0c 0d 9a 07 41 	movsbl 0x41079a(,%rcx,1),%ecx
  404dbc:	00 
  404dbd:	39 c8                	cmp    %ecx,%eax
  404dbf:	0f 84 0f 00 00 00    	je     404dd4 <http_parser_execute+0x3b84>
  404dc5:	c7 85 64 ff ff ff 16 	movl   $0x16,-0x9c(%rbp)
  404dcc:	00 00 00 
  404dcf:	e9 27 00 00 00       	jmpq   404dfb <http_parser_execute+0x3bab>
  404dd4:	48 8b 45 f0          	mov    -0x10(%rbp),%rax
  404dd8:	8b 00                	mov    (%rax),%eax
  404dda:	c1 e8 18             	shr    $0x18,%eax
  404ddd:	83 e0 1f             	and    $0x1f,%eax
  404de0:	89 c0                	mov    %eax,%eax
  404de2:	48 83 f8 04          	cmp    $0x4,%rax
  404de6:	0f 85 0a 00 00 00    	jne    404df6 <http_parser_execute+0x3ba6>
  404dec:	c7 85 64 ff ff ff 19 	movl   $0x19,-0x9c(%rbp)
  404df3:	00 00 00 
  404df6:	e9 00 00 00 00       	jmpq   404dfb <http_parser_execute+0x3bab>
  404dfb:	e9 ee 01 00 00       	jmpq   404fee <http_parser_execute+0x3d9e>
  404e00:	48 8b 45 f0          	mov    -0x10(%rbp),%rax
  404e04:	8b 10                	mov    (%rax),%edx
  404e06:	c1 ea 18             	shr    $0x18,%edx
  404e09:	83 e2 1f             	and    $0x1f,%edx
  404e0c:	83 c2 01             	add    $0x1,%edx
  404e0f:	8b 08                	mov    (%rax),%ecx
  404e11:	83 e2 1f             	and    $0x1f,%edx
  404e14:	c1 e2 18             	shl    $0x18,%edx
  404e17:	81 e1 ff ff ff e0    	and    $0xe0ffffff,%ecx
  404e1d:	09 d1                	or     %edx,%ecx
  404e1f:	89 08                	mov    %ecx,(%rax)
  404e21:	48 8b 45 f0          	mov    -0x10(%rbp),%rax
  404e25:	8b 00                	mov    (%rax),%eax
  404e27:	c1 e8 18             	shr    $0x18,%eax
  404e2a:	83 e0 1f             	and    $0x1f,%eax
  404e2d:	89 c0                	mov    %eax,%eax
  404e2f:	48 83 f8 07          	cmp    $0x7,%rax
  404e33:	0f 87 22 00 00 00    	ja     404e5b <http_parser_execute+0x3c0b>
  404e39:	0f be 45 d7          	movsbl -0x29(%rbp),%eax
  404e3d:	48 8b 4d f0          	mov    -0x10(%rbp),%rcx
  404e41:	8b 09                	mov    (%rcx),%ecx
  404e43:	c1 e9 18             	shr    $0x18,%ecx
  404e46:	83 e1 1f             	and    $0x1f,%ecx
  404e49:	89 c9                	mov    %ecx,%ecx
  404e4b:	0f be 0c 0d 50 07 41 	movsbl 0x410750(,%rcx,1),%ecx
  404e52:	00 
  404e53:	39 c8                	cmp    %ecx,%eax
  404e55:	0f 84 0f 00 00 00    	je     404e6a <http_parser_execute+0x3c1a>
  404e5b:	c7 85 64 ff ff ff 16 	movl   $0x16,-0x9c(%rbp)
  404e62:	00 00 00 
  404e65:	e9 27 00 00 00       	jmpq   404e91 <http_parser_execute+0x3c41>
  404e6a:	48 8b 45 f0          	mov    -0x10(%rbp),%rax
  404e6e:	8b 00                	mov    (%rax),%eax
  404e70:	c1 e8 18             	shr    $0x18,%eax
  404e73:	83 e0 1f             	and    $0x1f,%eax
  404e76:	89 c0                	mov    %eax,%eax
  404e78:	48 83 f8 06          	cmp    $0x6,%rax
  404e7c:	0f 85 0a 00 00 00    	jne    404e8c <http_parser_execute+0x3c3c>
  404e82:	c7 85 64 ff ff ff 1a 	movl   $0x1a,-0x9c(%rbp)
  404e89:	00 00 00 
  404e8c:	e9 00 00 00 00       	jmpq   404e91 <http_parser_execute+0x3c41>
  404e91:	e9 58 01 00 00       	jmpq   404fee <http_parser_execute+0x3d9e>
  404e96:	0f be 45 d6          	movsbl -0x2a(%rbp),%eax
  404e9a:	83 f8 2c             	cmp    $0x2c,%eax
  404e9d:	0f 85 1b 00 00 00    	jne    404ebe <http_parser_execute+0x3c6e>
  404ea3:	c7 85 64 ff ff ff 12 	movl   $0x12,-0x9c(%rbp)
  404eaa:	00 00 00 
  404ead:	48 8b 45 f0          	mov    -0x10(%rbp),%rax
  404eb1:	8b 08                	mov    (%rax),%ecx
  404eb3:	81 e1 ff ff ff e0    	and    $0xe0ffffff,%ecx
  404eb9:	83 c9 00             	or     $0x0,%ecx
  404ebc:	89 08                	mov    %ecx,(%rax)
  404ebe:	e9 2b 01 00 00       	jmpq   404fee <http_parser_execute+0x3d9e>
  404ec3:	0f be 45 d6          	movsbl -0x2a(%rbp),%eax
  404ec7:	83 f8 20             	cmp    $0x20,%eax
  404eca:	0f 84 0a 00 00 00    	je     404eda <http_parser_execute+0x3c8a>
  404ed0:	c7 85 64 ff ff ff 11 	movl   $0x11,-0x9c(%rbp)
  404ed7:	00 00 00 
  404eda:	e9 0f 01 00 00       	jmpq   404fee <http_parser_execute+0x3d9e>
  404edf:	0f be 45 d6          	movsbl -0x2a(%rbp),%eax
  404ee3:	83 f8 2c             	cmp    $0x2c,%eax
  404ee6:	0f 85 d0 00 00 00    	jne    404fbc <http_parser_execute+0x3d6c>
  404eec:	83 bd 64 ff ff ff 18 	cmpl   $0x18,-0x9c(%rbp)
  404ef3:	0f 85 2c 00 00 00    	jne    404f25 <http_parser_execute+0x3cd5>
  404ef9:	48 8b 45 f0          	mov    -0x10(%rbp),%rax
  404efd:	8b 10                	mov    (%rax),%edx
  404eff:	c1 ea 02             	shr    $0x2,%edx
  404f02:	81 e2 ff 00 00 00    	and    $0xff,%edx
  404f08:	83 ca 02             	or     $0x2,%edx
  404f0b:	8b 08                	mov    (%rax),%ecx
  404f0d:	81 e2 ff 00 00 00    	and    $0xff,%edx
  404f13:	c1 e2 02             	shl    $0x2,%edx
  404f16:	81 e1 03 fc ff ff    	and    $0xfffffc03,%ecx
  404f1c:	09 d1                	or     %edx,%ecx
  404f1e:	89 08                	mov    %ecx,(%rax)
  404f20:	e9 77 00 00 00       	jmpq   404f9c <http_parser_execute+0x3d4c>
  404f25:	83 bd 64 ff ff ff 19 	cmpl   $0x19,-0x9c(%rbp)
  404f2c:	0f 85 2c 00 00 00    	jne    404f5e <http_parser_execute+0x3d0e>
  404f32:	48 8b 45 f0          	mov    -0x10(%rbp),%rax
  404f36:	8b 10                	mov    (%rax),%edx
  404f38:	c1 ea 02             	shr    $0x2,%edx
  404f3b:	81 e2 ff 00 00 00    	and    $0xff,%edx
  404f41:	83 ca 04             	or     $0x4,%edx
  404f44:	8b 08                	mov    (%rax),%ecx
  404f46:	81 e2 ff 00 00 00    	and    $0xff,%edx
  404f4c:	c1 e2 02             	shl    $0x2,%edx
  404f4f:	81 e1 03 fc ff ff    	and    $0xfffffc03,%ecx
  404f55:	09 d1                	or     %edx,%ecx
  404f57:	89 08                	mov    %ecx,(%rax)
  404f59:	e9 39 00 00 00       	jmpq   404f97 <http_parser_execute+0x3d47>
  404f5e:	83 bd 64 ff ff ff 1a 	cmpl   $0x1a,-0x9c(%rbp)
  404f65:	0f 85 27 00 00 00    	jne    404f92 <http_parser_execute+0x3d42>
  404f6b:	48 8b 45 f0          	mov    -0x10(%rbp),%rax
  404f6f:	8b 10                	mov    (%rax),%edx
  404f71:	c1 ea 02             	shr    $0x2,%edx
  404f74:	81 e2 ff 00 00 00    	and    $0xff,%edx
  404f7a:	83 ca 08             	or     $0x8,%edx
  404f7d:	8b 08                	mov    (%rax),%ecx
  404f7f:	81 e2 ff 00 00 00    	and    $0xff,%edx
  404f85:	c1 e2 02             	shl    $0x2,%edx
  404f88:	81 e1 03 fc ff ff    	and    $0xfffffc03,%ecx
  404f8e:	09 d1                	or     %edx,%ecx
  404f90:	89 08                	mov    %ecx,(%rax)
  404f92:	e9 00 00 00 00       	jmpq   404f97 <http_parser_execute+0x3d47>
  404f97:	e9 00 00 00 00       	jmpq   404f9c <http_parser_execute+0x3d4c>
  404f9c:	c7 85 64 ff ff ff 12 	movl   $0x12,-0x9c(%rbp)
  404fa3:	00 00 00 
  404fa6:	48 8b 45 f0          	mov    -0x10(%rbp),%rax
  404faa:	8b 08                	mov    (%rax),%ecx
  404fac:	81 e1 ff ff ff e0    	and    $0xe0ffffff,%ecx
  404fb2:	83 c9 00             	or     $0x0,%ecx
  404fb5:	89 08                	mov    %ecx,(%rax)
  404fb7:	e9 1c 00 00 00       	jmpq   404fd8 <http_parser_execute+0x3d88>
  404fbc:	0f be 45 d6          	movsbl -0x2a(%rbp),%eax
  404fc0:	83 f8 20             	cmp    $0x20,%eax
  404fc3:	0f 84 0a 00 00 00    	je     404fd3 <http_parser_execute+0x3d83>
  404fc9:	c7 85 64 ff ff ff 16 	movl   $0x16,-0x9c(%rbp)
  404fd0:	00 00 00 
  404fd3:	e9 00 00 00 00       	jmpq   404fd8 <http_parser_execute+0x3d88>
  404fd8:	e9 11 00 00 00       	jmpq   404fee <http_parser_execute+0x3d9e>
  404fdd:	c7 45 9c 32 00 00 00 	movl   $0x32,-0x64(%rbp)
  404fe4:	c7 85 64 ff ff ff 00 	movl   $0x0,-0x9c(%rbp)
  404feb:	00 00 00 
  404fee:	e9 00 00 00 00       	jmpq   404ff3 <http_parser_execute+0x3da3>
  404ff3:	48 8b 45 c8          	mov    -0x38(%rbp),%rax
  404ff7:	48 83 c0 01          	add    $0x1,%rax
  404ffb:	48 89 45 c8          	mov    %rax,-0x38(%rbp)
  404fff:	e9 15 f3 ff ff       	jmpq   404319 <http_parser_execute+0x30c9>
  405004:	8b 95 64 ff ff ff    	mov    -0x9c(%rbp),%edx
  40500a:	48 8b 45 f0          	mov    -0x10(%rbp),%rax
  40500e:	8b 08                	mov    (%rax),%ecx
  405010:	83 e2 7f             	and    $0x7f,%edx
  405013:	c1 e2 11             	shl    $0x11,%edx
  405016:	81 e1 ff ff 01 ff    	and    $0xff01ffff,%ecx
  40501c:	09 d1                	or     %edx,%ecx
  40501e:	89 08                	mov    %ecx,(%rax)
  405020:	48 8b 45 c8          	mov    -0x38(%rbp),%rax
  405024:	48 8b 4d e0          	mov    -0x20(%rbp),%rcx
  405028:	48 03 4d d8          	add    -0x28(%rbp),%rcx
  40502c:	48 39 c8             	cmp    %rcx,%rax
  40502f:	0f 85 0c 00 00 00    	jne    405041 <http_parser_execute+0x3df1>
  405035:	48 8b 45 c8          	mov    -0x38(%rbp),%rax
  405039:	48 83 c0 ff          	add    $0xffffffffffffffff,%rax
  40503d:	48 89 45 c8          	mov    %rax,-0x38(%rbp)
  405041:	e9 00 00 00 00       	jmpq   405046 <http_parser_execute+0x3df6>
  405046:	48 8b 45 c8          	mov    -0x38(%rbp),%rax
  40504a:	48 8b 8d 68 ff ff ff 	mov    -0x98(%rbp),%rcx
  405051:	48 29 c8             	sub    %rcx,%rax
  405054:	03 45 90             	add    -0x70(%rbp),%eax
  405057:	89 45 90             	mov    %eax,-0x70(%rbp)
  40505a:	8b 45 90             	mov    -0x70(%rbp),%eax
  40505d:	3b 04 25 c0 e0 8b 00 	cmp    0x8be0c0,%eax
  405064:	0f 97 c0             	seta   %al
  405067:	34 ff                	xor    $0xff,%al
  405069:	34 ff                	xor    $0xff,%al
  40506b:	24 01                	and    $0x1,%al
  40506d:	0f b6 c0             	movzbl %al,%eax
  405070:	48 98                	cltq   
  405072:	48 83 f8 00          	cmp    $0x0,%rax
  405076:	0f 84 2a 00 00 00    	je     4050a6 <http_parser_execute+0x3e56>
  40507c:	e9 00 00 00 00       	jmpq   405081 <http_parser_execute+0x3e31>
  405081:	8b 4d 90             	mov    -0x70(%rbp),%ecx
  405084:	48 8b 45 f0          	mov    -0x10(%rbp),%rax
  405088:	89 48 04             	mov    %ecx,0x4(%rax)
  40508b:	48 8b 45 f0          	mov    -0x10(%rbp),%rax
  40508f:	8b 48 14             	mov    0x14(%rax),%ecx
  405092:	81 e1 ff ff ff 80    	and    $0x80ffffff,%ecx
  405098:	81 c9 00 00 00 0c    	or     $0xc000000,%ecx
  40509e:	89 48 14             	mov    %ecx,0x14(%rax)
  4050a1:	e9 96 27 00 00       	jmpq   40783c <http_parser_execute+0x65ec>
  4050a6:	e9 00 00 00 00       	jmpq   4050ab <http_parser_execute+0x3e5b>
  4050ab:	e9 1e 20 00 00       	jmpq   4070ce <http_parser_execute+0x5e7e>
  4050b0:	0f be 45 d6          	movsbl -0x2a(%rbp),%eax
  4050b4:	83 f8 0a             	cmp    $0xa,%eax
  4050b7:	0f 95 c0             	setne  %al
  4050ba:	34 ff                	xor    $0xff,%al
  4050bc:	34 ff                	xor    $0xff,%al
  4050be:	24 01                	and    $0x1,%al
  4050c0:	0f b6 c0             	movzbl %al,%eax
  4050c3:	48 98                	cltq   
  4050c5:	48 83 f8 00          	cmp    $0x0,%rax
  4050c9:	0f 84 2a 00 00 00    	je     4050f9 <http_parser_execute+0x3ea9>
  4050cf:	e9 00 00 00 00       	jmpq   4050d4 <http_parser_execute+0x3e84>
  4050d4:	8b 4d 90             	mov    -0x70(%rbp),%ecx
  4050d7:	48 8b 45 f0          	mov    -0x10(%rbp),%rax
  4050db:	89 48 04             	mov    %ecx,0x4(%rax)
  4050de:	48 8b 45 f0          	mov    -0x10(%rbp),%rax
  4050e2:	8b 48 14             	mov    0x14(%rax),%ecx
  4050e5:	81 e1 ff ff ff 80    	and    $0x80ffffff,%ecx
  4050eb:	81 c9 00 00 00 17    	or     $0x17000000,%ecx
  4050f1:	89 48 14             	mov    %ecx,0x14(%rax)
  4050f4:	e9 43 27 00 00       	jmpq   40783c <http_parser_execute+0x65ec>
  4050f9:	c7 45 9c 33 00 00 00 	movl   $0x33,-0x64(%rbp)
  405100:	e9 c9 1f 00 00       	jmpq   4070ce <http_parser_execute+0x5e7e>
  405105:	0f be 45 d6          	movsbl -0x2a(%rbp),%eax
  405109:	83 f8 20             	cmp    $0x20,%eax
  40510c:	0f 84 0d 00 00 00    	je     40511f <http_parser_execute+0x3ecf>
  405112:	0f be 45 d6          	movsbl -0x2a(%rbp),%eax
  405116:	83 f8 09             	cmp    $0x9,%eax
  405119:	0f 85 35 00 00 00    	jne    405154 <http_parser_execute+0x3f04>
  40511f:	48 8b 45 f0          	mov    -0x10(%rbp),%rax
  405123:	8b 00                	mov    (%rax),%eax
  405125:	c1 e8 11             	shr    $0x11,%eax
  405128:	83 e0 7f             	and    $0x7f,%eax
  40512b:	83 f8 0b             	cmp    $0xb,%eax
  40512e:	0f 85 14 00 00 00    	jne    405148 <http_parser_execute+0x3ef8>
  405134:	48 8b 45 f0          	mov    -0x10(%rbp),%rax
  405138:	8b 08                	mov    (%rax),%ecx
  40513a:	81 e1 ff ff 01 ff    	and    $0xff01ffff,%ecx
  405140:	81 c9 00 00 18 00    	or     $0x180000,%ecx
  405146:	89 08                	mov    %ecx,(%rax)
  405148:	c7 45 9c 31 00 00 00 	movl   $0x31,-0x64(%rbp)
  40514f:	e9 82 c4 ff ff       	jmpq   4015d6 <http_parser_execute+0x386>
  405154:	48 8b 45 f0          	mov    -0x10(%rbp),%rax
  405158:	8b 00                	mov    (%rax),%eax
  40515a:	c1 e8 11             	shr    $0x11,%eax
  40515d:	83 e0 7f             	and    $0x7f,%eax
  405160:	83 c0 e9             	add    $0xffffffe9,%eax
  405163:	89 c1                	mov    %eax,%ecx
  405165:	48 89 8d 78 fe ff ff 	mov    %rcx,-0x188(%rbp)
  40516c:	83 e8 03             	sub    $0x3,%eax
  40516f:	0f 87 c1 00 00 00    	ja     405236 <http_parser_execute+0x3fe6>
  405175:	48 8b 85 78 fe ff ff 	mov    -0x188(%rbp),%rax
  40517c:	48 8b 04 c5 98 f2 40 	mov    0x40f298(,%rax,8),%rax
  405183:	00 
  405184:	ff e0                	jmpq   *%rax
  405186:	48 8b 45 f0          	mov    -0x10(%rbp),%rax
  40518a:	8b 10                	mov    (%rax),%edx
  40518c:	c1 ea 02             	shr    $0x2,%edx
  40518f:	81 e2 ff 00 00 00    	and    $0xff,%edx
  405195:	83 ca 02             	or     $0x2,%edx
  405198:	8b 08                	mov    (%rax),%ecx
  40519a:	81 e2 ff 00 00 00    	and    $0xff,%edx
  4051a0:	c1 e2 02             	shl    $0x2,%edx
  4051a3:	81 e1 03 fc ff ff    	and    $0xfffffc03,%ecx
  4051a9:	09 d1                	or     %edx,%ecx
  4051ab:	89 08                	mov    %ecx,(%rax)
  4051ad:	e9 89 00 00 00       	jmpq   40523b <http_parser_execute+0x3feb>
  4051b2:	48 8b 45 f0          	mov    -0x10(%rbp),%rax
  4051b6:	8b 10                	mov    (%rax),%edx
  4051b8:	c1 ea 02             	shr    $0x2,%edx
  4051bb:	81 e2 ff 00 00 00    	and    $0xff,%edx
  4051c1:	83 ca 04             	or     $0x4,%edx
  4051c4:	8b 08                	mov    (%rax),%ecx
  4051c6:	81 e2 ff 00 00 00    	and    $0xff,%edx
  4051cc:	c1 e2 02             	shl    $0x2,%edx
  4051cf:	81 e1 03 fc ff ff    	and    $0xfffffc03,%ecx
  4051d5:	09 d1                	or     %edx,%ecx
  4051d7:	89 08                	mov    %ecx,(%rax)
  4051d9:	e9 5d 00 00 00       	jmpq   40523b <http_parser_execute+0x3feb>
  4051de:	48 8b 45 f0          	mov    -0x10(%rbp),%rax
  4051e2:	8b 10                	mov    (%rax),%edx
  4051e4:	c1 ea 02             	shr    $0x2,%edx
  4051e7:	81 e2 ff 00 00 00    	and    $0xff,%edx
  4051ed:	83 ca 01             	or     $0x1,%edx
  4051f0:	8b 08                	mov    (%rax),%ecx
  4051f2:	81 e2 ff 00 00 00    	and    $0xff,%edx
  4051f8:	c1 e2 02             	shl    $0x2,%edx
  4051fb:	81 e1 03 fc ff ff    	and    $0xfffffc03,%ecx
  405201:	09 d1                	or     %edx,%ecx
  405203:	89 08                	mov    %ecx,(%rax)
  405205:	e9 31 00 00 00       	jmpq   40523b <http_parser_execute+0x3feb>
  40520a:	48 8b 45 f0          	mov    -0x10(%rbp),%rax
  40520e:	8b 10                	mov    (%rax),%edx
  405210:	c1 ea 02             	shr    $0x2,%edx
  405213:	81 e2 ff 00 00 00    	and    $0xff,%edx
  405219:	83 ca 08             	or     $0x8,%edx
  40521c:	8b 08                	mov    (%rax),%ecx
  40521e:	81 e2 ff 00 00 00    	and    $0xff,%edx
  405224:	c1 e2 02             	shl    $0x2,%edx
  405227:	81 e1 03 fc ff ff    	and    $0xfffffc03,%ecx
  40522d:	09 d1                	or     %edx,%ecx
  40522f:	89 08                	mov    %ecx,(%rax)
  405231:	e9 05 00 00 00       	jmpq   40523b <http_parser_execute+0x3feb>
  405236:	e9 00 00 00 00       	jmpq   40523b <http_parser_execute+0x3feb>
  40523b:	c7 45 9c 2c 00 00 00 	movl   $0x2c,-0x64(%rbp)
  405242:	e9 8f c3 ff ff       	jmpq   4015d6 <http_parser_execute+0x386>
  405247:	e9 00 00 00 00       	jmpq   40524c <http_parser_execute+0x3ffc>
  40524c:	0f be 45 d6          	movsbl -0x2a(%rbp),%eax
  405250:	83 f8 0a             	cmp    $0xa,%eax
  405253:	0f 84 2a 00 00 00    	je     405283 <http_parser_execute+0x4033>
  405259:	e9 00 00 00 00       	jmpq   40525e <http_parser_execute+0x400e>
  40525e:	8b 4d 90             	mov    -0x70(%rbp),%ecx
  405261:	48 8b 45 f0          	mov    -0x10(%rbp),%rax
  405265:	89 48 04             	mov    %ecx,0x4(%rax)
  405268:	48 8b 45 f0          	mov    -0x10(%rbp),%rax
  40526c:	8b 48 14             	mov    0x14(%rax),%ecx
  40526f:	81 e1 ff ff ff 80    	and    $0x80ffffff,%ecx
  405275:	81 c9 00 00 00 1e    	or     $0x1e000000,%ecx
  40527b:	89 48 14             	mov    %ecx,0x14(%rax)
  40527e:	e9 b9 25 00 00       	jmpq   40783c <http_parser_execute+0x65ec>
  405283:	e9 00 00 00 00       	jmpq   405288 <http_parser_execute+0x4038>
  405288:	c7 45 9c 30 00 00 00 	movl   $0x30,-0x64(%rbp)
  40528f:	e9 3a 1e 00 00       	jmpq   4070ce <http_parser_execute+0x5e7e>
  405294:	0f be 45 d6          	movsbl -0x2a(%rbp),%eax
  405298:	83 f8 20             	cmp    $0x20,%eax
  40529b:	0f 84 0d 00 00 00    	je     4052ae <http_parser_execute+0x405e>
  4052a1:	0f be 45 d6          	movsbl -0x2a(%rbp),%eax
  4052a5:	83 f8 09             	cmp    $0x9,%eax
  4052a8:	0f 85 0c 00 00 00    	jne    4052ba <http_parser_execute+0x406a>
  4052ae:	c7 45 9c 2e 00 00 00 	movl   $0x2e,-0x64(%rbp)
  4052b5:	e9 14 1e 00 00       	jmpq   4070ce <http_parser_execute+0x5e7e>
  4052ba:	48 8b 45 f0          	mov    -0x10(%rbp),%rax
  4052be:	8b 00                	mov    (%rax),%eax
  4052c0:	c1 e8 11             	shr    $0x11,%eax
  4052c3:	83 e0 7f             	and    $0x7f,%eax
  4052c6:	83 c0 f6             	add    $0xfffffff6,%eax
  4052c9:	89 c1                	mov    %eax,%ecx
  4052cb:	48 89 8d 70 fe ff ff 	mov    %rcx,-0x190(%rbp)
  4052d2:	83 e8 10             	sub    $0x10,%eax
  4052d5:	0f 87 eb 00 00 00    	ja     4053c6 <http_parser_execute+0x4176>
  4052db:	48 8b 85 70 fe ff ff 	mov    -0x190(%rbp),%rax
  4052e2:	48 8b 04 c5 10 f2 40 	mov    0x40f210(,%rax,8),%rax
  4052e9:	00 
  4052ea:	ff e0                	jmpq   *%rax
  4052ec:	48 8b 45 f0          	mov    -0x10(%rbp),%rax
  4052f0:	8b 10                	mov    (%rax),%edx
  4052f2:	c1 ea 02             	shr    $0x2,%edx
  4052f5:	81 e2 ff 00 00 00    	and    $0xff,%edx
  4052fb:	83 ca 02             	or     $0x2,%edx
  4052fe:	8b 08                	mov    (%rax),%ecx
  405300:	81 e2 ff 00 00 00    	and    $0xff,%edx
  405306:	c1 e2 02             	shl    $0x2,%edx
  405309:	81 e1 03 fc ff ff    	and    $0xfffffc03,%ecx
  40530f:	09 d1                	or     %edx,%ecx
  405311:	89 08                	mov    %ecx,(%rax)
  405313:	e9 b3 00 00 00       	jmpq   4053cb <http_parser_execute+0x417b>
  405318:	48 8b 45 f0          	mov    -0x10(%rbp),%rax
  40531c:	8b 10                	mov    (%rax),%edx
  40531e:	c1 ea 02             	shr    $0x2,%edx
  405321:	81 e2 ff 00 00 00    	and    $0xff,%edx
  405327:	83 ca 04             	or     $0x4,%edx
  40532a:	8b 08                	mov    (%rax),%ecx
  40532c:	81 e2 ff 00 00 00    	and    $0xff,%edx
  405332:	c1 e2 02             	shl    $0x2,%edx
  405335:	81 e1 03 fc ff ff    	and    $0xfffffc03,%ecx
  40533b:	09 d1                	or     %edx,%ecx
  40533d:	89 08                	mov    %ecx,(%rax)
  40533f:	e9 87 00 00 00       	jmpq   4053cb <http_parser_execute+0x417b>
  405344:	48 8b 45 f0          	mov    -0x10(%rbp),%rax
  405348:	8b 10                	mov    (%rax),%edx
  40534a:	c1 ea 02             	shr    $0x2,%edx
  40534d:	81 e2 ff 00 00 00    	and    $0xff,%edx
  405353:	83 ca 08             	or     $0x8,%edx
  405356:	8b 08                	mov    (%rax),%ecx
  405358:	81 e2 ff 00 00 00    	and    $0xff,%edx
  40535e:	c1 e2 02             	shl    $0x2,%edx
  405361:	81 e1 03 fc ff ff    	and    $0xfffffc03,%ecx
  405367:	09 d1                	or     %edx,%ecx
  405369:	89 08                	mov    %ecx,(%rax)
  40536b:	e9 5b 00 00 00       	jmpq   4053cb <http_parser_execute+0x417b>
  405370:	48 8b 45 f0          	mov    -0x10(%rbp),%rax
  405374:	8b 10                	mov    (%rax),%edx
  405376:	c1 ea 02             	shr    $0x2,%edx
  405379:	81 e2 ff 00 00 00    	and    $0xff,%edx
  40537f:	83 ca 01             	or     $0x1,%edx
  405382:	8b 08                	mov    (%rax),%ecx
  405384:	81 e2 ff 00 00 00    	and    $0xff,%edx
  40538a:	c1 e2 02             	shl    $0x2,%edx
  40538d:	81 e1 03 fc ff ff    	and    $0xfffffc03,%ecx
  405393:	09 d1                	or     %edx,%ecx
  405395:	89 08                	mov    %ecx,(%rax)
  405397:	e9 2f 00 00 00       	jmpq   4053cb <http_parser_execute+0x417b>
  40539c:	e9 00 00 00 00       	jmpq   4053a1 <http_parser_execute+0x4151>
  4053a1:	8b 4d 90             	mov    -0x70(%rbp),%ecx
  4053a4:	48 8b 45 f0          	mov    -0x10(%rbp),%rax
  4053a8:	89 48 04             	mov    %ecx,0x4(%rax)
  4053ab:	48 8b 45 f0          	mov    -0x10(%rbp),%rax
  4053af:	8b 48 14             	mov    0x14(%rax),%ecx
  4053b2:	81 e1 ff ff ff 80    	and    $0x80ffffff,%ecx
  4053b8:	81 c9 00 00 00 19    	or     $0x19000000,%ecx
  4053be:	89 48 14             	mov    %ecx,0x14(%rax)
  4053c1:	e9 76 24 00 00       	jmpq   40783c <http_parser_execute+0x65ec>
  4053c6:	e9 00 00 00 00       	jmpq   4053cb <http_parser_execute+0x417b>
  4053cb:	e9 00 00 00 00       	jmpq   4053d0 <http_parser_execute+0x4180>
  4053d0:	48 83 7d b8 00       	cmpq   $0x0,-0x48(%rbp)
  4053d5:	0f 85 08 00 00 00    	jne    4053e3 <http_parser_execute+0x4193>
  4053db:	48 8b 45 c8          	mov    -0x38(%rbp),%rax
  4053df:	48 89 45 b8          	mov    %rax,-0x48(%rbp)
  4053e3:	e9 00 00 00 00       	jmpq   4053e8 <http_parser_execute+0x4198>
  4053e8:	c7 45 9c 2c 00 00 00 	movl   $0x2c,-0x64(%rbp)
  4053ef:	48 8b 45 f0          	mov    -0x10(%rbp),%rax
  4053f3:	8b 40 14             	mov    0x14(%rax),%eax
  4053f6:	c1 e8 18             	shr    $0x18,%eax
  4053f9:	83 e0 7f             	and    $0x7f,%eax
  4053fc:	83 f8 00             	cmp    $0x0,%eax
  4053ff:	0f 85 05 00 00 00    	jne    40540a <http_parser_execute+0x41ba>
  405405:	e9 28 00 00 00       	jmpq   405432 <http_parser_execute+0x41e2>
  40540a:	48 bf a0 06 41 00 00 	movabs $0x4106a0,%rdi
  405411:	00 00 00 
  405414:	48 be c4 06 41 00 00 	movabs $0x4106c4,%rsi
  40541b:	00 00 00 
  40541e:	ba fe 06 00 00       	mov    $0x6fe,%edx
  405423:	48 b9 d2 06 41 00 00 	movabs $0x4106d2,%rcx
  40542a:	00 00 00 
  40542d:	e8 5e bc ff ff       	callq  401090 <__assert_fail@plt>
  405432:	48 83 7d b8 00       	cmpq   $0x0,-0x48(%rbp)
  405437:	0f 84 f7 00 00 00    	je     405534 <http_parser_execute+0x42e4>
  40543d:	48 8b 45 e8          	mov    -0x18(%rbp),%rax
  405441:	48 83 78 20 00       	cmpq   $0x0,0x20(%rax)
  405446:	0f 95 c0             	setne  %al
  405449:	34 ff                	xor    $0xff,%al
  40544b:	34 ff                	xor    $0xff,%al
  40544d:	24 01                	and    $0x1,%al
  40544f:	0f b6 c0             	movzbl %al,%eax
  405452:	48 98                	cltq   
  405454:	48 83 f8 00          	cmp    $0x0,%rax
  405458:	0f 84 ce 00 00 00    	je     40552c <http_parser_execute+0x42dc>
  40545e:	8b 55 9c             	mov    -0x64(%rbp),%edx
  405461:	48 8b 45 f0          	mov    -0x10(%rbp),%rax
  405465:	8b 08                	mov    (%rax),%ecx
  405467:	83 e2 7f             	and    $0x7f,%edx
  40546a:	c1 e2 0a             	shl    $0xa,%edx
  40546d:	81 e1 ff 03 fe ff    	and    $0xfffe03ff,%ecx
  405473:	09 d1                	or     %edx,%ecx
  405475:	89 08                	mov    %ecx,(%rax)
  405477:	48 8b 45 e8          	mov    -0x18(%rbp),%rax
  40547b:	48 8b 40 20          	mov    0x20(%rax),%rax
  40547f:	48 8b 7d f0          	mov    -0x10(%rbp),%rdi
  405483:	48 8b 75 b8          	mov    -0x48(%rbp),%rsi
  405487:	48 8b 55 c8          	mov    -0x38(%rbp),%rdx
  40548b:	48 8b 4d b8          	mov    -0x48(%rbp),%rcx
  40548f:	48 29 ca             	sub    %rcx,%rdx
  405492:	ff d0                	callq  *%rax
  405494:	89 c1                	mov    %eax,%ecx
  405496:	31 c0                	xor    %eax,%eax
  405498:	39 c8                	cmp    %ecx,%eax
  40549a:	0f 95 c0             	setne  %al
  40549d:	34 ff                	xor    $0xff,%al
  40549f:	34 ff                	xor    $0xff,%al
  4054a1:	24 01                	and    $0x1,%al
  4054a3:	0f b6 c0             	movzbl %al,%eax
  4054a6:	48 98                	cltq   
  4054a8:	48 83 f8 00          	cmp    $0x0,%rax
  4054ac:	0f 84 2a 00 00 00    	je     4054dc <http_parser_execute+0x428c>
  4054b2:	e9 00 00 00 00       	jmpq   4054b7 <http_parser_execute+0x4267>
  4054b7:	8b 4d 90             	mov    -0x70(%rbp),%ecx
  4054ba:	48 8b 45 f0          	mov    -0x10(%rbp),%rax
  4054be:	89 48 04             	mov    %ecx,0x4(%rax)
  4054c1:	48 8b 45 f0          	mov    -0x10(%rbp),%rax
  4054c5:	8b 48 14             	mov    0x14(%rax),%ecx
  4054c8:	81 e1 ff ff ff 80    	and    $0x80ffffff,%ecx
  4054ce:	81 c9 00 00 00 04    	or     $0x4000000,%ecx
  4054d4:	89 48 14             	mov    %ecx,0x14(%rax)
  4054d7:	e9 00 00 00 00       	jmpq   4054dc <http_parser_execute+0x428c>
  4054dc:	48 8b 45 f0          	mov    -0x10(%rbp),%rax
  4054e0:	8b 00                	mov    (%rax),%eax
  4054e2:	c1 e8 0a             	shr    $0xa,%eax
  4054e5:	83 e0 7f             	and    $0x7f,%eax
  4054e8:	89 45 9c             	mov    %eax,-0x64(%rbp)
  4054eb:	48 8b 45 f0          	mov    -0x10(%rbp),%rax
  4054ef:	8b 40 14             	mov    0x14(%rax),%eax
  4054f2:	c1 e8 18             	shr    $0x18,%eax
  4054f5:	83 e0 7f             	and    $0x7f,%eax
  4054f8:	83 f8 00             	cmp    $0x0,%eax
  4054fb:	0f 95 c0             	setne  %al
  4054fe:	34 ff                	xor    $0xff,%al
  405500:	34 ff                	xor    $0xff,%al
  405502:	24 01                	and    $0x1,%al
  405504:	0f b6 c0             	movzbl %al,%eax
  405507:	48 98                	cltq   
  405509:	48 83 f8 00          	cmp    $0x0,%rax
  40550d:	0f 84 14 00 00 00    	je     405527 <http_parser_execute+0x42d7>
  405513:	48 8b 45 c8          	mov    -0x38(%rbp),%rax
  405517:	48 8b 4d e0          	mov    -0x20(%rbp),%rcx
  40551b:	48 29 c8             	sub    %rcx,%rax
  40551e:	48 89 45 f8          	mov    %rax,-0x8(%rbp)
  405522:	e9 8c 23 00 00       	jmpq   4078b3 <http_parser_execute+0x6663>
  405527:	e9 00 00 00 00       	jmpq   40552c <http_parser_execute+0x42dc>
  40552c:	48 c7 45 b8 00 00 00 	movq   $0x0,-0x48(%rbp)
  405533:	00 
  405534:	e9 00 00 00 00       	jmpq   405539 <http_parser_execute+0x42e9>
  405539:	e9 98 c0 ff ff       	jmpq   4015d6 <http_parser_execute+0x386>
  40553e:	e9 00 00 00 00       	jmpq   405543 <http_parser_execute+0x42f3>
  405543:	0f be 45 d6          	movsbl -0x2a(%rbp),%eax
  405547:	83 f8 0a             	cmp    $0xa,%eax
  40554a:	0f 84 2a 00 00 00    	je     40557a <http_parser_execute+0x432a>
  405550:	e9 00 00 00 00       	jmpq   405555 <http_parser_execute+0x4305>
  405555:	8b 4d 90             	mov    -0x70(%rbp),%ecx
  405558:	48 8b 45 f0          	mov    -0x10(%rbp),%rax
  40555c:	89 48 04             	mov    %ecx,0x4(%rax)
  40555f:	48 8b 45 f0          	mov    -0x10(%rbp),%rax
  405563:	8b 48 14             	mov    0x14(%rax),%ecx
  405566:	81 e1 ff ff ff 80    	and    $0x80ffffff,%ecx
  40556c:	81 c9 00 00 00 1e    	or     $0x1e000000,%ecx
  405572:	89 48 14             	mov    %ecx,0x14(%rax)
  405575:	e9 c2 22 00 00       	jmpq   40783c <http_parser_execute+0x65ec>
  40557a:	e9 00 00 00 00       	jmpq   40557f <http_parser_execute+0x432f>
  40557f:	48 8b 45 f0          	mov    -0x10(%rbp),%rax
  405583:	8b 00                	mov    (%rax),%eax
  405585:	c1 e8 02             	shr    $0x2,%eax
  405588:	25 ff 00 00 00       	and    $0xff,%eax
  40558d:	83 e0 10             	and    $0x10,%eax
  405590:	83 f8 00             	cmp    $0x0,%eax
  405593:	0f 84 34 01 00 00    	je     4056cd <http_parser_execute+0x447d>
  405599:	c7 45 9c 40 00 00 00 	movl   $0x40,-0x64(%rbp)
  4055a0:	48 8b 45 f0          	mov    -0x10(%rbp),%rax
  4055a4:	8b 40 14             	mov    0x14(%rax),%eax
  4055a7:	c1 e8 18             	shr    $0x18,%eax
  4055aa:	83 e0 7f             	and    $0x7f,%eax
